
dist/Release/production/VT69.X.production.elf:     file format elf32-littlearm

Sections:
Idx Name          Size      VMA       LMA       File off  Algn
  0 .text         00005fd0  00000000  00000000  00010000  2**4
                  CONTENTS, ALLOC, LOAD, READONLY, CODE
  1 .relocate     0000009c  20000000  00005fd0  00020000  2**2
                  CONTENTS, ALLOC, LOAD, DATA
  2 .bkupram      00000000  47000000  47000000  0002009c  2**0
                  CONTENTS
  3 .qspi         00000000  04000000  04000000  0002009c  2**0
                  CONTENTS
  4 .bss          000030d4  2000009c  0000606c  0002009c  2**2
                  ALLOC
  5 .stack        0000c000  20003170  00009140  0002009c  2**0
                  ALLOC
  6 .ARM.attributes 0000002e  00000000  00000000  0002009c  2**0
                  CONTENTS, READONLY
  7 .comment      00000059  00000000  00000000  000200ca  2**0
                  CONTENTS, READONLY
  8 .debug_frame  00000830  00000000  00000000  00020124  2**2
                  CONTENTS, READONLY, DEBUGGING

Disassembly of section .text:

00000000 <exception_table>:
       0:	70 f1 00 20 d5 02 00 00 d1 02 00 00 d1 02 00 00     p.. ............
      10:	d1 02 00 00 d1 02 00 00 d1 02 00 00 00 00 00 00     ................
	...
      2c:	d1 02 00 00 d1 02 00 00 00 00 00 00 d1 02 00 00     ................
      3c:	d1 02 00 00 d1 02 00 00 d1 02 00 00 d1 02 00 00     ................
      4c:	d1 02 00 00 d1 02 00 00 d1 02 00 00 d1 02 00 00     ................
      5c:	d1 02 00 00 d1 02 00 00 d1 02 00 00 d1 02 00 00     ................
      6c:	d1 02 00 00 d1 02 00 00 d1 02 00 00 d1 02 00 00     ................
      7c:	d1 02 00 00 d1 02 00 00 d1 02 00 00 d1 02 00 00     ................
      8c:	d1 02 00 00 d1 02 00 00 d1 02 00 00 d1 02 00 00     ................
      9c:	d1 02 00 00 d1 02 00 00 d1 02 00 00 d1 02 00 00     ................
      ac:	d1 02 00 00 d1 02 00 00 4d 0d 00 00 21 0d 00 00     ........M...!...
      bc:	d1 02 00 00 d1 02 00 00 d1 02 00 00 d1 02 00 00     ................
      cc:	d1 02 00 00 d1 02 00 00 d1 02 00 00 d1 02 00 00     ................
      dc:	d1 02 00 00 d1 02 00 00 d1 02 00 00 00 00 00 00     ................
	...
      f4:	91 0e 00 00 d1 02 00 00 d1 02 00 00 d1 02 00 00     ................
     104:	d1 02 00 00 d1 02 00 00 d1 02 00 00 d1 02 00 00     ................
     114:	d1 02 00 00 d1 02 00 00 d1 02 00 00 d1 02 00 00     ................
     124:	d1 02 00 00 d1 02 00 00 d1 02 00 00 d1 02 00 00     ................
     134:	d1 02 00 00 d1 02 00 00 d1 02 00 00 d1 02 00 00     ................
     144:	d1 02 00 00 d1 02 00 00 d1 02 00 00 d1 02 00 00     ................
     154:	d1 02 00 00 d1 02 00 00 d1 02 00 00 d1 02 00 00     ................
     164:	d1 02 00 00 d1 02 00 00 d1 02 00 00 d1 02 00 00     ................
     174:	d1 02 00 00 00 00 00 00 00 00 00 00 55 1b 00 00     ............U...
     184:	5d 1b 00 00 65 1b 00 00 6d 1b 00 00 00 00 00 00     ]...e...m.......
     194:	d1 02 00 00 d1 02 00 00 d1 02 00 00 d1 02 00 00     ................
     1a4:	d1 02 00 00 d1 02 00 00 d1 02 00 00 d1 02 00 00     ................
     1b4:	d1 02 00 00 d1 02 00 00 d1 02 00 00 d1 02 00 00     ................
     1c4:	d1 02 00 00 d1 02 00 00 d1 02 00 00 d1 02 00 00     ................
     1d4:	d1 02 00 00 d1 02 00 00 d1 02 00 00 d1 02 00 00     ................
     1e4:	d1 02 00 00 d1 02 00 00 d1 02 00 00 d1 02 00 00     ................
     1f4:	d1 02 00 00 d1 02 00 00 d1 02 00 00 d1 02 00 00     ................
     204:	d1 02 00 00 d1 02 00 00 d1 02 00 00 d1 02 00 00     ................
     214:	d1 02 00 00 d1 02 00 00 d1 02 00 00 d1 02 00 00     ................
     224:	d1 02 00 00 d1 02 00 00 d1 02 00 00 d1 02 00 00     ................
     234:	d1 02 00 00 d1 02 00 00 d1 02 00 00 d1 02 00 00     ................
     244:	d1 02 00 00 d1 02 00 00 d1 02 00 00 d1 02 00 00     ................
     254:	d1 02 00 00 d1 02 00 00 d1 02 00 00 d1 02 00 00     ................

00000264 <__do_global_dtors_aux>:
     264:	b510      	push	{r4, lr}
     266:	4c05      	ldr	r4, [pc, #20]	; (27c <__do_global_dtors_aux+0x18>)
     268:	7823      	ldrb	r3, [r4, #0]
     26a:	b933      	cbnz	r3, 27a <__do_global_dtors_aux+0x16>
     26c:	4b04      	ldr	r3, [pc, #16]	; (280 <__do_global_dtors_aux+0x1c>)
     26e:	b113      	cbz	r3, 276 <__do_global_dtors_aux+0x12>
     270:	4804      	ldr	r0, [pc, #16]	; (284 <__do_global_dtors_aux+0x20>)
     272:	f3af 8000 	nop.w
     276:	2301      	movs	r3, #1
     278:	7023      	strb	r3, [r4, #0]
     27a:	bd10      	pop	{r4, pc}
     27c:	2000009c 	.word	0x2000009c
     280:	00000000 	.word	0x00000000
     284:	00005fd0 	.word	0x00005fd0

00000288 <frame_dummy>:
     288:	4b0c      	ldr	r3, [pc, #48]	; (2bc <frame_dummy+0x34>)
     28a:	b143      	cbz	r3, 29e <frame_dummy+0x16>
     28c:	480c      	ldr	r0, [pc, #48]	; (2c0 <frame_dummy+0x38>)
     28e:	490d      	ldr	r1, [pc, #52]	; (2c4 <frame_dummy+0x3c>)
     290:	b510      	push	{r4, lr}
     292:	f3af 8000 	nop.w
     296:	480c      	ldr	r0, [pc, #48]	; (2c8 <frame_dummy+0x40>)
     298:	6803      	ldr	r3, [r0, #0]
     29a:	b923      	cbnz	r3, 2a6 <frame_dummy+0x1e>
     29c:	bd10      	pop	{r4, pc}
     29e:	480a      	ldr	r0, [pc, #40]	; (2c8 <frame_dummy+0x40>)
     2a0:	6803      	ldr	r3, [r0, #0]
     2a2:	b933      	cbnz	r3, 2b2 <frame_dummy+0x2a>
     2a4:	4770      	bx	lr
     2a6:	4b09      	ldr	r3, [pc, #36]	; (2cc <frame_dummy+0x44>)
     2a8:	2b00      	cmp	r3, #0
     2aa:	d0f7      	beq.n	29c <frame_dummy+0x14>
     2ac:	e8bd 4010 	ldmia.w	sp!, {r4, lr}
     2b0:	4718      	bx	r3
     2b2:	4b06      	ldr	r3, [pc, #24]	; (2cc <frame_dummy+0x44>)
     2b4:	2b00      	cmp	r3, #0
     2b6:	d0f5      	beq.n	2a4 <frame_dummy+0x1c>
     2b8:	4718      	bx	r3
     2ba:	bf00      	nop
     2bc:	00000000 	.word	0x00000000
     2c0:	00005fd0 	.word	0x00005fd0
     2c4:	200000a0 	.word	0x200000a0
     2c8:	00005fd0 	.word	0x00005fd0
     2cc:	00000000 	.word	0x00000000

000002d0 <Dummy_Handler>:
     2d0:	e7fe      	b.n	2d0 <Dummy_Handler>
	...

000002d4 <Reset_Handler>:
     2d4:	b508      	push	{r3, lr}
     2d6:	4a14      	ldr	r2, [pc, #80]	; (328 <Reset_Handler+0x54>)
     2d8:	4b14      	ldr	r3, [pc, #80]	; (32c <Reset_Handler+0x58>)
     2da:	429a      	cmp	r2, r3
     2dc:	d118      	bne.n	310 <Reset_Handler+0x3c>
     2de:	4b14      	ldr	r3, [pc, #80]	; (330 <Reset_Handler+0x5c>)
     2e0:	4a14      	ldr	r2, [pc, #80]	; (334 <Reset_Handler+0x60>)
     2e2:	2100      	movs	r1, #0
     2e4:	4293      	cmp	r3, r2
     2e6:	d31c      	bcc.n	322 <Reset_Handler+0x4e>
     2e8:	4a13      	ldr	r2, [pc, #76]	; (338 <Reset_Handler+0x64>)
     2ea:	4b14      	ldr	r3, [pc, #80]	; (33c <Reset_Handler+0x68>)
     2ec:	f022 027f 	bic.w	r2, r2, #127	; 0x7f
     2f0:	609a      	str	r2, [r3, #8]
     2f2:	f8d3 2088 	ldr.w	r2, [r3, #136]	; 0x88
     2f6:	f442 0270 	orr.w	r2, r2, #15728640	; 0xf00000
     2fa:	f8c3 2088 	str.w	r2, [r3, #136]	; 0x88
     2fe:	f3bf 8f4f 	dsb	sy
     302:	f3bf 8f6f 	isb	sy
     306:	4b0e      	ldr	r3, [pc, #56]	; (340 <Reset_Handler+0x6c>)
     308:	4798      	blx	r3
     30a:	4b0e      	ldr	r3, [pc, #56]	; (344 <Reset_Handler+0x70>)
     30c:	4798      	blx	r3
     30e:	e7fe      	b.n	30e <Reset_Handler+0x3a>
     310:	490d      	ldr	r1, [pc, #52]	; (348 <Reset_Handler+0x74>)
     312:	3a04      	subs	r2, #4
     314:	428b      	cmp	r3, r1
     316:	d2e2      	bcs.n	2de <Reset_Handler+0xa>
     318:	f852 0f04 	ldr.w	r0, [r2, #4]!
     31c:	f843 0b04 	str.w	r0, [r3], #4
     320:	e7f8      	b.n	314 <Reset_Handler+0x40>
     322:	f843 1b04 	str.w	r1, [r3], #4
     326:	e7dd      	b.n	2e4 <Reset_Handler+0x10>
     328:	00005fd0 	.word	0x00005fd0
     32c:	20000000 	.word	0x20000000
     330:	2000009c 	.word	0x2000009c
     334:	20003170 	.word	0x20003170
     338:	00000000 	.word	0x00000000
     33c:	e000ed00 	.word	0xe000ed00
     340:	00002ea9 	.word	0x00002ea9
     344:	00002aed 	.word	0x00002aed
     348:	2000009c 	.word	0x2000009c

0000034c <USART_0_example>:
     34c:	b513      	push	{r0, r1, r4, lr}
     34e:	4c07      	ldr	r4, [pc, #28]	; (36c <USART_0_example+0x20>)
     350:	4b07      	ldr	r3, [pc, #28]	; (370 <USART_0_example+0x24>)
     352:	a901      	add	r1, sp, #4
     354:	4620      	mov	r0, r4
     356:	4798      	blx	r3
     358:	4620      	mov	r0, r4
     35a:	4b06      	ldr	r3, [pc, #24]	; (374 <USART_0_example+0x28>)
     35c:	4798      	blx	r3
     35e:	220c      	movs	r2, #12
     360:	4905      	ldr	r1, [pc, #20]	; (378 <USART_0_example+0x2c>)
     362:	9801      	ldr	r0, [sp, #4]
     364:	4b05      	ldr	r3, [pc, #20]	; (37c <USART_0_example+0x30>)
     366:	4798      	blx	r3
     368:	b002      	add	sp, #8
     36a:	bd10      	pop	{r4, pc}
     36c:	2000314c 	.word	0x2000314c
     370:	0000063d 	.word	0x0000063d
     374:	0000062d 	.word	0x0000062d
     378:	00003fc8 	.word	0x00003fc8
     37c:	00000571 	.word	0x00000571

00000380 <atomic_enter_critical>:
     380:	f3ef 8310 	mrs	r3, PRIMASK
     384:	6003      	str	r3, [r0, #0]
     386:	b672      	cpsid	i
     388:	f3bf 8f5f 	dmb	sy
     38c:	4770      	bx	lr

0000038e <atomic_leave_critical>:
     38e:	f3bf 8f5f 	dmb	sy
     392:	6803      	ldr	r3, [r0, #0]
     394:	f383 8810 	msr	PRIMASK, r3
     398:	4770      	bx	lr
	...

0000039c <cache_init>:
     39c:	4b00      	ldr	r3, [pc, #0]	; (3a0 <cache_init+0x4>)
     39e:	4718      	bx	r3
     3a0:	00000905 	.word	0x00000905

000003a4 <delay_init>:
     3a4:	4b01      	ldr	r3, [pc, #4]	; (3ac <delay_init+0x8>)
     3a6:	6018      	str	r0, [r3, #0]
     3a8:	4b01      	ldr	r3, [pc, #4]	; (3b0 <delay_init+0xc>)
     3aa:	4718      	bx	r3
     3ac:	200000b8 	.word	0x200000b8
     3b0:	00001009 	.word	0x00001009

000003b4 <delay_ms>:
     3b4:	4b05      	ldr	r3, [pc, #20]	; (3cc <delay_ms+0x18>)
     3b6:	b510      	push	{r4, lr}
     3b8:	681c      	ldr	r4, [r3, #0]
     3ba:	4b05      	ldr	r3, [pc, #20]	; (3d0 <delay_ms+0x1c>)
     3bc:	4798      	blx	r3
     3be:	4b05      	ldr	r3, [pc, #20]	; (3d4 <delay_ms+0x20>)
     3c0:	4601      	mov	r1, r0
     3c2:	4620      	mov	r0, r4
     3c4:	e8bd 4010 	ldmia.w	sp!, {r4, lr}
     3c8:	4718      	bx	r3
     3ca:	bf00      	nop
     3cc:	200000b8 	.word	0x200000b8
     3d0:	00000941 	.word	0x00000941
     3d4:	0000101d 	.word	0x0000101d

000003d8 <process_ext_irq>:
     3d8:	4b0a      	ldr	r3, [pc, #40]	; (404 <process_ext_irq+0x2c>)
     3da:	b430      	push	{r4, r5}
     3dc:	685d      	ldr	r5, [r3, #4]
     3de:	2101      	movs	r1, #1
     3e0:	2200      	movs	r2, #0
     3e2:	188c      	adds	r4, r1, r2
     3e4:	0864      	lsrs	r4, r4, #1
     3e6:	d001      	beq.n	3ec <process_ext_irq+0x14>
     3e8:	bc30      	pop	{r4, r5}
     3ea:	4770      	bx	lr
     3ec:	4285      	cmp	r5, r0
     3ee:	d104      	bne.n	3fa <process_ext_irq+0x22>
     3f0:	681b      	ldr	r3, [r3, #0]
     3f2:	2b00      	cmp	r3, #0
     3f4:	d0f8      	beq.n	3e8 <process_ext_irq+0x10>
     3f6:	bc30      	pop	{r4, r5}
     3f8:	4718      	bx	r3
     3fa:	bf2c      	ite	cs
     3fc:	21ff      	movcs	r1, #255	; 0xff
     3fe:	2201      	movcc	r2, #1
     400:	e7ef      	b.n	3e2 <process_ext_irq+0xa>
     402:	bf00      	nop
     404:	200000bc 	.word	0x200000bc

00000408 <ext_irq_init>:
     408:	4b04      	ldr	r3, [pc, #16]	; (41c <ext_irq_init+0x14>)
     40a:	4805      	ldr	r0, [pc, #20]	; (420 <ext_irq_init+0x18>)
     40c:	2100      	movs	r1, #0
     40e:	f04f 32ff 	mov.w	r2, #4294967295
     412:	e883 0006 	stmia.w	r3, {r1, r2}
     416:	4b03      	ldr	r3, [pc, #12]	; (424 <ext_irq_init+0x1c>)
     418:	4718      	bx	r3
     41a:	bf00      	nop
     41c:	200000bc 	.word	0x200000bc
     420:	000003d9 	.word	0x000003d9
     424:	000009ad 	.word	0x000009ad

00000428 <flash_ready>:
     428:	6943      	ldr	r3, [r0, #20]
     42a:	b103      	cbz	r3, 42e <flash_ready+0x6>
     42c:	4718      	bx	r3
     42e:	4770      	bx	lr

00000430 <flash_error>:
     430:	6983      	ldr	r3, [r0, #24]
     432:	b103      	cbz	r3, 436 <flash_error+0x6>
     434:	4718      	bx	r3
     436:	4770      	bx	lr

00000438 <flash_init>:
     438:	b510      	push	{r4, lr}
     43a:	4b04      	ldr	r3, [pc, #16]	; (44c <flash_init+0x14>)
     43c:	4604      	mov	r4, r0
     43e:	4798      	blx	r3
     440:	b918      	cbnz	r0, 44a <flash_init+0x12>
     442:	4b03      	ldr	r3, [pc, #12]	; (450 <flash_init+0x18>)
     444:	6023      	str	r3, [r4, #0]
     446:	4b03      	ldr	r3, [pc, #12]	; (454 <flash_init+0x1c>)
     448:	6063      	str	r3, [r4, #4]
     44a:	bd10      	pop	{r4, pc}
     44c:	00000ab1 	.word	0x00000ab1
     450:	00000429 	.word	0x00000429
     454:	00000431 	.word	0x00000431

00000458 <flash_read>:
     458:	e92d 41f0 	stmdb	sp!, {r4, r5, r6, r7, r8, lr}
     45c:	461f      	mov	r7, r3
     45e:	4b0e      	ldr	r3, [pc, #56]	; (498 <flash_read+0x40>)
     460:	460d      	mov	r5, r1
     462:	4606      	mov	r6, r0
     464:	4690      	mov	r8, r2
     466:	4798      	blx	r3
     468:	4b0c      	ldr	r3, [pc, #48]	; (49c <flash_read+0x44>)
     46a:	4604      	mov	r4, r0
     46c:	4630      	mov	r0, r6
     46e:	4798      	blx	r3
     470:	4360      	muls	r0, r4
     472:	42a8      	cmp	r0, r5
     474:	d30b      	bcc.n	48e <flash_read+0x36>
     476:	19eb      	adds	r3, r5, r7
     478:	4298      	cmp	r0, r3
     47a:	d308      	bcc.n	48e <flash_read+0x36>
     47c:	4630      	mov	r0, r6
     47e:	463b      	mov	r3, r7
     480:	4642      	mov	r2, r8
     482:	4629      	mov	r1, r5
     484:	4c06      	ldr	r4, [pc, #24]	; (4a0 <flash_read+0x48>)
     486:	47a0      	blx	r4
     488:	2000      	movs	r0, #0
     48a:	e8bd 81f0 	ldmia.w	sp!, {r4, r5, r6, r7, r8, pc}
     48e:	f06f 000d 	mvn.w	r0, #13
     492:	e8bd 81f0 	ldmia.w	sp!, {r4, r5, r6, r7, r8, pc}
     496:	bf00      	nop
     498:	00000afd 	.word	0x00000afd
     49c:	00000b03 	.word	0x00000b03
     4a0:	00000b0b 	.word	0x00000b0b

000004a4 <flash_append>:
     4a4:	e92d 41f0 	stmdb	sp!, {r4, r5, r6, r7, r8, lr}
     4a8:	461f      	mov	r7, r3
     4aa:	4b13      	ldr	r3, [pc, #76]	; (4f8 <flash_append+0x54>)
     4ac:	460d      	mov	r5, r1
     4ae:	4606      	mov	r6, r0
     4b0:	4690      	mov	r8, r2
     4b2:	4798      	blx	r3
     4b4:	4b11      	ldr	r3, [pc, #68]	; (4fc <flash_append+0x58>)
     4b6:	4604      	mov	r4, r0
     4b8:	4630      	mov	r0, r6
     4ba:	4798      	blx	r3
     4bc:	4360      	muls	r0, r4
     4be:	42a8      	cmp	r0, r5
     4c0:	d311      	bcc.n	4e6 <flash_append+0x42>
     4c2:	19eb      	adds	r3, r5, r7
     4c4:	4298      	cmp	r0, r3
     4c6:	d30e      	bcc.n	4e6 <flash_append+0x42>
     4c8:	4629      	mov	r1, r5
     4ca:	4630      	mov	r0, r6
     4cc:	4b0c      	ldr	r3, [pc, #48]	; (500 <flash_append+0x5c>)
     4ce:	4798      	blx	r3
     4d0:	4604      	mov	r4, r0
     4d2:	b960      	cbnz	r0, 4ee <flash_append+0x4a>
     4d4:	4629      	mov	r1, r5
     4d6:	4630      	mov	r0, r6
     4d8:	463b      	mov	r3, r7
     4da:	4642      	mov	r2, r8
     4dc:	4d09      	ldr	r5, [pc, #36]	; (504 <flash_append+0x60>)
     4de:	47a8      	blx	r5
     4e0:	4620      	mov	r0, r4
     4e2:	e8bd 81f0 	ldmia.w	sp!, {r4, r5, r6, r7, r8, pc}
     4e6:	f06f 000d 	mvn.w	r0, #13
     4ea:	e8bd 81f0 	ldmia.w	sp!, {r4, r5, r6, r7, r8, pc}
     4ee:	f06f 0010 	mvn.w	r0, #16
     4f2:	e8bd 81f0 	ldmia.w	sp!, {r4, r5, r6, r7, r8, pc}
     4f6:	bf00      	nop
     4f8:	00000afd 	.word	0x00000afd
     4fc:	00000b03 	.word	0x00000b03
     500:	00000d09 	.word	0x00000d09
     504:	00000bf9 	.word	0x00000bf9

00000508 <flash_erase>:
     508:	e92d 43f8 	stmdb	sp!, {r3, r4, r5, r6, r7, r8, r9, lr}
     50c:	4c13      	ldr	r4, [pc, #76]	; (55c <flash_erase+0x54>)
     50e:	460e      	mov	r6, r1
     510:	4680      	mov	r8, r0
     512:	4617      	mov	r7, r2
     514:	47a0      	blx	r4
     516:	4b12      	ldr	r3, [pc, #72]	; (560 <flash_erase+0x58>)
     518:	4605      	mov	r5, r0
     51a:	4640      	mov	r0, r8
     51c:	4798      	blx	r3
     51e:	4681      	mov	r9, r0
     520:	4640      	mov	r0, r8
     522:	47a0      	blx	r4
     524:	3801      	subs	r0, #1
     526:	ea10 0406 	ands.w	r4, r0, r6
     52a:	d010      	beq.n	54e <flash_erase+0x46>
     52c:	f06f 000d 	mvn.w	r0, #13
     530:	e8bd 83f8 	ldmia.w	sp!, {r3, r4, r5, r6, r7, r8, r9, pc}
     534:	fbb6 f5f5 	udiv	r5, r6, r5
     538:	443d      	add	r5, r7
     53a:	45a9      	cmp	r9, r5
     53c:	d309      	bcc.n	552 <flash_erase+0x4a>
     53e:	4640      	mov	r0, r8
     540:	463a      	mov	r2, r7
     542:	4631      	mov	r1, r6
     544:	4b07      	ldr	r3, [pc, #28]	; (564 <flash_erase+0x5c>)
     546:	4798      	blx	r3
     548:	4620      	mov	r0, r4
     54a:	e8bd 83f8 	ldmia.w	sp!, {r3, r4, r5, r6, r7, r8, r9, pc}
     54e:	45b9      	cmp	r9, r7
     550:	d2f0      	bcs.n	534 <flash_erase+0x2c>
     552:	f06f 000c 	mvn.w	r0, #12
     556:	e8bd 83f8 	ldmia.w	sp!, {r3, r4, r5, r6, r7, r8, r9, pc}
     55a:	bf00      	nop
     55c:	00000afd 	.word	0x00000afd
     560:	00000b03 	.word	0x00000b03
     564:	00000c61 	.word	0x00000c61

00000568 <flash_get_page_size>:
     568:	4b00      	ldr	r3, [pc, #0]	; (56c <flash_get_page_size+0x4>)
     56a:	4718      	bx	r3
     56c:	00000afd 	.word	0x00000afd

00000570 <io_write>:
     570:	6803      	ldr	r3, [r0, #0]
     572:	4718      	bx	r3

00000574 <io_read>:
     574:	6843      	ldr	r3, [r0, #4]
     576:	4718      	bx	r3

00000578 <rand_sync_init>:
     578:	4b00      	ldr	r3, [pc, #0]	; (57c <rand_sync_init+0x4>)
     57a:	4718      	bx	r3
     57c:	00001055 	.word	0x00001055

00000580 <usart_sync_write>:
     580:	e92d 43f8 	stmdb	sp!, {r3, r4, r5, r6, r7, r8, r9, lr}
     584:	4c0f      	ldr	r4, [pc, #60]	; (5c4 <usart_sync_write+0x44>)
     586:	460f      	mov	r7, r1
     588:	4616      	mov	r6, r2
     58a:	f100 0508 	add.w	r5, r0, #8
     58e:	46a1      	mov	r9, r4
     590:	4628      	mov	r0, r5
     592:	47a0      	blx	r4
     594:	2800      	cmp	r0, #0
     596:	d0fb      	beq.n	590 <usart_sync_write+0x10>
     598:	f8df 8030 	ldr.w	r8, [pc, #48]	; 5cc <usart_sync_write+0x4c>
     59c:	2400      	movs	r4, #0
     59e:	5d39      	ldrb	r1, [r7, r4]
     5a0:	4628      	mov	r0, r5
     5a2:	47c0      	blx	r8
     5a4:	4628      	mov	r0, r5
     5a6:	47c8      	blx	r9
     5a8:	2800      	cmp	r0, #0
     5aa:	d0fb      	beq.n	5a4 <usart_sync_write+0x24>
     5ac:	3401      	adds	r4, #1
     5ae:	42b4      	cmp	r4, r6
     5b0:	d3f5      	bcc.n	59e <usart_sync_write+0x1e>
     5b2:	4e05      	ldr	r6, [pc, #20]	; (5c8 <usart_sync_write+0x48>)
     5b4:	4628      	mov	r0, r5
     5b6:	47b0      	blx	r6
     5b8:	2800      	cmp	r0, #0
     5ba:	d0fb      	beq.n	5b4 <usart_sync_write+0x34>
     5bc:	4620      	mov	r0, r4
     5be:	e8bd 83f8 	ldmia.w	sp!, {r3, r4, r5, r6, r7, r8, r9, pc}
     5c2:	bf00      	nop
     5c4:	00000feb 	.word	0x00000feb
     5c8:	00000ff5 	.word	0x00000ff5
     5cc:	00000fdd 	.word	0x00000fdd

000005d0 <usart_sync_read>:
     5d0:	e92d 43f8 	stmdb	sp!, {r3, r4, r5, r6, r7, r8, r9, lr}
     5d4:	f8df 9028 	ldr.w	r9, [pc, #40]	; 600 <usart_sync_read+0x30>
     5d8:	f8df 8028 	ldr.w	r8, [pc, #40]	; 604 <usart_sync_read+0x34>
     5dc:	460f      	mov	r7, r1
     5de:	4616      	mov	r6, r2
     5e0:	2400      	movs	r4, #0
     5e2:	f100 0508 	add.w	r5, r0, #8
     5e6:	4628      	mov	r0, r5
     5e8:	47c8      	blx	r9
     5ea:	2800      	cmp	r0, #0
     5ec:	d0fb      	beq.n	5e6 <usart_sync_read+0x16>
     5ee:	4628      	mov	r0, r5
     5f0:	47c0      	blx	r8
     5f2:	5538      	strb	r0, [r7, r4]
     5f4:	3401      	adds	r4, #1
     5f6:	42b4      	cmp	r4, r6
     5f8:	d3f5      	bcc.n	5e6 <usart_sync_read+0x16>
     5fa:	4620      	mov	r0, r4
     5fc:	e8bd 83f8 	ldmia.w	sp!, {r3, r4, r5, r6, r7, r8, r9, pc}
     600:	00000fff 	.word	0x00000fff
     604:	00000fe3 	.word	0x00000fe3

00000608 <usart_sync_init>:
     608:	b510      	push	{r4, lr}
     60a:	4b05      	ldr	r3, [pc, #20]	; (620 <usart_sync_init+0x18>)
     60c:	4604      	mov	r4, r0
     60e:	3008      	adds	r0, #8
     610:	4798      	blx	r3
     612:	b918      	cbnz	r0, 61c <usart_sync_init+0x14>
     614:	4b03      	ldr	r3, [pc, #12]	; (624 <usart_sync_init+0x1c>)
     616:	6063      	str	r3, [r4, #4]
     618:	4b03      	ldr	r3, [pc, #12]	; (628 <usart_sync_init+0x20>)
     61a:	6023      	str	r3, [r4, #0]
     61c:	bd10      	pop	{r4, pc}
     61e:	bf00      	nop
     620:	00000fbd 	.word	0x00000fbd
     624:	000005d1 	.word	0x000005d1
     628:	00000581 	.word	0x00000581

0000062c <usart_sync_enable>:
     62c:	b508      	push	{r3, lr}
     62e:	3008      	adds	r0, #8
     630:	4b01      	ldr	r3, [pc, #4]	; (638 <usart_sync_enable+0xc>)
     632:	4798      	blx	r3
     634:	2000      	movs	r0, #0
     636:	bd08      	pop	{r3, pc}
     638:	00000fc9 	.word	0x00000fc9

0000063c <usart_sync_get_io_descriptor>:
     63c:	6008      	str	r0, [r1, #0]
     63e:	2000      	movs	r0, #0
     640:	4770      	bx	lr
	...

00000644 <_usb_d_find_ep>:
     644:	490a      	ldr	r1, [pc, #40]	; (670 <_usb_d_find_ep+0x2c>)
     646:	b570      	push	{r4, r5, r6, lr}
     648:	2300      	movs	r3, #0
     64a:	f000 060f 	and.w	r6, r0, #15
     64e:	015d      	lsls	r5, r3, #5
     650:	194c      	adds	r4, r1, r5
     652:	b25a      	sxtb	r2, r3
     654:	7864      	ldrb	r4, [r4, #1]
     656:	4284      	cmp	r4, r0
     658:	d008      	beq.n	66c <_usb_d_find_ep+0x28>
     65a:	5c6d      	ldrb	r5, [r5, r1]
     65c:	b90d      	cbnz	r5, 662 <_usb_d_find_ep+0x1e>
     65e:	42a6      	cmp	r6, r4
     660:	d004      	beq.n	66c <_usb_d_find_ep+0x28>
     662:	3301      	adds	r3, #1
     664:	2b04      	cmp	r3, #4
     666:	d1f2      	bne.n	64e <_usb_d_find_ep+0xa>
     668:	f04f 32ff 	mov.w	r2, #4294967295
     66c:	4610      	mov	r0, r2
     66e:	bd70      	pop	{r4, r5, r6, pc}
     670:	200000c4 	.word	0x200000c4

00000674 <usb_d_dummy_cb_false>:
     674:	2000      	movs	r0, #0
     676:	4770      	bx	lr

00000678 <usb_d_cb_trans_more>:
     678:	b570      	push	{r4, r5, r6, lr}
     67a:	4b09      	ldr	r3, [pc, #36]	; (6a0 <usb_d_cb_trans_more+0x28>)
     67c:	4604      	mov	r4, r0
     67e:	460d      	mov	r5, r1
     680:	4798      	blx	r3
     682:	4b08      	ldr	r3, [pc, #32]	; (6a4 <usb_d_cb_trans_more+0x2c>)
     684:	eb03 1040 	add.w	r0, r3, r0, lsl #5
     688:	7883      	ldrb	r3, [r0, #2]
     68a:	2b03      	cmp	r3, #3
     68c:	d105      	bne.n	69a <usb_d_cb_trans_more+0x22>
     68e:	6983      	ldr	r3, [r0, #24]
     690:	4629      	mov	r1, r5
     692:	4620      	mov	r0, r4
     694:	e8bd 4070 	ldmia.w	sp!, {r4, r5, r6, lr}
     698:	4718      	bx	r3
     69a:	2000      	movs	r0, #0
     69c:	bd70      	pop	{r4, r5, r6, pc}
     69e:	bf00      	nop
     6a0:	00000645 	.word	0x00000645
     6a4:	200000c4 	.word	0x200000c4

000006a8 <_usb_d_cb_trans_done>:
     6a8:	e92d 43f0 	stmdb	sp!, {r4, r5, r6, r7, r8, r9, lr}
     6ac:	4b3c      	ldr	r3, [pc, #240]	; (7a0 <_usb_d_cb_trans_done+0xf8>)
     6ae:	4c3d      	ldr	r4, [pc, #244]	; (7a4 <_usb_d_cb_trans_done+0xfc>)
     6b0:	b085      	sub	sp, #20
     6b2:	4680      	mov	r8, r0
     6b4:	460f      	mov	r7, r1
     6b6:	4691      	mov	r9, r2
     6b8:	4798      	blx	r3
     6ba:	4603      	mov	r3, r0
     6bc:	0146      	lsls	r6, r0, #5
     6be:	2f00      	cmp	r7, #0
     6c0:	d149      	bne.n	756 <_usb_d_cb_trans_done+0xae>
     6c2:	19a5      	adds	r5, r4, r6
     6c4:	5da1      	ldrb	r1, [r4, r6]
     6c6:	70ef      	strb	r7, [r5, #3]
     6c8:	2900      	cmp	r1, #0
     6ca:	d13b      	bne.n	744 <_usb_d_cb_trans_done+0x9c>
     6cc:	78aa      	ldrb	r2, [r5, #2]
     6ce:	7868      	ldrb	r0, [r5, #1]
     6d0:	69ee      	ldr	r6, [r5, #28]
     6d2:	2a03      	cmp	r2, #3
     6d4:	f04f 0e0c 	mov.w	lr, #12
     6d8:	f04f 0220 	mov.w	r2, #32
     6dc:	d12b      	bne.n	736 <_usb_d_cb_trans_done+0x8e>
     6de:	fb12 e203 	smlabb	r2, r2, r3, lr
     6e2:	4422      	add	r2, r4
     6e4:	2101      	movs	r1, #1
     6e6:	f995 700c 	ldrsb.w	r7, [r5, #12]
     6ea:	47b0      	blx	r6
     6ec:	786b      	ldrb	r3, [r5, #1]
     6ee:	b178      	cbz	r0, 710 <_usb_d_cb_trans_done+0x68>
     6f0:	2205      	movs	r2, #5
     6f2:	2f00      	cmp	r7, #0
     6f4:	70aa      	strb	r2, [r5, #2]
     6f6:	f04f 0202 	mov.w	r2, #2
     6fa:	bfb4      	ite	lt
     6fc:	4618      	movlt	r0, r3
     6fe:	f043 0080 	orrge.w	r0, r3, #128	; 0x80
     702:	70ea      	strb	r2, [r5, #3]
     704:	2101      	movs	r1, #1
     706:	4b28      	ldr	r3, [pc, #160]	; (7a8 <_usb_d_cb_trans_done+0x100>)
     708:	4798      	blx	r3
     70a:	b005      	add	sp, #20
     70c:	e8bd 83f0 	ldmia.w	sp!, {r4, r5, r6, r7, r8, r9, pc}
     710:	2f00      	cmp	r7, #0
     712:	bfac      	ite	ge
     714:	f043 0380 	orrge.w	r3, r3, #128	; 0x80
     718:	f003 030f 	andlt.w	r3, r3, #15
     71c:	2204      	movs	r2, #4
     71e:	f88d 300c 	strb.w	r3, [sp, #12]
     722:	2301      	movs	r3, #1
     724:	9001      	str	r0, [sp, #4]
     726:	9002      	str	r0, [sp, #8]
     728:	f88d 300d 	strb.w	r3, [sp, #13]
     72c:	70aa      	strb	r2, [r5, #2]
     72e:	a801      	add	r0, sp, #4
     730:	4b1e      	ldr	r3, [pc, #120]	; (7ac <_usb_d_cb_trans_done+0x104>)
     732:	4798      	blx	r3
     734:	e7e9      	b.n	70a <_usb_d_cb_trans_done+0x62>
     736:	fb12 e203 	smlabb	r2, r2, r3, lr
     73a:	4422      	add	r2, r4
     73c:	47b0      	blx	r6
     73e:	2302      	movs	r3, #2
     740:	70ab      	strb	r3, [r5, #2]
     742:	e7e2      	b.n	70a <_usb_d_cb_trans_done+0x62>
     744:	2301      	movs	r3, #1
     746:	70ab      	strb	r3, [r5, #2]
     748:	4434      	add	r4, r6
     74a:	464a      	mov	r2, r9
     74c:	69e3      	ldr	r3, [r4, #28]
     74e:	78e1      	ldrb	r1, [r4, #3]
     750:	4640      	mov	r0, r8
     752:	4798      	blx	r3
     754:	e7d9      	b.n	70a <_usb_d_cb_trans_done+0x62>
     756:	2f01      	cmp	r7, #1
     758:	eb04 0306 	add.w	r3, r4, r6
     75c:	d10b      	bne.n	776 <_usb_d_cb_trans_done+0xce>
     75e:	5da1      	ldrb	r1, [r4, r6]
     760:	2202      	movs	r2, #2
     762:	70da      	strb	r2, [r3, #3]
     764:	b921      	cbnz	r1, 770 <_usb_d_cb_trans_done+0xc8>
     766:	709a      	strb	r2, [r3, #2]
     768:	4640      	mov	r0, r8
     76a:	4b0f      	ldr	r3, [pc, #60]	; (7a8 <_usb_d_cb_trans_done+0x100>)
     76c:	4798      	blx	r3
     76e:	e7eb      	b.n	748 <_usb_d_cb_trans_done+0xa0>
     770:	2205      	movs	r2, #5
     772:	709a      	strb	r2, [r3, #2]
     774:	e7e8      	b.n	748 <_usb_d_cb_trans_done+0xa0>
     776:	2f02      	cmp	r7, #2
     778:	d107      	bne.n	78a <_usb_d_cb_trans_done+0xe2>
     77a:	2204      	movs	r2, #4
     77c:	70da      	strb	r2, [r3, #3]
     77e:	5da2      	ldrb	r2, [r4, r6]
     780:	b90a      	cbnz	r2, 786 <_usb_d_cb_trans_done+0xde>
     782:	709f      	strb	r7, [r3, #2]
     784:	e7c1      	b.n	70a <_usb_d_cb_trans_done+0x62>
     786:	2201      	movs	r2, #1
     788:	e7f3      	b.n	772 <_usb_d_cb_trans_done+0xca>
     78a:	2f03      	cmp	r7, #3
     78c:	bf09      	itett	eq
     78e:	2200      	moveq	r2, #0
     790:	2206      	movne	r2, #6
     792:	709a      	strbeq	r2, [r3, #2]
     794:	2205      	moveq	r2, #5
     796:	bf18      	it	ne
     798:	709a      	strbne	r2, [r3, #2]
     79a:	70da      	strb	r2, [r3, #3]
     79c:	e7d4      	b.n	748 <_usb_d_cb_trans_done+0xa0>
     79e:	bf00      	nop
     7a0:	00000645 	.word	0x00000645
     7a4:	200000c4 	.word	0x200000c4
     7a8:	000018e9 	.word	0x000018e9
     7ac:	00001a21 	.word	0x00001a21

000007b0 <usb_d_cb_trans_setup>:
     7b0:	e92d 47f0 	stmdb	sp!, {r4, r5, r6, r7, r8, r9, sl, lr}
     7b4:	4b1d      	ldr	r3, [pc, #116]	; (82c <usb_d_cb_trans_setup+0x7c>)
     7b6:	4e1e      	ldr	r6, [pc, #120]	; (830 <usb_d_cb_trans_setup+0x80>)
     7b8:	4c1e      	ldr	r4, [pc, #120]	; (834 <usb_d_cb_trans_setup+0x84>)
     7ba:	4605      	mov	r5, r0
     7bc:	4798      	blx	r3
     7be:	2720      	movs	r7, #32
     7c0:	230c      	movs	r3, #12
     7c2:	fb17 3700 	smlabb	r7, r7, r0, r3
     7c6:	4437      	add	r7, r6
     7c8:	4681      	mov	r9, r0
     7ca:	4639      	mov	r1, r7
     7cc:	4628      	mov	r0, r5
     7ce:	4b1a      	ldr	r3, [pc, #104]	; (838 <usb_d_cb_trans_setup+0x88>)
     7d0:	4798      	blx	r3
     7d2:	b2c0      	uxtb	r0, r0
     7d4:	2808      	cmp	r0, #8
     7d6:	f065 087f 	orn	r8, r5, #127	; 0x7f
     7da:	d009      	beq.n	7f0 <usb_d_cb_trans_setup+0x40>
     7dc:	2101      	movs	r1, #1
     7de:	4628      	mov	r0, r5
     7e0:	47a0      	blx	r4
     7e2:	2101      	movs	r1, #1
     7e4:	fa5f f088 	uxtb.w	r0, r8
     7e8:	4623      	mov	r3, r4
     7ea:	e8bd 47f0 	ldmia.w	sp!, {r4, r5, r6, r7, r8, r9, sl, lr}
     7ee:	4718      	bx	r3
     7f0:	eb06 1649 	add.w	r6, r6, r9, lsl #5
     7f4:	2100      	movs	r1, #0
     7f6:	4628      	mov	r0, r5
     7f8:	fa5f f888 	uxtb.w	r8, r8
     7fc:	47a0      	blx	r4
     7fe:	f04f 0901 	mov.w	r9, #1
     802:	2100      	movs	r1, #0
     804:	4640      	mov	r0, r8
     806:	47a0      	blx	r4
     808:	f886 9002 	strb.w	r9, [r6, #2]
     80c:	6973      	ldr	r3, [r6, #20]
     80e:	4639      	mov	r1, r7
     810:	4628      	mov	r0, r5
     812:	4798      	blx	r3
     814:	b938      	cbnz	r0, 826 <usb_d_cb_trans_setup+0x76>
     816:	2305      	movs	r3, #5
     818:	4649      	mov	r1, r9
     81a:	70b3      	strb	r3, [r6, #2]
     81c:	4628      	mov	r0, r5
     81e:	47a0      	blx	r4
     820:	4649      	mov	r1, r9
     822:	4640      	mov	r0, r8
     824:	e7e0      	b.n	7e8 <usb_d_cb_trans_setup+0x38>
     826:	e8bd 87f0 	ldmia.w	sp!, {r4, r5, r6, r7, r8, r9, sl, pc}
     82a:	bf00      	nop
     82c:	00000645 	.word	0x00000645
     830:	200000c4 	.word	0x200000c4
     834:	000018e9 	.word	0x000018e9
     838:	000019cd 	.word	0x000019cd

0000083c <usb_d_init>:
     83c:	b510      	push	{r4, lr}
     83e:	4b10      	ldr	r3, [pc, #64]	; (880 <usb_d_init+0x44>)
     840:	4798      	blx	r3
     842:	2800      	cmp	r0, #0
     844:	db1b      	blt.n	87e <usb_d_init+0x42>
     846:	2280      	movs	r2, #128	; 0x80
     848:	2100      	movs	r1, #0
     84a:	4b0e      	ldr	r3, [pc, #56]	; (884 <usb_d_init+0x48>)
     84c:	480e      	ldr	r0, [pc, #56]	; (888 <usb_d_init+0x4c>)
     84e:	4798      	blx	r3
     850:	4b0d      	ldr	r3, [pc, #52]	; (888 <usb_d_init+0x4c>)
     852:	4a0e      	ldr	r2, [pc, #56]	; (88c <usb_d_init+0x50>)
     854:	f103 0180 	add.w	r1, r3, #128	; 0x80
     858:	20ff      	movs	r0, #255	; 0xff
     85a:	7058      	strb	r0, [r3, #1]
     85c:	615a      	str	r2, [r3, #20]
     85e:	619a      	str	r2, [r3, #24]
     860:	61da      	str	r2, [r3, #28]
     862:	3320      	adds	r3, #32
     864:	428b      	cmp	r3, r1
     866:	d1f8      	bne.n	85a <usb_d_init+0x1e>
     868:	4c09      	ldr	r4, [pc, #36]	; (890 <usb_d_init+0x54>)
     86a:	490a      	ldr	r1, [pc, #40]	; (894 <usb_d_init+0x58>)
     86c:	2000      	movs	r0, #0
     86e:	47a0      	blx	r4
     870:	4909      	ldr	r1, [pc, #36]	; (898 <usb_d_init+0x5c>)
     872:	2001      	movs	r0, #1
     874:	47a0      	blx	r4
     876:	2002      	movs	r0, #2
     878:	4908      	ldr	r1, [pc, #32]	; (89c <usb_d_init+0x60>)
     87a:	47a0      	blx	r4
     87c:	2000      	movs	r0, #0
     87e:	bd10      	pop	{r4, pc}
     880:	00001801 	.word	0x00001801
     884:	00002f25 	.word	0x00002f25
     888:	200000c4 	.word	0x200000c4
     88c:	00000675 	.word	0x00000675
     890:	00001b29 	.word	0x00001b29
     894:	000007b1 	.word	0x000007b1
     898:	00000679 	.word	0x00000679
     89c:	000006a9 	.word	0x000006a9

000008a0 <_sbrk>:
     8a0:	4b04      	ldr	r3, [pc, #16]	; (8b4 <_sbrk+0x14>)
     8a2:	6819      	ldr	r1, [r3, #0]
     8a4:	4602      	mov	r2, r0
     8a6:	b909      	cbnz	r1, 8ac <_sbrk+0xc>
     8a8:	4903      	ldr	r1, [pc, #12]	; (8b8 <_sbrk+0x18>)
     8aa:	6019      	str	r1, [r3, #0]
     8ac:	6818      	ldr	r0, [r3, #0]
     8ae:	4402      	add	r2, r0
     8b0:	601a      	str	r2, [r3, #0]
     8b2:	4770      	bx	lr
     8b4:	20000144 	.word	0x20000144
     8b8:	2000f170 	.word	0x2000f170

000008bc <_close>:
     8bc:	f04f 30ff 	mov.w	r0, #4294967295
     8c0:	4770      	bx	lr

000008c2 <_fstat>:
     8c2:	f44f 5300 	mov.w	r3, #8192	; 0x2000
     8c6:	604b      	str	r3, [r1, #4]
     8c8:	2000      	movs	r0, #0
     8ca:	4770      	bx	lr

000008cc <_isatty>:
     8cc:	2001      	movs	r0, #1
     8ce:	4770      	bx	lr

000008d0 <_lseek>:
     8d0:	2000      	movs	r0, #0
     8d2:	4770      	bx	lr

000008d4 <_cmcc_enable>:
     8d4:	68c3      	ldr	r3, [r0, #12]
     8d6:	07db      	lsls	r3, r3, #31
     8d8:	d409      	bmi.n	8ee <_cmcc_enable+0x1a>
     8da:	2301      	movs	r3, #1
     8dc:	6083      	str	r3, [r0, #8]
     8de:	68c3      	ldr	r3, [r0, #12]
     8e0:	f013 0f01 	tst.w	r3, #1
     8e4:	bf14      	ite	ne
     8e6:	2000      	movne	r0, #0
     8e8:	f06f 001d 	mvneq.w	r0, #29
     8ec:	4770      	bx	lr
     8ee:	f06f 0001 	mvn.w	r0, #1
     8f2:	4770      	bx	lr

000008f4 <_cmcc_disable>:
     8f4:	2300      	movs	r3, #0
     8f6:	6083      	str	r3, [r0, #8]
     8f8:	68c3      	ldr	r3, [r0, #12]
     8fa:	f013 0301 	ands.w	r3, r3, #1
     8fe:	d1fb      	bne.n	8f8 <_cmcc_disable+0x4>
     900:	4618      	mov	r0, r3
     902:	4770      	bx	lr

00000904 <_cmcc_init>:
     904:	4a0b      	ldr	r2, [pc, #44]	; (934 <_cmcc_init+0x30>)
     906:	b508      	push	{r3, lr}
     908:	4610      	mov	r0, r2
     90a:	4b0b      	ldr	r3, [pc, #44]	; (938 <_cmcc_init+0x34>)
     90c:	4798      	blx	r3
     90e:	68d3      	ldr	r3, [r2, #12]
     910:	07db      	lsls	r3, r3, #31
     912:	d40c      	bmi.n	92e <_cmcc_init+0x2a>
     914:	2324      	movs	r3, #36	; 0x24
     916:	6053      	str	r3, [r2, #4]
     918:	4610      	mov	r0, r2
     91a:	4b08      	ldr	r3, [pc, #32]	; (93c <_cmcc_init+0x38>)
     91c:	4798      	blx	r3
     91e:	68d3      	ldr	r3, [r2, #12]
     920:	f013 0f01 	tst.w	r3, #1
     924:	bf14      	ite	ne
     926:	2000      	movne	r0, #0
     928:	f06f 001d 	mvneq.w	r0, #29
     92c:	bd08      	pop	{r3, pc}
     92e:	f06f 0013 	mvn.w	r0, #19
     932:	bd08      	pop	{r3, pc}
     934:	41006000 	.word	0x41006000
     938:	000008f5 	.word	0x000008f5
     93c:	000008d5 	.word	0x000008d5

00000940 <_get_cycles_for_ms>:
     940:	4b01      	ldr	r3, [pc, #4]	; (948 <_get_cycles_for_ms+0x8>)
     942:	4358      	muls	r0, r3
     944:	4770      	bx	lr
     946:	bf00      	nop
     948:	0001d0d8 	.word	0x0001d0d8

0000094c <_init_chip>:
     94c:	b510      	push	{r4, lr}
     94e:	4a0c      	ldr	r2, [pc, #48]	; (980 <_init_chip+0x34>)
     950:	4c0c      	ldr	r4, [pc, #48]	; (984 <_init_chip+0x38>)
     952:	8813      	ldrh	r3, [r2, #0]
     954:	b29b      	uxth	r3, r3
     956:	f443 63a0 	orr.w	r3, r3, #1280	; 0x500
     95a:	8013      	strh	r3, [r2, #0]
     95c:	4b0a      	ldr	r3, [pc, #40]	; (988 <_init_chip+0x3c>)
     95e:	4798      	blx	r3
     960:	4b0a      	ldr	r3, [pc, #40]	; (98c <_init_chip+0x40>)
     962:	4798      	blx	r3
     964:	4b0a      	ldr	r3, [pc, #40]	; (990 <_init_chip+0x44>)
     966:	4798      	blx	r3
     968:	2008      	movs	r0, #8
     96a:	47a0      	blx	r4
     96c:	4b09      	ldr	r3, [pc, #36]	; (994 <_init_chip+0x48>)
     96e:	4798      	blx	r3
     970:	f640 70f7 	movw	r0, #4087	; 0xff7
     974:	47a0      	blx	r4
     976:	4b08      	ldr	r3, [pc, #32]	; (998 <_init_chip+0x4c>)
     978:	e8bd 4010 	ldmia.w	sp!, {r4, lr}
     97c:	4718      	bx	r3
     97e:	bf00      	nop
     980:	41004000 	.word	0x41004000
     984:	00000a19 	.word	0x00000a19
     988:	00000d55 	.word	0x00000d55
     98c:	00000d7d 	.word	0x00000d7d
     990:	00000a69 	.word	0x00000a69
     994:	00000d81 	.word	0x00000d81
     998:	0000039d 	.word	0x0000039d

0000099c <hri_eic_wait_for_sync.constprop.6>:
     99c:	4a02      	ldr	r2, [pc, #8]	; (9a8 <hri_eic_wait_for_sync.constprop.6+0xc>)
     99e:	6853      	ldr	r3, [r2, #4]
     9a0:	4203      	tst	r3, r0
     9a2:	d1fc      	bne.n	99e <hri_eic_wait_for_sync.constprop.6+0x2>
     9a4:	4770      	bx	lr
     9a6:	bf00      	nop
     9a8:	40002800 	.word	0x40002800

000009ac <_ext_irq_init>:
     9ac:	b538      	push	{r3, r4, r5, lr}
     9ae:	4918      	ldr	r1, [pc, #96]	; (a10 <_ext_irq_init+0x64>)
     9b0:	4d18      	ldr	r5, [pc, #96]	; (a14 <_ext_irq_init+0x68>)
     9b2:	684b      	ldr	r3, [r1, #4]
     9b4:	f013 0f01 	tst.w	r3, #1
     9b8:	d111      	bne.n	9de <_ext_irq_init+0x32>
     9ba:	2003      	movs	r0, #3
     9bc:	47a8      	blx	r5
     9be:	780b      	ldrb	r3, [r1, #0]
     9c0:	079b      	lsls	r3, r3, #30
     9c2:	d507      	bpl.n	9d4 <_ext_irq_init+0x28>
     9c4:	780b      	ldrb	r3, [r1, #0]
     9c6:	f003 03fd 	and.w	r3, r3, #253	; 0xfd
     9ca:	2003      	movs	r0, #3
     9cc:	700b      	strb	r3, [r1, #0]
     9ce:	47a8      	blx	r5
     9d0:	2002      	movs	r0, #2
     9d2:	47a8      	blx	r5
     9d4:	4b0e      	ldr	r3, [pc, #56]	; (a10 <_ext_irq_init+0x64>)
     9d6:	2201      	movs	r2, #1
     9d8:	701a      	strb	r2, [r3, #0]
     9da:	2003      	movs	r0, #3
     9dc:	47a8      	blx	r5
     9de:	2001      	movs	r0, #1
     9e0:	47a8      	blx	r5
     9e2:	490b      	ldr	r1, [pc, #44]	; (a10 <_ext_irq_init+0x64>)
     9e4:	780b      	ldrb	r3, [r1, #0]
     9e6:	f003 03ef 	and.w	r3, r3, #239	; 0xef
     9ea:	700b      	strb	r3, [r1, #0]
     9ec:	2003      	movs	r0, #3
     9ee:	47a8      	blx	r5
     9f0:	2400      	movs	r4, #0
     9f2:	704c      	strb	r4, [r1, #1]
     9f4:	608c      	str	r4, [r1, #8]
     9f6:	618c      	str	r4, [r1, #24]
     9f8:	630c      	str	r4, [r1, #48]	; 0x30
     9fa:	634c      	str	r4, [r1, #52]	; 0x34
     9fc:	61cc      	str	r4, [r1, #28]
     9fe:	620c      	str	r4, [r1, #32]
     a00:	780b      	ldrb	r3, [r1, #0]
     a02:	f043 0302 	orr.w	r3, r3, #2
     a06:	700b      	strb	r3, [r1, #0]
     a08:	2003      	movs	r0, #3
     a0a:	47a8      	blx	r5
     a0c:	4620      	mov	r0, r4
     a0e:	bd38      	pop	{r3, r4, r5, pc}
     a10:	40002800 	.word	0x40002800
     a14:	0000099d 	.word	0x0000099d

00000a18 <_gclk_init_generators_by_fref>:
     a18:	07c1      	lsls	r1, r0, #31
     a1a:	d414      	bmi.n	a46 <_gclk_init_generators_by_fref+0x2e>
     a1c:	0782      	lsls	r2, r0, #30
     a1e:	d507      	bpl.n	a30 <_gclk_init_generators_by_fref+0x18>
     a20:	4b0d      	ldr	r3, [pc, #52]	; (a58 <_gclk_init_generators_by_fref+0x40>)
     a22:	4a0e      	ldr	r2, [pc, #56]	; (a5c <_gclk_init_generators_by_fref+0x44>)
     a24:	625a      	str	r2, [r3, #36]	; 0x24
     a26:	f643 72fd 	movw	r2, #16381	; 0x3ffd
     a2a:	6859      	ldr	r1, [r3, #4]
     a2c:	4211      	tst	r1, r2
     a2e:	d1fc      	bne.n	a2a <_gclk_init_generators_by_fref+0x12>
     a30:	0703      	lsls	r3, r0, #28
     a32:	d507      	bpl.n	a44 <_gclk_init_generators_by_fref+0x2c>
     a34:	4b08      	ldr	r3, [pc, #32]	; (a58 <_gclk_init_generators_by_fref+0x40>)
     a36:	4a0a      	ldr	r2, [pc, #40]	; (a60 <_gclk_init_generators_by_fref+0x48>)
     a38:	62da      	str	r2, [r3, #44]	; 0x2c
     a3a:	f643 72fd 	movw	r2, #16381	; 0x3ffd
     a3e:	6859      	ldr	r1, [r3, #4]
     a40:	4211      	tst	r1, r2
     a42:	d1fc      	bne.n	a3e <_gclk_init_generators_by_fref+0x26>
     a44:	4770      	bx	lr
     a46:	4b04      	ldr	r3, [pc, #16]	; (a58 <_gclk_init_generators_by_fref+0x40>)
     a48:	4a06      	ldr	r2, [pc, #24]	; (a64 <_gclk_init_generators_by_fref+0x4c>)
     a4a:	621a      	str	r2, [r3, #32]
     a4c:	f643 72fd 	movw	r2, #16381	; 0x3ffd
     a50:	6859      	ldr	r1, [r3, #4]
     a52:	4211      	tst	r1, r2
     a54:	d1fc      	bne.n	a50 <_gclk_init_generators_by_fref+0x38>
     a56:	e7e1      	b.n	a1c <_gclk_init_generators_by_fref+0x4>
     a58:	40001c00 	.word	0x40001c00
     a5c:	00010106 	.word	0x00010106
     a60:	00010105 	.word	0x00010105
     a64:	00012107 	.word	0x00012107

00000a68 <_mclk_init>:
     a68:	4b01      	ldr	r3, [pc, #4]	; (a70 <_mclk_init+0x8>)
     a6a:	2201      	movs	r2, #1
     a6c:	715a      	strb	r2, [r3, #5]
     a6e:	4770      	bx	lr
     a70:	40000800 	.word	0x40000800

00000a74 <_flash_program>:
     a74:	b570      	push	{r4, r5, r6, lr}
     a76:	088e      	lsrs	r6, r1, #2
     a78:	8a44      	ldrh	r4, [r0, #18]
     a7a:	07e5      	lsls	r5, r4, #31
     a7c:	d5fc      	bpl.n	a78 <_flash_program+0x4>
     a7e:	f24a 5415 	movw	r4, #42261	; 0xa515
     a82:	8084      	strh	r4, [r0, #4]
     a84:	8a44      	ldrh	r4, [r0, #18]
     a86:	07e4      	lsls	r4, r4, #31
     a88:	d5fc      	bpl.n	a84 <_flash_program+0x10>
     a8a:	ebc2 0686 	rsb	r6, r2, r6, lsl #2
     a8e:	4614      	mov	r4, r2
     a90:	1aa5      	subs	r5, r4, r2
     a92:	b2ad      	uxth	r5, r5
     a94:	429d      	cmp	r5, r3
     a96:	d307      	bcc.n	aa8 <_flash_program+0x34>
     a98:	8a43      	ldrh	r3, [r0, #18]
     a9a:	07db      	lsls	r3, r3, #31
     a9c:	d5fc      	bpl.n	a98 <_flash_program+0x24>
     a9e:	f24a 5303 	movw	r3, #42243	; 0xa503
     aa2:	6141      	str	r1, [r0, #20]
     aa4:	8083      	strh	r3, [r0, #4]
     aa6:	bd70      	pop	{r4, r5, r6, pc}
     aa8:	6825      	ldr	r5, [r4, #0]
     aaa:	51a5      	str	r5, [r4, r6]
     aac:	3404      	adds	r4, #4
     aae:	e7ef      	b.n	a90 <_flash_program+0x1c>

00000ab0 <_flash_init>:
     ab0:	6101      	str	r1, [r0, #16]
     ab2:	880b      	ldrh	r3, [r1, #0]
     ab4:	f023 03c0 	bic.w	r3, r3, #192	; 0xc0
     ab8:	049b      	lsls	r3, r3, #18
     aba:	0c9b      	lsrs	r3, r3, #18
     abc:	800b      	strh	r3, [r1, #0]
     abe:	4b0d      	ldr	r3, [pc, #52]	; (af4 <_flash_init+0x44>)
     ac0:	6018      	str	r0, [r3, #0]
     ac2:	4b0d      	ldr	r3, [pc, #52]	; (af8 <_flash_init+0x48>)
     ac4:	f04f 5100 	mov.w	r1, #536870912	; 0x20000000
     ac8:	f8c3 1080 	str.w	r1, [r3, #128]	; 0x80
     acc:	f3bf 8f4f 	dsb	sy
     ad0:	f3bf 8f6f 	isb	sy
     ad4:	f04f 4280 	mov.w	r2, #1073741824	; 0x40000000
     ad8:	f8c3 2080 	str.w	r2, [r3, #128]	; 0x80
     adc:	f3bf 8f4f 	dsb	sy
     ae0:	f3bf 8f6f 	isb	sy
     ae4:	2000      	movs	r0, #0
     ae6:	f8c3 1180 	str.w	r1, [r3, #384]	; 0x180
     aea:	f8c3 2180 	str.w	r2, [r3, #384]	; 0x180
     aee:	6019      	str	r1, [r3, #0]
     af0:	601a      	str	r2, [r3, #0]
     af2:	4770      	bx	lr
     af4:	20000148 	.word	0x20000148
     af8:	e000e100 	.word	0xe000e100

00000afc <_flash_get_page_size>:
     afc:	f44f 7000 	mov.w	r0, #512	; 0x200
     b00:	4770      	bx	lr

00000b02 <_flash_get_total_pages>:
     b02:	6903      	ldr	r3, [r0, #16]
     b04:	6898      	ldr	r0, [r3, #8]
     b06:	b280      	uxth	r0, r0
     b08:	4770      	bx	lr

00000b0a <_flash_read>:
     b0a:	b510      	push	{r4, lr}
     b0c:	6904      	ldr	r4, [r0, #16]
     b0e:	8a60      	ldrh	r0, [r4, #18]
     b10:	07c0      	lsls	r0, r0, #31
     b12:	d5fc      	bpl.n	b0e <_flash_read+0x4>
     b14:	4413      	add	r3, r2
     b16:	4610      	mov	r0, r2
     b18:	4298      	cmp	r0, r3
     b1a:	d100      	bne.n	b1e <_flash_read+0x14>
     b1c:	bd10      	pop	{r4, pc}
     b1e:	1a84      	subs	r4, r0, r2
     b20:	5c64      	ldrb	r4, [r4, r1]
     b22:	f800 4b01 	strb.w	r4, [r0], #1
     b26:	e7f7      	b.n	b18 <_flash_read+0xe>

00000b28 <_flash_write>:
     b28:	e92d 4ff0 	stmdb	sp!, {r4, r5, r6, r7, r8, r9, sl, fp, lr}
     b2c:	f5ad 5d00 	sub.w	sp, sp, #8192	; 0x2000
     b30:	b083      	sub	sp, #12
     b32:	4681      	mov	r9, r0
     b34:	4692      	mov	sl, r2
     b36:	4698      	mov	r8, r3
     b38:	460e      	mov	r6, r1
     b3a:	f426 54ff 	bic.w	r4, r6, #8160	; 0x1fe0
     b3e:	f024 041f 	bic.w	r4, r4, #31
     b42:	f504 53ff 	add.w	r3, r4, #8160	; 0x1fe0
     b46:	331f      	adds	r3, #31
     b48:	9301      	str	r3, [sp, #4]
     b4a:	f504 5b00 	add.w	fp, r4, #8192	; 0x2000
     b4e:	4625      	mov	r5, r4
     b50:	1b2a      	subs	r2, r5, r4
     b52:	a902      	add	r1, sp, #8
     b54:	440a      	add	r2, r1
     b56:	f44f 7300 	mov.w	r3, #512	; 0x200
     b5a:	4629      	mov	r1, r5
     b5c:	4648      	mov	r0, r9
     b5e:	4f24      	ldr	r7, [pc, #144]	; (bf0 <_flash_write+0xc8>)
     b60:	f505 7500 	add.w	r5, r5, #512	; 0x200
     b64:	47b8      	blx	r7
     b66:	455d      	cmp	r5, fp
     b68:	d1f2      	bne.n	b50 <_flash_write+0x28>
     b6a:	1b33      	subs	r3, r6, r4
     b6c:	4652      	mov	r2, sl
     b6e:	0a59      	lsrs	r1, r3, #9
     b70:	1ab6      	subs	r6, r6, r2
     b72:	f3c3 0308 	ubfx	r3, r3, #0, #9
     b76:	9801      	ldr	r0, [sp, #4]
     b78:	eb06 0b02 	add.w	fp, r6, r2
     b7c:	4558      	cmp	r0, fp
     b7e:	4692      	mov	sl, r2
     b80:	d302      	bcc.n	b88 <_flash_write+0x60>
     b82:	f1b8 0f00 	cmp.w	r8, #0
     b86:	d123      	bne.n	bd0 <_flash_write+0xa8>
     b88:	f8d9 3010 	ldr.w	r3, [r9, #16]
     b8c:	8a5a      	ldrh	r2, [r3, #18]
     b8e:	07d2      	lsls	r2, r2, #31
     b90:	d5fc      	bpl.n	b8c <_flash_write+0x64>
     b92:	f24a 5201 	movw	r2, #42241	; 0xa501
     b96:	615c      	str	r4, [r3, #20]
     b98:	4626      	mov	r6, r4
     b9a:	809a      	strh	r2, [r3, #4]
     b9c:	1b32      	subs	r2, r6, r4
     b9e:	a902      	add	r1, sp, #8
     ba0:	440a      	add	r2, r1
     ba2:	f44f 7300 	mov.w	r3, #512	; 0x200
     ba6:	4631      	mov	r1, r6
     ba8:	f8d9 0010 	ldr.w	r0, [r9, #16]
     bac:	4f11      	ldr	r7, [pc, #68]	; (bf4 <_flash_write+0xcc>)
     bae:	f506 7600 	add.w	r6, r6, #512	; 0x200
     bb2:	47b8      	blx	r7
     bb4:	42ae      	cmp	r6, r5
     bb6:	d1f1      	bne.n	b9c <_flash_write+0x74>
     bb8:	eb08 030b 	add.w	r3, r8, fp
     bbc:	9a01      	ldr	r2, [sp, #4]
     bbe:	3b01      	subs	r3, #1
     bc0:	429a      	cmp	r2, r3
     bc2:	465e      	mov	r6, fp
     bc4:	d3b9      	bcc.n	b3a <_flash_write+0x12>
     bc6:	f50d 5d00 	add.w	sp, sp, #8192	; 0x2000
     bca:	b003      	add	sp, #12
     bcc:	e8bd 8ff0 	ldmia.w	sp!, {r4, r5, r6, r7, r8, r9, sl, fp, pc}
     bd0:	a802      	add	r0, sp, #8
     bd2:	eb00 2041 	add.w	r0, r0, r1, lsl #9
     bd6:	f89a e000 	ldrb.w	lr, [sl]
     bda:	f800 e003 	strb.w	lr, [r0, r3]
     bde:	3301      	adds	r3, #1
     be0:	f3c3 0308 	ubfx	r3, r3, #0, #9
     be4:	3201      	adds	r2, #1
     be6:	b903      	cbnz	r3, bea <_flash_write+0xc2>
     be8:	3101      	adds	r1, #1
     bea:	f108 38ff 	add.w	r8, r8, #4294967295
     bee:	e7c2      	b.n	b76 <_flash_write+0x4e>
     bf0:	00000b0b 	.word	0x00000b0b
     bf4:	00000a75 	.word	0x00000a75

00000bf8 <_flash_append>:
     bf8:	e92d 47f0 	stmdb	sp!, {r4, r5, r6, r7, r8, r9, sl, lr}
     bfc:	f421 75ff 	bic.w	r5, r1, #510	; 0x1fe
     c00:	f025 0501 	bic.w	r5, r5, #1
     c04:	42a9      	cmp	r1, r5
     c06:	4607      	mov	r7, r0
     c08:	4690      	mov	r8, r2
     c0a:	461e      	mov	r6, r3
     c0c:	d012      	beq.n	c34 <_flash_append+0x3c>
     c0e:	1a6c      	subs	r4, r5, r1
     c10:	f504 7400 	add.w	r4, r4, #512	; 0x200
     c14:	429c      	cmp	r4, r3
     c16:	bf28      	it	cs
     c18:	461c      	movcs	r4, r3
     c1a:	b2a3      	uxth	r3, r4
     c1c:	6900      	ldr	r0, [r0, #16]
     c1e:	f8df 903c 	ldr.w	r9, [pc, #60]	; c5c <_flash_append+0x64>
     c22:	47c8      	blx	r9
     c24:	f505 7500 	add.w	r5, r5, #512	; 0x200
     c28:	f8df a030 	ldr.w	sl, [pc, #48]	; c5c <_flash_append+0x64>
     c2c:	42b4      	cmp	r4, r6
     c2e:	d303      	bcc.n	c38 <_flash_append+0x40>
     c30:	e8bd 87f0 	ldmia.w	sp!, {r4, r5, r6, r7, r8, r9, sl, pc}
     c34:	2400      	movs	r4, #0
     c36:	e7f7      	b.n	c28 <_flash_append+0x30>
     c38:	eba6 0904 	sub.w	r9, r6, r4
     c3c:	f5b9 7f00 	cmp.w	r9, #512	; 0x200
     c40:	bf28      	it	cs
     c42:	f44f 7900 	movcs.w	r9, #512	; 0x200
     c46:	eb08 0204 	add.w	r2, r8, r4
     c4a:	4629      	mov	r1, r5
     c4c:	fa1f f389 	uxth.w	r3, r9
     c50:	6938      	ldr	r0, [r7, #16]
     c52:	47d0      	blx	sl
     c54:	f505 7500 	add.w	r5, r5, #512	; 0x200
     c58:	444c      	add	r4, r9
     c5a:	e7e7      	b.n	c2c <_flash_append+0x34>
     c5c:	00000a75 	.word	0x00000a75

00000c60 <_flash_erase>:
     c60:	e92d 43f0 	stmdb	sp!, {r4, r5, r6, r7, r8, r9, lr}
     c64:	f421 54ff 	bic.w	r4, r1, #8160	; 0x1fe0
     c68:	f5ad 7d01 	sub.w	sp, sp, #516	; 0x204
     c6c:	460e      	mov	r6, r1
     c6e:	4607      	mov	r7, r0
     c70:	4615      	mov	r5, r2
     c72:	f024 041f 	bic.w	r4, r4, #31
     c76:	f44f 7200 	mov.w	r2, #512	; 0x200
     c7a:	21ff      	movs	r1, #255	; 0xff
     c7c:	4668      	mov	r0, sp
     c7e:	4b20      	ldr	r3, [pc, #128]	; (d00 <_flash_erase+0xa0>)
     c80:	4798      	blx	r3
     c82:	42a6      	cmp	r6, r4
     c84:	d11d      	bne.n	cc2 <_flash_erase+0x62>
     c86:	4622      	mov	r2, r4
     c88:	462b      	mov	r3, r5
     c8a:	f24a 5001 	movw	r0, #42241	; 0xa501
     c8e:	2b0f      	cmp	r3, #15
     c90:	d82c      	bhi.n	cec <_flash_erase+0x8c>
     c92:	092b      	lsrs	r3, r5, #4
     c94:	ebb5 1503 	subs.w	r5, r5, r3, lsl #4
     c98:	eb04 3443 	add.w	r4, r4, r3, lsl #13
     c9c:	d00d      	beq.n	cba <_flash_erase+0x5a>
     c9e:	f8df 8064 	ldr.w	r8, [pc, #100]	; d04 <_flash_erase+0xa4>
     ca2:	2600      	movs	r6, #0
     ca4:	4621      	mov	r1, r4
     ca6:	f44f 7300 	mov.w	r3, #512	; 0x200
     caa:	466a      	mov	r2, sp
     cac:	4638      	mov	r0, r7
     cae:	3601      	adds	r6, #1
     cb0:	47c0      	blx	r8
     cb2:	42b5      	cmp	r5, r6
     cb4:	f504 7400 	add.w	r4, r4, #512	; 0x200
     cb8:	d1f4      	bne.n	ca4 <_flash_erase+0x44>
     cba:	f50d 7d01 	add.w	sp, sp, #516	; 0x204
     cbe:	e8bd 83f0 	ldmia.w	sp!, {r4, r5, r6, r7, r8, r9, pc}
     cc2:	f8df 9040 	ldr.w	r9, [pc, #64]	; d04 <_flash_erase+0xa4>
     cc6:	f504 5400 	add.w	r4, r4, #8192	; 0x2000
     cca:	f506 58f0 	add.w	r8, r6, #7680	; 0x1e00
     cce:	f44f 7300 	mov.w	r3, #512	; 0x200
     cd2:	466a      	mov	r2, sp
     cd4:	4631      	mov	r1, r6
     cd6:	4638      	mov	r0, r7
     cd8:	47c8      	blx	r9
     cda:	3d01      	subs	r5, #1
     cdc:	d0ed      	beq.n	cba <_flash_erase+0x5a>
     cde:	f506 7600 	add.w	r6, r6, #512	; 0x200
     ce2:	42b4      	cmp	r4, r6
     ce4:	d0cf      	beq.n	c86 <_flash_erase+0x26>
     ce6:	4546      	cmp	r6, r8
     ce8:	d1f1      	bne.n	cce <_flash_erase+0x6e>
     cea:	e7cc      	b.n	c86 <_flash_erase+0x26>
     cec:	6939      	ldr	r1, [r7, #16]
     cee:	8a4e      	ldrh	r6, [r1, #18]
     cf0:	07f6      	lsls	r6, r6, #31
     cf2:	d5fc      	bpl.n	cee <_flash_erase+0x8e>
     cf4:	614a      	str	r2, [r1, #20]
     cf6:	3b10      	subs	r3, #16
     cf8:	8088      	strh	r0, [r1, #4]
     cfa:	f502 5200 	add.w	r2, r2, #8192	; 0x2000
     cfe:	e7c6      	b.n	c8e <_flash_erase+0x2e>
     d00:	00002f25 	.word	0x00002f25
     d04:	00000b29 	.word	0x00000b29

00000d08 <_flash_is_locked>:
     d08:	6903      	ldr	r3, [r0, #16]
     d0a:	f3c1 318f 	ubfx	r1, r1, #14, #16
     d0e:	699a      	ldr	r2, [r3, #24]
     d10:	2301      	movs	r3, #1
     d12:	fa03 f101 	lsl.w	r1, r3, r1
     d16:	4211      	tst	r1, r2
     d18:	bf0c      	ite	eq
     d1a:	4618      	moveq	r0, r3
     d1c:	2000      	movne	r0, #0
     d1e:	4770      	bx	lr

00000d20 <NVMCTRL_1_Handler>:
     d20:	4b09      	ldr	r3, [pc, #36]	; (d48 <NVMCTRL_1_Handler+0x28>)
     d22:	6818      	ldr	r0, [r3, #0]
     d24:	6903      	ldr	r3, [r0, #16]
     d26:	8a1a      	ldrh	r2, [r3, #16]
     d28:	07d2      	lsls	r2, r2, #31
     d2a:	d504      	bpl.n	d36 <NVMCTRL_1_Handler+0x16>
     d2c:	2201      	movs	r2, #1
     d2e:	821a      	strh	r2, [r3, #16]
     d30:	6803      	ldr	r3, [r0, #0]
     d32:	b143      	cbz	r3, d46 <NVMCTRL_1_Handler+0x26>
     d34:	4718      	bx	r3
     d36:	8a1a      	ldrh	r2, [r3, #16]
     d38:	b292      	uxth	r2, r2
     d3a:	b122      	cbz	r2, d46 <NVMCTRL_1_Handler+0x26>
     d3c:	f240 225e 	movw	r2, #606	; 0x25e
     d40:	821a      	strh	r2, [r3, #16]
     d42:	6843      	ldr	r3, [r0, #4]
     d44:	e7f5      	b.n	d32 <NVMCTRL_1_Handler+0x12>
     d46:	4770      	bx	lr
     d48:	20000148 	.word	0x20000148

00000d4c <NVMCTRL_0_Handler>:
     d4c:	4b00      	ldr	r3, [pc, #0]	; (d50 <NVMCTRL_0_Handler+0x4>)
     d4e:	4718      	bx	r3
     d50:	00000d21 	.word	0x00000d21

00000d54 <_osc32kctrl_init_sources>:
     d54:	4b08      	ldr	r3, [pc, #32]	; (d78 <_osc32kctrl_init_sources+0x24>)
     d56:	f244 320e 	movw	r2, #17166	; 0x430e
     d5a:	829a      	strh	r2, [r3, #20]
     d5c:	2201      	movs	r2, #1
     d5e:	759a      	strb	r2, [r3, #22]
     d60:	2200      	movs	r2, #0
     d62:	75da      	strb	r2, [r3, #23]
     d64:	69da      	ldr	r2, [r3, #28]
     d66:	f402 527c 	and.w	r2, r2, #16128	; 0x3f00
     d6a:	61da      	str	r2, [r3, #28]
     d6c:	68da      	ldr	r2, [r3, #12]
     d6e:	07d2      	lsls	r2, r2, #31
     d70:	d5fc      	bpl.n	d6c <_osc32kctrl_init_sources+0x18>
     d72:	2201      	movs	r2, #1
     d74:	741a      	strb	r2, [r3, #16]
     d76:	4770      	bx	lr
     d78:	40001400 	.word	0x40001400

00000d7c <_oscctrl_init_sources>:
     d7c:	4770      	bx	lr
	...

00000d80 <_oscctrl_init_referenced_generators>:
     d80:	4b3f      	ldr	r3, [pc, #252]	; (e80 <_oscctrl_init_referenced_generators+0x100>)
     d82:	6a1a      	ldr	r2, [r3, #32]
     d84:	f022 020f 	bic.w	r2, r2, #15
     d88:	f042 0204 	orr.w	r2, r2, #4
     d8c:	621a      	str	r2, [r3, #32]
     d8e:	f643 72fd 	movw	r2, #16381	; 0x3ffd
     d92:	6859      	ldr	r1, [r3, #4]
     d94:	4211      	tst	r1, r2
     d96:	d1fc      	bne.n	d92 <_oscctrl_init_referenced_generators+0x12>
     d98:	685a      	ldr	r2, [r3, #4]
     d9a:	f012 0204 	ands.w	r2, r2, #4
     d9e:	d1fb      	bne.n	d98 <_oscctrl_init_referenced_generators+0x18>
     da0:	4b38      	ldr	r3, [pc, #224]	; (e84 <_oscctrl_init_referenced_generators+0x104>)
     da2:	771a      	strb	r2, [r3, #28]
     da4:	4a38      	ldr	r2, [pc, #224]	; (e88 <_oscctrl_init_referenced_generators+0x108>)
     da6:	629a      	str	r2, [r3, #40]	; 0x28
     da8:	f893 202c 	ldrb.w	r2, [r3, #44]	; 0x2c
     dac:	f012 0210 	ands.w	r2, r2, #16
     db0:	d1fa      	bne.n	da8 <_oscctrl_init_referenced_generators+0x28>
     db2:	f883 2020 	strb.w	r2, [r3, #32]
     db6:	4a33      	ldr	r2, [pc, #204]	; (e84 <_oscctrl_init_referenced_generators+0x104>)
     db8:	4613      	mov	r3, r2
     dba:	f892 102c 	ldrb.w	r1, [r2, #44]	; 0x2c
     dbe:	0749      	lsls	r1, r1, #29
     dc0:	d4fb      	bmi.n	dba <_oscctrl_init_referenced_generators+0x3a>
     dc2:	2102      	movs	r1, #2
     dc4:	7711      	strb	r1, [r2, #28]
     dc6:	f893 202c 	ldrb.w	r2, [r3, #44]	; 0x2c
     dca:	0790      	lsls	r0, r2, #30
     dcc:	d4fb      	bmi.n	dc6 <_oscctrl_init_referenced_generators+0x46>
     dce:	6a5a      	ldr	r2, [r3, #36]	; 0x24
     dd0:	625a      	str	r2, [r3, #36]	; 0x24
     dd2:	4b2c      	ldr	r3, [pc, #176]	; (e84 <_oscctrl_init_referenced_generators+0x104>)
     dd4:	461a      	mov	r2, r3
     dd6:	f893 102c 	ldrb.w	r1, [r3, #44]	; 0x2c
     dda:	0709      	lsls	r1, r1, #28
     ddc:	d4fb      	bmi.n	dd6 <_oscctrl_init_referenced_generators+0x56>
     dde:	2180      	movs	r1, #128	; 0x80
     de0:	f883 1020 	strb.w	r1, [r3, #32]
     de4:	f892 302c 	ldrb.w	r3, [r2, #44]	; 0x2c
     de8:	0758      	lsls	r0, r3, #29
     dea:	d4fb      	bmi.n	de4 <_oscctrl_init_referenced_generators+0x64>
     dec:	4b27      	ldr	r3, [pc, #156]	; (e8c <_oscctrl_init_referenced_generators+0x10c>)
     dee:	6353      	str	r3, [r2, #52]	; 0x34
     df0:	4b24      	ldr	r3, [pc, #144]	; (e84 <_oscctrl_init_referenced_generators+0x104>)
     df2:	461a      	mov	r2, r3
     df4:	6bd9      	ldr	r1, [r3, #60]	; 0x3c
     df6:	f011 0f06 	tst.w	r1, #6
     dfa:	d1fb      	bne.n	df4 <_oscctrl_init_referenced_generators+0x74>
     dfc:	f44f 6102 	mov.w	r1, #2080	; 0x820
     e00:	6399      	str	r1, [r3, #56]	; 0x38
     e02:	2102      	movs	r1, #2
     e04:	f883 1030 	strb.w	r1, [r3, #48]	; 0x30
     e08:	6bd3      	ldr	r3, [r2, #60]	; 0x3c
     e0a:	0799      	lsls	r1, r3, #30
     e0c:	d4fc      	bmi.n	e08 <_oscctrl_init_referenced_generators+0x88>
     e0e:	f892 3020 	ldrb.w	r3, [r2, #32]
     e12:	4a1c      	ldr	r2, [pc, #112]	; (e84 <_oscctrl_init_referenced_generators+0x104>)
     e14:	f013 0f01 	tst.w	r3, #1
     e18:	d02d      	beq.n	e76 <_oscctrl_init_referenced_generators+0xf6>
     e1a:	6913      	ldr	r3, [r2, #16]
     e1c:	f403 6310 	and.w	r3, r3, #2304	; 0x900
     e20:	f5b3 6f10 	cmp.w	r3, #2304	; 0x900
     e24:	d1f9      	bne.n	e1a <_oscctrl_init_referenced_generators+0x9a>
     e26:	4b17      	ldr	r3, [pc, #92]	; (e84 <_oscctrl_init_referenced_generators+0x104>)
     e28:	461a      	mov	r2, r3
     e2a:	6c19      	ldr	r1, [r3, #64]	; 0x40
     e2c:	07c8      	lsls	r0, r1, #31
     e2e:	d402      	bmi.n	e36 <_oscctrl_init_referenced_generators+0xb6>
     e30:	6c19      	ldr	r1, [r3, #64]	; 0x40
     e32:	0789      	lsls	r1, r1, #30
     e34:	d5f9      	bpl.n	e2a <_oscctrl_init_referenced_generators+0xaa>
     e36:	f892 3030 	ldrb.w	r3, [r2, #48]	; 0x30
     e3a:	f043 0380 	orr.w	r3, r3, #128	; 0x80
     e3e:	f882 3030 	strb.w	r3, [r2, #48]	; 0x30
     e42:	4a10      	ldr	r2, [pc, #64]	; (e84 <_oscctrl_init_referenced_generators+0x104>)
     e44:	6bd3      	ldr	r3, [r2, #60]	; 0x3c
     e46:	f013 0f06 	tst.w	r3, #6
     e4a:	d1fb      	bne.n	e44 <_oscctrl_init_referenced_generators+0xc4>
     e4c:	4a0c      	ldr	r2, [pc, #48]	; (e80 <_oscctrl_init_referenced_generators+0x100>)
     e4e:	4611      	mov	r1, r2
     e50:	6853      	ldr	r3, [r2, #4]
     e52:	2b00      	cmp	r3, #0
     e54:	d1fc      	bne.n	e50 <_oscctrl_init_referenced_generators+0xd0>
     e56:	6a13      	ldr	r3, [r2, #32]
     e58:	f023 030f 	bic.w	r3, r3, #15
     e5c:	f043 0307 	orr.w	r3, r3, #7
     e60:	6213      	str	r3, [r2, #32]
     e62:	f643 73fd 	movw	r3, #16381	; 0x3ffd
     e66:	684a      	ldr	r2, [r1, #4]
     e68:	421a      	tst	r2, r3
     e6a:	d1fc      	bne.n	e66 <_oscctrl_init_referenced_generators+0xe6>
     e6c:	4a04      	ldr	r2, [pc, #16]	; (e80 <_oscctrl_init_referenced_generators+0x100>)
     e6e:	6853      	ldr	r3, [r2, #4]
     e70:	075b      	lsls	r3, r3, #29
     e72:	d4fc      	bmi.n	e6e <_oscctrl_init_referenced_generators+0xee>
     e74:	4770      	bx	lr
     e76:	6913      	ldr	r3, [r2, #16]
     e78:	05db      	lsls	r3, r3, #23
     e7a:	d5fc      	bpl.n	e76 <_oscctrl_init_referenced_generators+0xf6>
     e7c:	e7d3      	b.n	e26 <_oscctrl_init_referenced_generators+0xa6>
     e7e:	bf00      	nop
     e80:	40001c00 	.word	0x40001c00
     e84:	40001000 	.word	0x40001000
     e88:	04010000 	.word	0x04010000
     e8c:	00010e4d 	.word	0x00010e4d

00000e90 <RAMECC_Handler>:
     e90:	b507      	push	{r0, r1, r2, lr}
     e92:	4a0c      	ldr	r2, [pc, #48]	; (ec4 <RAMECC_Handler+0x34>)
     e94:	7893      	ldrb	r3, [r2, #2]
     e96:	b2db      	uxtb	r3, r3
     e98:	9301      	str	r3, [sp, #4]
     e9a:	9b01      	ldr	r3, [sp, #4]
     e9c:	0799      	lsls	r1, r3, #30
     e9e:	d507      	bpl.n	eb0 <RAMECC_Handler+0x20>
     ea0:	4b09      	ldr	r3, [pc, #36]	; (ec8 <RAMECC_Handler+0x38>)
     ea2:	681b      	ldr	r3, [r3, #0]
     ea4:	b123      	cbz	r3, eb0 <RAMECC_Handler+0x20>
     ea6:	6850      	ldr	r0, [r2, #4]
     ea8:	4798      	blx	r3
     eaa:	b003      	add	sp, #12
     eac:	f85d fb04 	ldr.w	pc, [sp], #4
     eb0:	9b01      	ldr	r3, [sp, #4]
     eb2:	07db      	lsls	r3, r3, #31
     eb4:	d5f9      	bpl.n	eaa <RAMECC_Handler+0x1a>
     eb6:	4b04      	ldr	r3, [pc, #16]	; (ec8 <RAMECC_Handler+0x38>)
     eb8:	685b      	ldr	r3, [r3, #4]
     eba:	2b00      	cmp	r3, #0
     ebc:	d0f5      	beq.n	eaa <RAMECC_Handler+0x1a>
     ebe:	4a01      	ldr	r2, [pc, #4]	; (ec4 <RAMECC_Handler+0x34>)
     ec0:	e7f1      	b.n	ea6 <RAMECC_Handler+0x16>
     ec2:	bf00      	nop
     ec4:	41020000 	.word	0x41020000
     ec8:	20000400 	.word	0x20000400

00000ecc <hri_sercomusart_wait_for_sync>:
     ecc:	69c3      	ldr	r3, [r0, #28]
     ece:	420b      	tst	r3, r1
     ed0:	d1fc      	bne.n	ecc <hri_sercomusart_wait_for_sync>
     ed2:	4770      	bx	lr

00000ed4 <hri_sercomusart_clear_CTRLA_ENABLE_bit>:
     ed4:	6803      	ldr	r3, [r0, #0]
     ed6:	f023 0302 	bic.w	r3, r3, #2
     eda:	6003      	str	r3, [r0, #0]
     edc:	2103      	movs	r1, #3
     ede:	4b01      	ldr	r3, [pc, #4]	; (ee4 <hri_sercomusart_clear_CTRLA_ENABLE_bit+0x10>)
     ee0:	4718      	bx	r3
     ee2:	bf00      	nop
     ee4:	00000ecd 	.word	0x00000ecd

00000ee8 <_sercom_get_hardware_index>:
     ee8:	b570      	push	{r4, r5, r6, lr}
     eea:	4d0b      	ldr	r5, [pc, #44]	; (f18 <_sercom_get_hardware_index+0x30>)
     eec:	4606      	mov	r6, r0
     eee:	cd0f      	ldmia	r5!, {r0, r1, r2, r3}
     ef0:	b088      	sub	sp, #32
     ef2:	466c      	mov	r4, sp
     ef4:	c40f      	stmia	r4!, {r0, r1, r2, r3}
     ef6:	e895 000f 	ldmia.w	r5, {r0, r1, r2, r3}
     efa:	e884 000f 	stmia.w	r4, {r0, r1, r2, r3}
     efe:	2000      	movs	r0, #0
     f00:	f85d 3020 	ldr.w	r3, [sp, r0, lsl #2]
     f04:	42b3      	cmp	r3, r6
     f06:	d102      	bne.n	f0e <_sercom_get_hardware_index+0x26>
     f08:	b2c0      	uxtb	r0, r0
     f0a:	b008      	add	sp, #32
     f0c:	bd70      	pop	{r4, r5, r6, pc}
     f0e:	3001      	adds	r0, #1
     f10:	2808      	cmp	r0, #8
     f12:	d1f5      	bne.n	f00 <_sercom_get_hardware_index+0x18>
     f14:	2000      	movs	r0, #0
     f16:	e7f8      	b.n	f0a <_sercom_get_hardware_index+0x22>
     f18:	00003fd8 	.word	0x00003fd8

00000f1c <_usart_init>:
     f1c:	b538      	push	{r3, r4, r5, lr}
     f1e:	4b21      	ldr	r3, [pc, #132]	; (fa4 <_usart_init+0x88>)
     f20:	4604      	mov	r4, r0
     f22:	4798      	blx	r3
     f24:	2800      	cmp	r0, #0
     f26:	d03b      	beq.n	fa0 <_usart_init+0x84>
     f28:	2801      	cmp	r0, #1
     f2a:	d039      	beq.n	fa0 <_usart_init+0x84>
     f2c:	2802      	cmp	r0, #2
     f2e:	bf14      	ite	ne
     f30:	2500      	movne	r5, #0
     f32:	2502      	moveq	r5, #2
     f34:	69e3      	ldr	r3, [r4, #28]
     f36:	4a1c      	ldr	r2, [pc, #112]	; (fa8 <_usart_init+0x8c>)
     f38:	f013 0f01 	tst.w	r3, #1
     f3c:	d110      	bne.n	f60 <_usart_init+0x44>
     f3e:	2103      	movs	r1, #3
     f40:	4620      	mov	r0, r4
     f42:	4790      	blx	r2
     f44:	6823      	ldr	r3, [r4, #0]
     f46:	079b      	lsls	r3, r3, #30
     f48:	d505      	bpl.n	f56 <_usart_init+0x3a>
     f4a:	4620      	mov	r0, r4
     f4c:	4b17      	ldr	r3, [pc, #92]	; (fac <_usart_init+0x90>)
     f4e:	4798      	blx	r3
     f50:	2102      	movs	r1, #2
     f52:	4620      	mov	r0, r4
     f54:	4790      	blx	r2
     f56:	2305      	movs	r3, #5
     f58:	6023      	str	r3, [r4, #0]
     f5a:	2103      	movs	r1, #3
     f5c:	4620      	mov	r0, r4
     f5e:	4790      	blx	r2
     f60:	4620      	mov	r0, r4
     f62:	2101      	movs	r1, #1
     f64:	4790      	blx	r2
     f66:	4b12      	ldr	r3, [pc, #72]	; (fb0 <_usart_init+0x94>)
     f68:	6023      	str	r3, [r4, #0]
     f6a:	4620      	mov	r0, r4
     f6c:	2103      	movs	r1, #3
     f6e:	4790      	blx	r2
     f70:	f44f 3340 	mov.w	r3, #196608	; 0x30000
     f74:	6063      	str	r3, [r4, #4]
     f76:	4620      	mov	r0, r4
     f78:	211f      	movs	r1, #31
     f7a:	4790      	blx	r2
     f7c:	4b0d      	ldr	r3, [pc, #52]	; (fb4 <_usart_init+0x98>)
     f7e:	480e      	ldr	r0, [pc, #56]	; (fb8 <_usart_init+0x9c>)
     f80:	60a3      	str	r3, [r4, #8]
     f82:	2318      	movs	r3, #24
     f84:	fb03 0005 	mla	r0, r3, r5, r0
     f88:	f8b0 3048 	ldrh.w	r3, [r0, #72]	; 0x48
     f8c:	81a3      	strh	r3, [r4, #12]
     f8e:	f890 304b 	ldrb.w	r3, [r0, #75]	; 0x4b
     f92:	73a3      	strb	r3, [r4, #14]
     f94:	f890 304c 	ldrb.w	r3, [r0, #76]	; 0x4c
     f98:	f884 3030 	strb.w	r3, [r4, #48]	; 0x30
     f9c:	2000      	movs	r0, #0
     f9e:	bd38      	pop	{r3, r4, r5, pc}
     fa0:	4605      	mov	r5, r0
     fa2:	e7c7      	b.n	f34 <_usart_init+0x18>
     fa4:	00000ee9 	.word	0x00000ee9
     fa8:	00000ecd 	.word	0x00000ecd
     fac:	00000ed5 	.word	0x00000ed5
     fb0:	40100004 	.word	0x40100004
     fb4:	00700002 	.word	0x00700002
     fb8:	00003fd8 	.word	0x00003fd8

00000fbc <_usart_sync_init>:
     fbc:	6001      	str	r1, [r0, #0]
     fbe:	4b01      	ldr	r3, [pc, #4]	; (fc4 <_usart_sync_init+0x8>)
     fc0:	4608      	mov	r0, r1
     fc2:	4718      	bx	r3
     fc4:	00000f1d 	.word	0x00000f1d

00000fc8 <_usart_sync_enable>:
     fc8:	6800      	ldr	r0, [r0, #0]
     fca:	6803      	ldr	r3, [r0, #0]
     fcc:	f043 0302 	orr.w	r3, r3, #2
     fd0:	6003      	str	r3, [r0, #0]
     fd2:	2103      	movs	r1, #3
     fd4:	4b00      	ldr	r3, [pc, #0]	; (fd8 <_usart_sync_enable+0x10>)
     fd6:	4718      	bx	r3
     fd8:	00000ecd 	.word	0x00000ecd

00000fdc <_usart_sync_write_byte>:
     fdc:	6803      	ldr	r3, [r0, #0]
     fde:	6299      	str	r1, [r3, #40]	; 0x28
     fe0:	4770      	bx	lr

00000fe2 <_usart_sync_read_byte>:
     fe2:	6803      	ldr	r3, [r0, #0]
     fe4:	6a98      	ldr	r0, [r3, #40]	; 0x28
     fe6:	b2c0      	uxtb	r0, r0
     fe8:	4770      	bx	lr

00000fea <_usart_sync_is_ready_to_send>:
     fea:	6803      	ldr	r3, [r0, #0]
     fec:	7e18      	ldrb	r0, [r3, #24]
     fee:	f000 0001 	and.w	r0, r0, #1
     ff2:	4770      	bx	lr

00000ff4 <_usart_sync_is_transmit_done>:
     ff4:	6803      	ldr	r3, [r0, #0]
     ff6:	7e18      	ldrb	r0, [r3, #24]
     ff8:	f3c0 0040 	ubfx	r0, r0, #1, #1
     ffc:	4770      	bx	lr

00000ffe <_usart_sync_is_byte_received>:
     ffe:	6803      	ldr	r3, [r0, #0]
    1000:	7e18      	ldrb	r0, [r3, #24]
    1002:	f3c0 0080 	ubfx	r0, r0, #2, #1
    1006:	4770      	bx	lr

00001008 <_delay_init>:
    1008:	4b03      	ldr	r3, [pc, #12]	; (1018 <_delay_init+0x10>)
    100a:	f06f 427f 	mvn.w	r2, #4278190080	; 0xff000000
    100e:	605a      	str	r2, [r3, #4]
    1010:	2205      	movs	r2, #5
    1012:	601a      	str	r2, [r3, #0]
    1014:	4770      	bx	lr
    1016:	bf00      	nop
    1018:	e000e010 	.word	0xe000e010

0000101c <_delay_cycles>:
    101c:	0e0b      	lsrs	r3, r1, #24
    101e:	4a0c      	ldr	r2, [pc, #48]	; (1050 <_delay_cycles+0x34>)
    1020:	b530      	push	{r4, r5, lr}
    1022:	b2d8      	uxtb	r0, r3
    1024:	f06f 447f 	mvn.w	r4, #4278190080	; 0xff000000
    1028:	3801      	subs	r0, #1
    102a:	b2c0      	uxtb	r0, r0
    102c:	28ff      	cmp	r0, #255	; 0xff
    102e:	d108      	bne.n	1042 <_delay_cycles+0x26>
    1030:	eba3 6303 	sub.w	r3, r3, r3, lsl #24
    1034:	4419      	add	r1, r3
    1036:	6051      	str	r1, [r2, #4]
    1038:	6091      	str	r1, [r2, #8]
    103a:	6813      	ldr	r3, [r2, #0]
    103c:	03db      	lsls	r3, r3, #15
    103e:	d5fc      	bpl.n	103a <_delay_cycles+0x1e>
    1040:	bd30      	pop	{r4, r5, pc}
    1042:	6054      	str	r4, [r2, #4]
    1044:	6094      	str	r4, [r2, #8]
    1046:	6815      	ldr	r5, [r2, #0]
    1048:	03ed      	lsls	r5, r5, #15
    104a:	d5fc      	bpl.n	1046 <_delay_cycles+0x2a>
    104c:	e7ec      	b.n	1028 <_delay_cycles+0xc>
    104e:	bf00      	nop
    1050:	e000e010 	.word	0xe000e010

00001054 <_rand_sync_init>:
    1054:	780b      	ldrb	r3, [r1, #0]
    1056:	f013 0302 	ands.w	r3, r3, #2
    105a:	d10c      	bne.n	1076 <_rand_sync_init+0x22>
    105c:	780a      	ldrb	r2, [r1, #0]
    105e:	f002 02bf 	and.w	r2, r2, #191	; 0xbf
    1062:	700a      	strb	r2, [r1, #0]
    1064:	790a      	ldrb	r2, [r1, #4]
    1066:	f002 02fe 	and.w	r2, r2, #254	; 0xfe
    106a:	710a      	strb	r2, [r1, #4]
    106c:	2220      	movs	r2, #32
    106e:	6001      	str	r1, [r0, #0]
    1070:	7102      	strb	r2, [r0, #4]
    1072:	4618      	mov	r0, r3
    1074:	4770      	bx	lr
    1076:	f06f 0010 	mvn.w	r0, #16
    107a:	4770      	bx	lr

0000107c <_dummy_func_no_return>:
    107c:	2000      	movs	r0, #0
    107e:	4770      	bx	lr

00001080 <_usb_d_dev_wait_dfll_rdy>:
    1080:	4b07      	ldr	r3, [pc, #28]	; (10a0 <_usb_d_dev_wait_dfll_rdy+0x20>)
    1082:	f893 2020 	ldrb.w	r2, [r3, #32]
    1086:	07d1      	lsls	r1, r2, #31
    1088:	d506      	bpl.n	1098 <_usb_d_dev_wait_dfll_rdy+0x18>
    108a:	691a      	ldr	r2, [r3, #16]
    108c:	f402 6210 	and.w	r2, r2, #2304	; 0x900
    1090:	f5b2 6f10 	cmp.w	r2, #2304	; 0x900
    1094:	d1f9      	bne.n	108a <_usb_d_dev_wait_dfll_rdy+0xa>
    1096:	4770      	bx	lr
    1098:	691a      	ldr	r2, [r3, #16]
    109a:	05d2      	lsls	r2, r2, #23
    109c:	d5fc      	bpl.n	1098 <_usb_d_dev_wait_dfll_rdy+0x18>
    109e:	4770      	bx	lr
    10a0:	40001000 	.word	0x40001000

000010a4 <_usb_d_dev_ept>:
    10a4:	b110      	cbz	r0, 10ac <_usb_d_dev_ept+0x8>
    10a6:	b109      	cbz	r1, 10ac <_usb_d_dev_ept+0x8>
    10a8:	3002      	adds	r0, #2
    10aa:	b2c0      	uxtb	r0, r0
    10ac:	2314      	movs	r3, #20
    10ae:	fb00 3003 	mla	r0, r0, r3, r3
    10b2:	4b01      	ldr	r3, [pc, #4]	; (10b8 <_usb_d_dev_ept+0x14>)
    10b4:	4418      	add	r0, r3
    10b6:	4770      	bx	lr
    10b8:	2000014c 	.word	0x2000014c

000010bc <_usb_d_dev_handle_setup>:
    10bc:	b430      	push	{r4, r5}
    10be:	7cc1      	ldrb	r1, [r0, #19]
    10c0:	7c85      	ldrb	r5, [r0, #18]
    10c2:	f001 0307 	and.w	r3, r1, #7
    10c6:	f005 020f 	and.w	r2, r5, #15
    10ca:	2b01      	cmp	r3, #1
    10cc:	ea4f 1442 	mov.w	r4, r2, lsl #5
    10d0:	f102 0308 	add.w	r3, r2, #8
    10d4:	d00a      	beq.n	10ec <_usb_d_dev_handle_setup+0x30>
    10d6:	015a      	lsls	r2, r3, #5
    10d8:	f102 4282 	add.w	r2, r2, #1090519040	; 0x41000000
    10dc:	f104 4382 	add.w	r3, r4, #1090519040	; 0x41000000
    10e0:	2110      	movs	r1, #16
    10e2:	71d1      	strb	r1, [r2, #7]
    10e4:	f883 1108 	strb.w	r1, [r3, #264]	; 0x108
    10e8:	bc30      	pop	{r4, r5}
    10ea:	4770      	bx	lr
    10ec:	f011 0f40 	tst.w	r1, #64	; 0x40
    10f0:	d00b      	beq.n	110a <_usb_d_dev_handle_setup+0x4e>
    10f2:	0152      	lsls	r2, r2, #5
    10f4:	f36f 1186 	bfc	r1, #6, #1
    10f8:	f102 4282 	add.w	r2, r2, #1090519040	; 0x41000000
    10fc:	74c1      	strb	r1, [r0, #19]
    10fe:	2180      	movs	r1, #128	; 0x80
    1100:	f882 1104 	strb.w	r1, [r2, #260]	; 0x104
    1104:	2140      	movs	r1, #64	; 0x40
    1106:	f882 1105 	strb.w	r1, [r2, #261]	; 0x105
    110a:	7cc2      	ldrb	r2, [r0, #19]
    110c:	f36f 02c3 	bfc	r2, #3, #1
    1110:	74c2      	strb	r2, [r0, #19]
    1112:	4a0a      	ldr	r2, [pc, #40]	; (113c <_usb_d_dev_handle_setup+0x80>)
    1114:	015b      	lsls	r3, r3, #5
    1116:	1911      	adds	r1, r2, r4
    1118:	2000      	movs	r0, #0
    111a:	f103 4382 	add.w	r3, r3, #1090519040	; 0x41000000
    111e:	f881 00d2 	strb.w	r0, [r1, #210]	; 0xd2
    1122:	f881 00e2 	strb.w	r0, [r1, #226]	; 0xe2
    1126:	216f      	movs	r1, #111	; 0x6f
    1128:	71d9      	strb	r1, [r3, #7]
    112a:	f104 4382 	add.w	r3, r4, #1090519040	; 0x41000000
    112e:	4628      	mov	r0, r5
    1130:	f883 1108 	strb.w	r1, [r3, #264]	; 0x108
    1134:	6893      	ldr	r3, [r2, #8]
    1136:	bc30      	pop	{r4, r5}
    1138:	4718      	bx	r3
    113a:	bf00      	nop
    113c:	2000014c 	.word	0x2000014c

00001140 <_usb_d_dev_handle_stall>:
    1140:	4602      	mov	r2, r0
    1142:	7c80      	ldrb	r0, [r0, #18]
    1144:	2320      	movs	r3, #32
    1146:	fa03 f101 	lsl.w	r1, r3, r1
    114a:	f000 030f 	and.w	r3, r0, #15
    114e:	015b      	lsls	r3, r3, #5
    1150:	f103 4382 	add.w	r3, r3, #1090519040	; 0x41000000
    1154:	b2c9      	uxtb	r1, r1
    1156:	f883 1108 	strb.w	r1, [r3, #264]	; 0x108
    115a:	4b02      	ldr	r3, [pc, #8]	; (1164 <_usb_d_dev_handle_stall+0x24>)
    115c:	6892      	ldr	r2, [r2, #8]
    115e:	691b      	ldr	r3, [r3, #16]
    1160:	2101      	movs	r1, #1
    1162:	4718      	bx	r3
    1164:	2000014c 	.word	0x2000014c

00001168 <_usb_d_dev_trans_done>:
    1168:	4602      	mov	r2, r0
    116a:	7c80      	ldrb	r0, [r0, #18]
    116c:	28ff      	cmp	r0, #255	; 0xff
    116e:	d00a      	beq.n	1186 <_usb_d_dev_trans_done+0x1e>
    1170:	7cd3      	ldrb	r3, [r2, #19]
    1172:	f013 0f40 	tst.w	r3, #64	; 0x40
    1176:	d006      	beq.n	1186 <_usb_d_dev_trans_done+0x1e>
    1178:	f36f 1386 	bfc	r3, #6, #1
    117c:	74d3      	strb	r3, [r2, #19]
    117e:	4b02      	ldr	r3, [pc, #8]	; (1188 <_usb_d_dev_trans_done+0x20>)
    1180:	6892      	ldr	r2, [r2, #8]
    1182:	691b      	ldr	r3, [r3, #16]
    1184:	4718      	bx	r3
    1186:	4770      	bx	lr
    1188:	2000014c 	.word	0x2000014c

0000118c <_usb_d_dev_trans_stop>:
    118c:	b477      	push	{r0, r1, r2, r4, r5, r6}
    118e:	7c83      	ldrb	r3, [r0, #18]
    1190:	2425      	movs	r4, #37	; 0x25
    1192:	f88d 4004 	strb.w	r4, [sp, #4]
    1196:	2bff      	cmp	r3, #255	; 0xff
    1198:	f04f 044a 	mov.w	r4, #74	; 0x4a
    119c:	f88d 4005 	strb.w	r4, [sp, #5]
    11a0:	d021      	beq.n	11e6 <_usb_d_dev_trans_stop+0x5a>
    11a2:	7cc4      	ldrb	r4, [r0, #19]
    11a4:	0664      	lsls	r4, r4, #25
    11a6:	d51e      	bpl.n	11e6 <_usb_d_dev_trans_stop+0x5a>
    11a8:	f003 030f 	and.w	r3, r3, #15
    11ac:	f103 0408 	add.w	r4, r3, #8
    11b0:	0165      	lsls	r5, r4, #5
    11b2:	f105 4582 	add.w	r5, r5, #1090519040	; 0x41000000
    11b6:	b199      	cbz	r1, 11e0 <_usb_d_dev_trans_stop+0x54>
    11b8:	2680      	movs	r6, #128	; 0x80
    11ba:	712e      	strb	r6, [r5, #4]
    11bc:	ad02      	add	r5, sp, #8
    11be:	440d      	add	r5, r1
    11c0:	0164      	lsls	r4, r4, #5
    11c2:	015b      	lsls	r3, r3, #5
    11c4:	f104 4482 	add.w	r4, r4, #1090519040	; 0x41000000
    11c8:	f103 4382 	add.w	r3, r3, #1090519040	; 0x41000000
    11cc:	f815 1c04 	ldrb.w	r1, [r5, #-4]
    11d0:	71e1      	strb	r1, [r4, #7]
    11d2:	f883 1108 	strb.w	r1, [r3, #264]	; 0x108
    11d6:	4b05      	ldr	r3, [pc, #20]	; (11ec <_usb_d_dev_trans_stop+0x60>)
    11d8:	4611      	mov	r1, r2
    11da:	b003      	add	sp, #12
    11dc:	bc70      	pop	{r4, r5, r6}
    11de:	4718      	bx	r3
    11e0:	2640      	movs	r6, #64	; 0x40
    11e2:	716e      	strb	r6, [r5, #5]
    11e4:	e7ea      	b.n	11bc <_usb_d_dev_trans_stop+0x30>
    11e6:	b003      	add	sp, #12
    11e8:	bc70      	pop	{r4, r5, r6}
    11ea:	4770      	bx	lr
    11ec:	00001169 	.word	0x00001169

000011f0 <_usb_d_dev_handle_trfail>:
    11f0:	b4f3      	push	{r0, r1, r4, r5, r6, r7}
    11f2:	7c86      	ldrb	r6, [r0, #18]
    11f4:	2304      	movs	r3, #4
    11f6:	f006 060f 	and.w	r6, r6, #15
    11fa:	f88d 3004 	strb.w	r3, [sp, #4]
    11fe:	2308      	movs	r3, #8
    1200:	f88d 3005 	strb.w	r3, [sp, #5]
    1204:	18f3      	adds	r3, r6, r3
    1206:	015a      	lsls	r2, r3, #5
    1208:	f102 4282 	add.w	r2, r2, #1090519040	; 0x41000000
    120c:	0175      	lsls	r5, r6, #5
    120e:	7812      	ldrb	r2, [r2, #0]
    1210:	b339      	cbz	r1, 1262 <_usb_d_dev_handle_trfail+0x72>
    1212:	f3c2 1202 	ubfx	r2, r2, #4, #3
    1216:	4c2e      	ldr	r4, [pc, #184]	; (12d0 <_usb_d_dev_handle_trfail+0xe0>)
    1218:	eb05 1501 	add.w	r5, r5, r1, lsl #4
    121c:	4425      	add	r5, r4
    121e:	2a02      	cmp	r2, #2
    1220:	7aac      	ldrb	r4, [r5, #10]
    1222:	aa02      	add	r2, sp, #8
    1224:	eb02 0701 	add.w	r7, r2, r1
    1228:	b2e4      	uxtb	r4, r4
    122a:	ea4f 1246 	mov.w	r2, r6, lsl #5
    122e:	d11b      	bne.n	1268 <_usb_d_dev_handle_trfail+0x78>
    1230:	f014 0f01 	tst.w	r4, #1
    1234:	d018      	beq.n	1268 <_usb_d_dev_handle_trfail+0x78>
    1236:	7aac      	ldrb	r4, [r5, #10]
    1238:	015b      	lsls	r3, r3, #5
    123a:	f36f 0400 	bfc	r4, #0, #1
    123e:	f102 4282 	add.w	r2, r2, #1090519040	; 0x41000000
    1242:	f103 4382 	add.w	r3, r3, #1090519040	; 0x41000000
    1246:	72ac      	strb	r4, [r5, #10]
    1248:	3100      	adds	r1, #0
    124a:	f817 4c04 	ldrb.w	r4, [r7, #-4]
    124e:	71dc      	strb	r4, [r3, #7]
    1250:	bf18      	it	ne
    1252:	2101      	movne	r1, #1
    1254:	f882 4108 	strb.w	r4, [r2, #264]	; 0x108
    1258:	2204      	movs	r2, #4
    125a:	4b1e      	ldr	r3, [pc, #120]	; (12d4 <_usb_d_dev_handle_trfail+0xe4>)
    125c:	b002      	add	sp, #8
    125e:	bcf0      	pop	{r4, r5, r6, r7}
    1260:	4718      	bx	r3
    1262:	f002 0207 	and.w	r2, r2, #7
    1266:	e7d6      	b.n	1216 <_usb_d_dev_handle_trfail+0x26>
    1268:	f014 0402 	ands.w	r4, r4, #2
    126c:	d01b      	beq.n	12a6 <_usb_d_dev_handle_trfail+0xb6>
    126e:	7aac      	ldrb	r4, [r5, #10]
    1270:	7cc6      	ldrb	r6, [r0, #19]
    1272:	015b      	lsls	r3, r3, #5
    1274:	f36f 0441 	bfc	r4, #1, #1
    1278:	f103 4382 	add.w	r3, r3, #1090519040	; 0x41000000
    127c:	72ac      	strb	r4, [r5, #10]
    127e:	f817 4c04 	ldrb.w	r4, [r7, #-4]
    1282:	71dc      	strb	r4, [r3, #7]
    1284:	f102 4282 	add.w	r2, r2, #1090519040	; 0x41000000
    1288:	f006 0307 	and.w	r3, r6, #7
    128c:	2b01      	cmp	r3, #1
    128e:	f882 4108 	strb.w	r4, [r2, #264]	; 0x108
    1292:	d119      	bne.n	12c8 <_usb_d_dev_handle_trfail+0xd8>
    1294:	0673      	lsls	r3, r6, #25
    1296:	d517      	bpl.n	12c8 <_usb_d_dev_handle_trfail+0xd8>
    1298:	7cc3      	ldrb	r3, [r0, #19]
    129a:	09db      	lsrs	r3, r3, #7
    129c:	4299      	cmp	r1, r3
    129e:	d013      	beq.n	12c8 <_usb_d_dev_handle_trfail+0xd8>
    12a0:	2200      	movs	r2, #0
    12a2:	4619      	mov	r1, r3
    12a4:	e7d9      	b.n	125a <_usb_d_dev_handle_trfail+0x6a>
    12a6:	480c      	ldr	r0, [pc, #48]	; (12d8 <_usb_d_dev_handle_trfail+0xe8>)
    12a8:	eb01 0146 	add.w	r1, r1, r6, lsl #1
    12ac:	eb00 1101 	add.w	r1, r0, r1, lsl #4
    12b0:	015b      	lsls	r3, r3, #5
    12b2:	f103 4382 	add.w	r3, r3, #1090519040	; 0x41000000
    12b6:	f102 4282 	add.w	r2, r2, #1090519040	; 0x41000000
    12ba:	f881 40d2 	strb.w	r4, [r1, #210]	; 0xd2
    12be:	f817 1c04 	ldrb.w	r1, [r7, #-4]
    12c2:	71d9      	strb	r1, [r3, #7]
    12c4:	f882 1108 	strb.w	r1, [r2, #264]	; 0x108
    12c8:	b002      	add	sp, #8
    12ca:	bcf0      	pop	{r4, r5, r6, r7}
    12cc:	4770      	bx	lr
    12ce:	bf00      	nop
    12d0:	20000214 	.word	0x20000214
    12d4:	0000118d 	.word	0x0000118d
    12d8:	2000014c 	.word	0x2000014c

000012dc <_usb_d_dev_reset_epts>:
    12dc:	e92d 41f0 	stmdb	sp!, {r4, r5, r6, r7, r8, lr}
    12e0:	4c09      	ldr	r4, [pc, #36]	; (1308 <_usb_d_dev_reset_epts+0x2c>)
    12e2:	4f0a      	ldr	r7, [pc, #40]	; (130c <_usb_d_dev_reset_epts+0x30>)
    12e4:	f104 05b4 	add.w	r5, r4, #180	; 0xb4
    12e8:	26ff      	movs	r6, #255	; 0xff
    12ea:	2103      	movs	r1, #3
    12ec:	4620      	mov	r0, r4
    12ee:	47b8      	blx	r7
    12f0:	2100      	movs	r1, #0
    12f2:	74a6      	strb	r6, [r4, #18]
    12f4:	74e1      	strb	r1, [r4, #19]
    12f6:	3414      	adds	r4, #20
    12f8:	42ac      	cmp	r4, r5
    12fa:	d1f6      	bne.n	12ea <_usb_d_dev_reset_epts+0xe>
    12fc:	2260      	movs	r2, #96	; 0x60
    12fe:	4804      	ldr	r0, [pc, #16]	; (1310 <_usb_d_dev_reset_epts+0x34>)
    1300:	4b04      	ldr	r3, [pc, #16]	; (1314 <_usb_d_dev_reset_epts+0x38>)
    1302:	e8bd 41f0 	ldmia.w	sp!, {r4, r5, r6, r7, r8, lr}
    1306:	4718      	bx	r3
    1308:	20000160 	.word	0x20000160
    130c:	00001169 	.word	0x00001169
    1310:	20000214 	.word	0x20000214
    1314:	00002f25 	.word	0x00002f25

00001318 <_usb_d_dev_in_next>:
    1318:	e92d 47f0 	stmdb	sp!, {r4, r5, r6, r7, r8, r9, sl, lr}
    131c:	4604      	mov	r4, r0
    131e:	7c80      	ldrb	r0, [r0, #18]
    1320:	4689      	mov	r9, r1
    1322:	f000 080f 	and.w	r8, r0, #15
    1326:	2900      	cmp	r1, #0
    1328:	d05a      	beq.n	13e0 <_usb_d_dev_in_next+0xc8>
    132a:	4b4c      	ldr	r3, [pc, #304]	; (145c <_usb_d_dev_in_next+0x144>)
    132c:	eb03 1348 	add.w	r3, r3, r8, lsl #5
    1330:	695e      	ldr	r6, [r3, #20]
    1332:	f3c6 060d 	ubfx	r6, r6, #0, #14
    1336:	f8b4 e010 	ldrh.w	lr, [r4, #16]
    133a:	f894 c013 	ldrb.w	ip, [r4, #19]
    133e:	f240 33ff 	movw	r3, #1023	; 0x3ff
    1342:	459e      	cmp	lr, r3
    1344:	bf1a      	itte	ne
    1346:	f10e 32ff 	addne.w	r2, lr, #4294967295
    134a:	b292      	uxthne	r2, r2
    134c:	4672      	moveq	r2, lr
    134e:	f00c 0a07 	and.w	sl, ip, #7
    1352:	f1b9 0f00 	cmp.w	r9, #0
    1356:	d006      	beq.n	1366 <_usb_d_dev_in_next+0x4e>
    1358:	ea4f 1348 	mov.w	r3, r8, lsl #5
    135c:	f103 4382 	add.w	r3, r3, #1090519040	; 0x41000000
    1360:	2102      	movs	r1, #2
    1362:	f883 1107 	strb.w	r1, [r3, #263]	; 0x107
    1366:	68a1      	ldr	r1, [r4, #8]
    1368:	6863      	ldr	r3, [r4, #4]
    136a:	4431      	add	r1, r6
    136c:	4299      	cmp	r1, r3
    136e:	60a1      	str	r1, [r4, #8]
    1370:	ea4f 1548 	mov.w	r5, r8, lsl #5
    1374:	d240      	bcs.n	13f8 <_usb_d_dev_in_next+0xe0>
    1376:	1a5b      	subs	r3, r3, r1
    1378:	f01c 0f20 	tst.w	ip, #32
    137c:	b29f      	uxth	r7, r3
    137e:	4e38      	ldr	r6, [pc, #224]	; (1460 <_usb_d_dev_in_next+0x148>)
    1380:	6823      	ldr	r3, [r4, #0]
    1382:	d02f      	beq.n	13e4 <_usb_d_dev_in_next+0xcc>
    1384:	4577      	cmp	r7, lr
    1386:	bf28      	it	cs
    1388:	4677      	movcs	r7, lr
    138a:	463a      	mov	r2, r7
    138c:	4419      	add	r1, r3
    138e:	68e0      	ldr	r0, [r4, #12]
    1390:	4b34      	ldr	r3, [pc, #208]	; (1464 <_usb_d_dev_in_next+0x14c>)
    1392:	4798      	blx	r3
    1394:	1973      	adds	r3, r6, r5
    1396:	68e2      	ldr	r2, [r4, #12]
    1398:	f8c3 20d8 	str.w	r2, [r3, #216]	; 0xd8
    139c:	1972      	adds	r2, r6, r5
    139e:	f8d2 30dc 	ldr.w	r3, [r2, #220]	; 0xdc
    13a2:	f367 030d 	bfi	r3, r7, #0, #14
    13a6:	f8c2 30dc 	str.w	r3, [r2, #220]	; 0xdc
    13aa:	f8d2 30dc 	ldr.w	r3, [r2, #220]	; 0xdc
    13ae:	f36f 339b 	bfc	r3, #14, #14
    13b2:	f8c2 30dc 	str.w	r3, [r2, #220]	; 0xdc
    13b6:	f1b9 0f00 	cmp.w	r9, #0
    13ba:	d108      	bne.n	13ce <_usb_d_dev_in_next+0xb6>
    13bc:	f1ba 0f01 	cmp.w	sl, #1
    13c0:	f105 4582 	add.w	r5, r5, #1090519040	; 0x41000000
    13c4:	bf0c      	ite	eq
    13c6:	234e      	moveq	r3, #78	; 0x4e
    13c8:	234a      	movne	r3, #74	; 0x4a
    13ca:	f885 3109 	strb.w	r3, [r5, #265]	; 0x109
    13ce:	ea4f 1348 	mov.w	r3, r8, lsl #5
    13d2:	f103 4382 	add.w	r3, r3, #1090519040	; 0x41000000
    13d6:	2280      	movs	r2, #128	; 0x80
    13d8:	f883 2105 	strb.w	r2, [r3, #261]	; 0x105
    13dc:	e8bd 87f0 	ldmia.w	sp!, {r4, r5, r6, r7, r8, r9, sl, pc}
    13e0:	460e      	mov	r6, r1
    13e2:	e7a8      	b.n	1336 <_usb_d_dev_in_next+0x1e>
    13e4:	4419      	add	r1, r3
    13e6:	1973      	adds	r3, r6, r5
    13e8:	f5b7 5f00 	cmp.w	r7, #8192	; 0x2000
    13ec:	bf28      	it	cs
    13ee:	f44f 5700 	movcs.w	r7, #8192	; 0x2000
    13f2:	f8c3 10d8 	str.w	r1, [r3, #216]	; 0xd8
    13f6:	e7d1      	b.n	139c <_usb_d_dev_in_next+0x84>
    13f8:	f01c 0f10 	tst.w	ip, #16
    13fc:	d00e      	beq.n	141c <_usb_d_dev_in_next+0x104>
    13fe:	7ce3      	ldrb	r3, [r4, #19]
    1400:	f36f 1304 	bfc	r3, #4, #1
    1404:	74e3      	strb	r3, [r4, #19]
    1406:	4b18      	ldr	r3, [pc, #96]	; (1468 <_usb_d_dev_in_next+0x150>)
    1408:	442b      	add	r3, r5
    140a:	685a      	ldr	r2, [r3, #4]
    140c:	f36f 020d 	bfc	r2, #0, #14
    1410:	605a      	str	r2, [r3, #4]
    1412:	685a      	ldr	r2, [r3, #4]
    1414:	f36f 329b 	bfc	r2, #14, #14
    1418:	605a      	str	r2, [r3, #4]
    141a:	e7cc      	b.n	13b6 <_usb_d_dev_in_next+0x9e>
    141c:	f1ba 0f01 	cmp.w	sl, #1
    1420:	f105 4582 	add.w	r5, r5, #1090519040	; 0x41000000
    1424:	ea02 0206 	and.w	r2, r2, r6
    1428:	bf0c      	ite	eq
    142a:	234b      	moveq	r3, #75	; 0x4b
    142c:	234a      	movne	r3, #74	; 0x4a
    142e:	4596      	cmp	lr, r2
    1430:	f885 3108 	strb.w	r3, [r5, #264]	; 0x108
    1434:	d10c      	bne.n	1450 <_usb_d_dev_in_next+0x138>
    1436:	7ce3      	ldrb	r3, [r4, #19]
    1438:	f36f 1386 	bfc	r3, #6, #1
    143c:	74e3      	strb	r3, [r4, #19]
    143e:	4b08      	ldr	r3, [pc, #32]	; (1460 <_usb_d_dev_in_next+0x148>)
    1440:	68db      	ldr	r3, [r3, #12]
    1442:	4798      	blx	r3
    1444:	2800      	cmp	r0, #0
    1446:	d1c9      	bne.n	13dc <_usb_d_dev_in_next+0xc4>
    1448:	7ce3      	ldrb	r3, [r4, #19]
    144a:	f043 0340 	orr.w	r3, r3, #64	; 0x40
    144e:	74e3      	strb	r3, [r4, #19]
    1450:	4620      	mov	r0, r4
    1452:	2100      	movs	r1, #0
    1454:	4b05      	ldr	r3, [pc, #20]	; (146c <_usb_d_dev_in_next+0x154>)
    1456:	e8bd 47f0 	ldmia.w	sp!, {r4, r5, r6, r7, r8, r9, sl, lr}
    145a:	4718      	bx	r3
    145c:	20000214 	.word	0x20000214
    1460:	2000014c 	.word	0x2000014c
    1464:	00002f0f 	.word	0x00002f0f
    1468:	20000224 	.word	0x20000224
    146c:	00001169 	.word	0x00001169

00001470 <_usb_d_dev_out_next>:
    1470:	e92d 4ff7 	stmdb	sp!, {r0, r1, r2, r4, r5, r6, r7, r8, r9, sl, fp, lr}
    1474:	7c86      	ldrb	r6, [r0, #18]
    1476:	f006 060f 	and.w	r6, r6, #15
    147a:	4604      	mov	r4, r0
    147c:	460f      	mov	r7, r1
    147e:	0175      	lsls	r5, r6, #5
    1480:	2900      	cmp	r1, #0
    1482:	d062      	beq.n	154a <_usb_d_dev_out_next+0xda>
    1484:	4b61      	ldr	r3, [pc, #388]	; (160c <_usb_d_dev_out_next+0x19c>)
    1486:	442b      	add	r3, r5
    1488:	685a      	ldr	r2, [r3, #4]
    148a:	685b      	ldr	r3, [r3, #4]
    148c:	f3c2 398d 	ubfx	r9, r2, #14, #14
    1490:	f3c3 0a0d 	ubfx	sl, r3, #0, #14
    1494:	f8b4 8010 	ldrh.w	r8, [r4, #16]
    1498:	7ce2      	ldrb	r2, [r4, #19]
    149a:	f240 33ff 	movw	r3, #1023	; 0x3ff
    149e:	4598      	cmp	r8, r3
    14a0:	bf1c      	itt	ne
    14a2:	f108 38ff 	addne.w	r8, r8, #4294967295
    14a6:	fa1f f888 	uxthne.w	r8, r8
    14aa:	f002 0307 	and.w	r3, r2, #7
    14ae:	ea0a 0b08 	and.w	fp, sl, r8
    14b2:	9301      	str	r3, [sp, #4]
    14b4:	b12f      	cbz	r7, 14c2 <_usb_d_dev_out_next+0x52>
    14b6:	0173      	lsls	r3, r6, #5
    14b8:	f103 4382 	add.w	r3, r3, #1090519040	; 0x41000000
    14bc:	2101      	movs	r1, #1
    14be:	f883 1107 	strb.w	r1, [r3, #263]	; 0x107
    14c2:	0690      	lsls	r0, r2, #26
    14c4:	d50c      	bpl.n	14e0 <_usb_d_dev_out_next+0x70>
    14c6:	6862      	ldr	r2, [r4, #4]
    14c8:	b152      	cbz	r2, 14e0 <_usb_d_dev_out_next+0x70>
    14ca:	68a0      	ldr	r0, [r4, #8]
    14cc:	6823      	ldr	r3, [r4, #0]
    14ce:	68e1      	ldr	r1, [r4, #12]
    14d0:	1a12      	subs	r2, r2, r0
    14d2:	b292      	uxth	r2, r2
    14d4:	455a      	cmp	r2, fp
    14d6:	4418      	add	r0, r3
    14d8:	bf28      	it	cs
    14da:	465a      	movcs	r2, fp
    14dc:	4b4c      	ldr	r3, [pc, #304]	; (1610 <_usb_d_dev_out_next+0x1a0>)
    14de:	4798      	blx	r3
    14e0:	6862      	ldr	r2, [r4, #4]
    14e2:	2a00      	cmp	r2, #0
    14e4:	d134      	bne.n	1550 <_usb_d_dev_out_next+0xe0>
    14e6:	7ce3      	ldrb	r3, [r4, #19]
    14e8:	06d9      	lsls	r1, r3, #27
    14ea:	f140 8089 	bpl.w	1600 <_usb_d_dev_out_next+0x190>
    14ee:	f362 1304 	bfi	r3, r2, #4, #1
    14f2:	4848      	ldr	r0, [pc, #288]	; (1614 <_usb_d_dev_out_next+0x1a4>)
    14f4:	68e1      	ldr	r1, [r4, #12]
    14f6:	b2db      	uxtb	r3, r3
    14f8:	4428      	add	r0, r5
    14fa:	f043 0320 	orr.w	r3, r3, #32
    14fe:	74e3      	strb	r3, [r4, #19]
    1500:	f100 03c8 	add.w	r3, r0, #200	; 0xc8
    1504:	f8c0 10c8 	str.w	r1, [r0, #200]	; 0xc8
    1508:	6859      	ldr	r1, [r3, #4]
    150a:	8a20      	ldrh	r0, [r4, #16]
    150c:	f360 319b 	bfi	r1, r0, #14, #14
    1510:	6059      	str	r1, [r3, #4]
    1512:	6859      	ldr	r1, [r3, #4]
    1514:	f362 010d 	bfi	r1, r2, #0, #14
    1518:	6059      	str	r1, [r3, #4]
    151a:	b96f      	cbnz	r7, 1538 <_usb_d_dev_out_next+0xc8>
    151c:	9b01      	ldr	r3, [sp, #4]
    151e:	2b01      	cmp	r3, #1
    1520:	bf04      	itt	eq
    1522:	4b3c      	ldreq	r3, [pc, #240]	; (1614 <_usb_d_dev_out_next+0x1a4>)
    1524:	195b      	addeq	r3, r3, r5
    1526:	f105 4582 	add.w	r5, r5, #1090519040	; 0x41000000
    152a:	bf0a      	itet	eq
    152c:	f883 70e2 	strbeq.w	r7, [r3, #226]	; 0xe2
    1530:	2325      	movne	r3, #37	; 0x25
    1532:	232d      	moveq	r3, #45	; 0x2d
    1534:	f885 3109 	strb.w	r3, [r5, #265]	; 0x109
    1538:	0176      	lsls	r6, r6, #5
    153a:	f106 4682 	add.w	r6, r6, #1090519040	; 0x41000000
    153e:	2340      	movs	r3, #64	; 0x40
    1540:	f886 3104 	strb.w	r3, [r6, #260]	; 0x104
    1544:	b003      	add	sp, #12
    1546:	e8bd 8ff0 	ldmia.w	sp!, {r4, r5, r6, r7, r8, r9, sl, fp, pc}
    154a:	4689      	mov	r9, r1
    154c:	468a      	mov	sl, r1
    154e:	e7a1      	b.n	1494 <_usb_d_dev_out_next+0x24>
    1550:	b1f7      	cbz	r7, 1590 <_usb_d_dev_out_next+0x120>
    1552:	8a23      	ldrh	r3, [r4, #16]
    1554:	455b      	cmp	r3, fp
    1556:	d91b      	bls.n	1590 <_usb_d_dev_out_next+0x120>
    1558:	7ce3      	ldrb	r3, [r4, #19]
    155a:	f36f 1304 	bfc	r3, #4, #1
    155e:	74e3      	strb	r3, [r4, #19]
    1560:	68a3      	ldr	r3, [r4, #8]
    1562:	4453      	add	r3, sl
    1564:	60a3      	str	r3, [r4, #8]
    1566:	9b01      	ldr	r3, [sp, #4]
    1568:	f105 4582 	add.w	r5, r5, #1090519040	; 0x41000000
    156c:	2b01      	cmp	r3, #1
    156e:	bf0c      	ite	eq
    1570:	232d      	moveq	r3, #45	; 0x2d
    1572:	2325      	movne	r3, #37	; 0x25
    1574:	f885 3108 	strb.w	r3, [r5, #264]	; 0x108
    1578:	b91e      	cbnz	r6, 1582 <_usb_d_dev_out_next+0x112>
    157a:	4b26      	ldr	r3, [pc, #152]	; (1614 <_usb_d_dev_out_next+0x1a4>)
    157c:	68e2      	ldr	r2, [r4, #12]
    157e:	f8c3 20c8 	str.w	r2, [r3, #200]	; 0xc8
    1582:	4b25      	ldr	r3, [pc, #148]	; (1618 <_usb_d_dev_out_next+0x1a8>)
    1584:	2100      	movs	r1, #0
    1586:	4620      	mov	r0, r4
    1588:	b003      	add	sp, #12
    158a:	e8bd 4ff0 	ldmia.w	sp!, {r4, r5, r6, r7, r8, r9, sl, fp, lr}
    158e:	4718      	bx	r3
    1590:	68a1      	ldr	r1, [r4, #8]
    1592:	4449      	add	r1, r9
    1594:	428a      	cmp	r2, r1
    1596:	60a1      	str	r1, [r4, #8]
    1598:	d9e5      	bls.n	1566 <_usb_d_dev_out_next+0xf6>
    159a:	7ce0      	ldrb	r0, [r4, #19]
    159c:	4b1d      	ldr	r3, [pc, #116]	; (1614 <_usb_d_dev_out_next+0x1a4>)
    159e:	f8b4 e010 	ldrh.w	lr, [r4, #16]
    15a2:	1a52      	subs	r2, r2, r1
    15a4:	f010 0f20 	tst.w	r0, #32
    15a8:	b292      	uxth	r2, r2
    15aa:	d014      	beq.n	15d6 <_usb_d_dev_out_next+0x166>
    15ac:	1959      	adds	r1, r3, r5
    15ae:	4572      	cmp	r2, lr
    15b0:	68e0      	ldr	r0, [r4, #12]
    15b2:	f8c1 00c8 	str.w	r0, [r1, #200]	; 0xc8
    15b6:	bf28      	it	cs
    15b8:	4672      	movcs	r2, lr
    15ba:	442b      	add	r3, r5
    15bc:	f8d3 10cc 	ldr.w	r1, [r3, #204]	; 0xcc
    15c0:	f362 319b 	bfi	r1, r2, #14, #14
    15c4:	f8c3 10cc 	str.w	r1, [r3, #204]	; 0xcc
    15c8:	f8d3 20cc 	ldr.w	r2, [r3, #204]	; 0xcc
    15cc:	f36f 020d 	bfc	r2, #0, #14
    15d0:	f8c3 20cc 	str.w	r2, [r3, #204]	; 0xcc
    15d4:	e7a1      	b.n	151a <_usb_d_dev_out_next+0xaa>
    15d6:	4572      	cmp	r2, lr
    15d8:	d90a      	bls.n	15f0 <_usb_d_dev_out_next+0x180>
    15da:	f5b2 5f00 	cmp.w	r2, #8192	; 0x2000
    15de:	d80c      	bhi.n	15fa <_usb_d_dev_out_next+0x18a>
    15e0:	ea22 0208 	bic.w	r2, r2, r8
    15e4:	6820      	ldr	r0, [r4, #0]
    15e6:	4401      	add	r1, r0
    15e8:	1958      	adds	r0, r3, r5
    15ea:	f8c0 10c8 	str.w	r1, [r0, #200]	; 0xc8
    15ee:	e7e4      	b.n	15ba <_usb_d_dev_out_next+0x14a>
    15f0:	d2f8      	bcs.n	15e4 <_usb_d_dev_out_next+0x174>
    15f2:	f040 0020 	orr.w	r0, r0, #32
    15f6:	74e0      	strb	r0, [r4, #19]
    15f8:	e7f4      	b.n	15e4 <_usb_d_dev_out_next+0x174>
    15fa:	f44f 5200 	mov.w	r2, #8192	; 0x2000
    15fe:	e7f1      	b.n	15e4 <_usb_d_dev_out_next+0x174>
    1600:	2f00      	cmp	r7, #0
    1602:	d1a6      	bne.n	1552 <_usb_d_dev_out_next+0xe2>
    1604:	68a3      	ldr	r3, [r4, #8]
    1606:	444b      	add	r3, r9
    1608:	e7ac      	b.n	1564 <_usb_d_dev_out_next+0xf4>
    160a:	bf00      	nop
    160c:	20000214 	.word	0x20000214
    1610:	00002f0f 	.word	0x00002f0f
    1614:	2000014c 	.word	0x2000014c
    1618:	00001169 	.word	0x00001169

0000161c <_usb_d_dev_handler>:
    161c:	e92d 47f0 	stmdb	sp!, {r4, r5, r6, r7, r8, r9, sl, lr}
    1620:	f04f 4382 	mov.w	r3, #1090519040	; 0x41000000
    1624:	8c1d      	ldrh	r5, [r3, #32]
    1626:	b2ad      	uxth	r5, r5
    1628:	2d00      	cmp	r5, #0
    162a:	d16e      	bne.n	170a <_usb_d_dev_handler+0xee>
    162c:	8b99      	ldrh	r1, [r3, #28]
    162e:	8b1a      	ldrh	r2, [r3, #24]
    1630:	b292      	uxth	r2, r2
    1632:	400a      	ands	r2, r1
    1634:	f012 0004 	ands.w	r0, r2, #4
    1638:	d006      	beq.n	1648 <_usb_d_dev_handler+0x2c>
    163a:	2204      	movs	r2, #4
    163c:	839a      	strh	r2, [r3, #28]
    163e:	4b67      	ldr	r3, [pc, #412]	; (17dc <_usb_d_dev_handler+0x1c0>)
    1640:	e8bd 47f0 	ldmia.w	sp!, {r4, r5, r6, r7, r8, r9, sl, lr}
    1644:	681b      	ldr	r3, [r3, #0]
    1646:	4718      	bx	r3
    1648:	f412 7100 	ands.w	r1, r2, #512	; 0x200
    164c:	d025      	beq.n	169a <_usb_d_dev_handler+0x7e>
    164e:	f240 2201 	movw	r2, #513	; 0x201
    1652:	839a      	strh	r2, [r3, #28]
    1654:	829a      	strh	r2, [r3, #20]
    1656:	2270      	movs	r2, #112	; 0x70
    1658:	831a      	strh	r2, [r3, #24]
    165a:	4b60      	ldr	r3, [pc, #384]	; (17dc <_usb_d_dev_handler+0x1c0>)
    165c:	f8b3 20d0 	ldrh.w	r2, [r3, #208]	; 0xd0
    1660:	f002 020f 	and.w	r2, r2, #15
    1664:	2a03      	cmp	r2, #3
    1666:	d014      	beq.n	1692 <_usb_d_dev_handler+0x76>
    1668:	f8b3 20f0 	ldrh.w	r2, [r3, #240]	; 0xf0
    166c:	f002 020f 	and.w	r2, r2, #15
    1670:	2a03      	cmp	r2, #3
    1672:	d110      	bne.n	1696 <_usb_d_dev_handler+0x7a>
    1674:	2101      	movs	r1, #1
    1676:	eb03 1041 	add.w	r0, r3, r1, lsl #5
    167a:	2200      	movs	r2, #0
    167c:	f8b0 10d0 	ldrh.w	r1, [r0, #208]	; 0xd0
    1680:	f8a0 20d0 	strh.w	r2, [r0, #208]	; 0xd0
    1684:	f3c1 110a 	ubfx	r1, r1, #4, #11
    1688:	685b      	ldr	r3, [r3, #4]
    168a:	2003      	movs	r0, #3
    168c:	e8bd 47f0 	ldmia.w	sp!, {r4, r5, r6, r7, r8, r9, sl, lr}
    1690:	4718      	bx	r3
    1692:	4601      	mov	r1, r0
    1694:	e7ef      	b.n	1676 <_usb_d_dev_handler+0x5a>
    1696:	4601      	mov	r1, r0
    1698:	e7f6      	b.n	1688 <_usb_d_dev_handler+0x6c>
    169a:	f012 0080 	ands.w	r0, r2, #128	; 0x80
    169e:	d005      	beq.n	16ac <_usb_d_dev_handler+0x90>
    16a0:	2280      	movs	r2, #128	; 0x80
    16a2:	839a      	strh	r2, [r3, #28]
    16a4:	4b4d      	ldr	r3, [pc, #308]	; (17dc <_usb_d_dev_handler+0x1c0>)
    16a6:	2005      	movs	r0, #5
    16a8:	685b      	ldr	r3, [r3, #4]
    16aa:	e7ef      	b.n	168c <_usb_d_dev_handler+0x70>
    16ac:	f012 0470 	ands.w	r4, r2, #112	; 0x70
    16b0:	d00c      	beq.n	16cc <_usb_d_dev_handler+0xb0>
    16b2:	2270      	movs	r2, #112	; 0x70
    16b4:	839a      	strh	r2, [r3, #28]
    16b6:	829a      	strh	r2, [r3, #20]
    16b8:	f240 2201 	movw	r2, #513	; 0x201
    16bc:	831a      	strh	r2, [r3, #24]
    16be:	4b48      	ldr	r3, [pc, #288]	; (17e0 <_usb_d_dev_handler+0x1c4>)
    16c0:	4798      	blx	r3
    16c2:	4b46      	ldr	r3, [pc, #280]	; (17dc <_usb_d_dev_handler+0x1c0>)
    16c4:	4601      	mov	r1, r0
    16c6:	685b      	ldr	r3, [r3, #4]
    16c8:	2002      	movs	r0, #2
    16ca:	e7df      	b.n	168c <_usb_d_dev_handler+0x70>
    16cc:	f012 0108 	ands.w	r1, r2, #8
    16d0:	d00f      	beq.n	16f2 <_usb_d_dev_handler+0xd6>
    16d2:	2208      	movs	r2, #8
    16d4:	f883 4100 	strb.w	r4, [r3, #256]	; 0x100
    16d8:	839a      	strh	r2, [r3, #28]
    16da:	2270      	movs	r2, #112	; 0x70
    16dc:	829a      	strh	r2, [r3, #20]
    16de:	f240 2201 	movw	r2, #513	; 0x201
    16e2:	831a      	strh	r2, [r3, #24]
    16e4:	4b3f      	ldr	r3, [pc, #252]	; (17e4 <_usb_d_dev_handler+0x1c8>)
    16e6:	4798      	blx	r3
    16e8:	4b3c      	ldr	r3, [pc, #240]	; (17dc <_usb_d_dev_handler+0x1c0>)
    16ea:	4621      	mov	r1, r4
    16ec:	685b      	ldr	r3, [r3, #4]
    16ee:	2001      	movs	r0, #1
    16f0:	e7cc      	b.n	168c <_usb_d_dev_handler+0x70>
    16f2:	07d0      	lsls	r0, r2, #31
    16f4:	d509      	bpl.n	170a <_usb_d_dev_handler+0xee>
    16f6:	f240 2201 	movw	r2, #513	; 0x201
    16fa:	839a      	strh	r2, [r3, #28]
    16fc:	829a      	strh	r2, [r3, #20]
    16fe:	2270      	movs	r2, #112	; 0x70
    1700:	831a      	strh	r2, [r3, #24]
    1702:	4b36      	ldr	r3, [pc, #216]	; (17dc <_usb_d_dev_handler+0x1c0>)
    1704:	2004      	movs	r0, #4
    1706:	685b      	ldr	r3, [r3, #4]
    1708:	e7c0      	b.n	168c <_usb_d_dev_handler+0x70>
    170a:	4c37      	ldr	r4, [pc, #220]	; (17e8 <_usb_d_dev_handler+0x1cc>)
    170c:	f8df 80ec 	ldr.w	r8, [pc, #236]	; 17fc <_usb_d_dev_handler+0x1e0>
    1710:	4f36      	ldr	r7, [pc, #216]	; (17ec <_usb_d_dev_handler+0x1d0>)
    1712:	2600      	movs	r6, #0
    1714:	f1a4 0914 	sub.w	r9, r4, #20
    1718:	7ca2      	ldrb	r2, [r4, #18]
    171a:	2aff      	cmp	r2, #255	; 0xff
    171c:	d029      	beq.n	1772 <_usb_d_dev_handler+0x156>
    171e:	f002 020f 	and.w	r2, r2, #15
    1722:	2101      	movs	r1, #1
    1724:	fa01 f302 	lsl.w	r3, r1, r2
    1728:	422b      	tst	r3, r5
    172a:	d022      	beq.n	1772 <_usb_d_dev_handler+0x156>
    172c:	0153      	lsls	r3, r2, #5
    172e:	0152      	lsls	r2, r2, #5
    1730:	f103 4382 	add.w	r3, r3, #1090519040	; 0x41000000
    1734:	f102 4282 	add.w	r2, r2, #1090519040	; 0x41000000
    1738:	f893 0107 	ldrb.w	r0, [r3, #263]	; 0x107
    173c:	f892 3109 	ldrb.w	r3, [r2, #265]	; 0x109
    1740:	4003      	ands	r3, r0
    1742:	d016      	beq.n	1772 <_usb_d_dev_handler+0x156>
    1744:	2214      	movs	r2, #20
    1746:	fb02 9206 	mla	r2, r2, r6, r9
    174a:	f892 2027 	ldrb.w	r2, [r2, #39]	; 0x27
    174e:	f002 0047 	and.w	r0, r2, #71	; 0x47
    1752:	4288      	cmp	r0, r1
    1754:	d114      	bne.n	1780 <_usb_d_dev_handler+0x164>
    1756:	06da      	lsls	r2, r3, #27
    1758:	d502      	bpl.n	1760 <_usb_d_dev_handler+0x144>
    175a:	4620      	mov	r0, r4
    175c:	47c0      	blx	r8
    175e:	e008      	b.n	1772 <_usb_d_dev_handler+0x156>
    1760:	f013 0140 	ands.w	r1, r3, #64	; 0x40
    1764:	d003      	beq.n	176e <_usb_d_dev_handler+0x152>
    1766:	4601      	mov	r1, r0
    1768:	4620      	mov	r0, r4
    176a:	4b21      	ldr	r3, [pc, #132]	; (17f0 <_usb_d_dev_handler+0x1d4>)
    176c:	e015      	b.n	179a <_usb_d_dev_handler+0x17e>
    176e:	069b      	lsls	r3, r3, #26
    1770:	d4fa      	bmi.n	1768 <_usb_d_dev_handler+0x14c>
    1772:	3601      	adds	r6, #1
    1774:	2e09      	cmp	r6, #9
    1776:	f104 0414 	add.w	r4, r4, #20
    177a:	d1cd      	bne.n	1718 <_usb_d_dev_handler+0xfc>
    177c:	e8bd 87f0 	ldmia.w	sp!, {r4, r5, r6, r7, r8, r9, sl, pc}
    1780:	0610      	lsls	r0, r2, #24
    1782:	d514      	bpl.n	17ae <_usb_d_dev_handler+0x192>
    1784:	0658      	lsls	r0, r3, #25
    1786:	d4ef      	bmi.n	1768 <_usb_d_dev_handler+0x14c>
    1788:	0718      	lsls	r0, r3, #28
    178a:	d502      	bpl.n	1792 <_usb_d_dev_handler+0x176>
    178c:	4620      	mov	r0, r4
    178e:	47b8      	blx	r7
    1790:	e7ef      	b.n	1772 <_usb_d_dev_handler+0x156>
    1792:	0798      	lsls	r0, r3, #30
    1794:	d503      	bpl.n	179e <_usb_d_dev_handler+0x182>
    1796:	4b17      	ldr	r3, [pc, #92]	; (17f4 <_usb_d_dev_handler+0x1d8>)
    1798:	4620      	mov	r0, r4
    179a:	4798      	blx	r3
    179c:	e7e9      	b.n	1772 <_usb_d_dev_handler+0x156>
    179e:	f002 0207 	and.w	r2, r2, #7
    17a2:	2a01      	cmp	r2, #1
    17a4:	d1e5      	bne.n	1772 <_usb_d_dev_handler+0x156>
    17a6:	075a      	lsls	r2, r3, #29
    17a8:	d515      	bpl.n	17d6 <_usb_d_dev_handler+0x1ba>
    17aa:	2100      	movs	r1, #0
    17ac:	e7ee      	b.n	178c <_usb_d_dev_handler+0x170>
    17ae:	f013 0020 	ands.w	r0, r3, #32
    17b2:	d001      	beq.n	17b8 <_usb_d_dev_handler+0x19c>
    17b4:	2100      	movs	r1, #0
    17b6:	e7d7      	b.n	1768 <_usb_d_dev_handler+0x14c>
    17b8:	0758      	lsls	r0, r3, #29
    17ba:	d4f6      	bmi.n	17aa <_usb_d_dev_handler+0x18e>
    17bc:	07d8      	lsls	r0, r3, #31
    17be:	d502      	bpl.n	17c6 <_usb_d_dev_handler+0x1aa>
    17c0:	4620      	mov	r0, r4
    17c2:	4b0d      	ldr	r3, [pc, #52]	; (17f8 <_usb_d_dev_handler+0x1dc>)
    17c4:	e7e9      	b.n	179a <_usb_d_dev_handler+0x17e>
    17c6:	f002 0207 	and.w	r2, r2, #7
    17ca:	2a01      	cmp	r2, #1
    17cc:	d1d1      	bne.n	1772 <_usb_d_dev_handler+0x156>
    17ce:	071a      	lsls	r2, r3, #28
    17d0:	d501      	bpl.n	17d6 <_usb_d_dev_handler+0x1ba>
    17d2:	2101      	movs	r1, #1
    17d4:	e7da      	b.n	178c <_usb_d_dev_handler+0x170>
    17d6:	06db      	lsls	r3, r3, #27
    17d8:	d5cb      	bpl.n	1772 <_usb_d_dev_handler+0x156>
    17da:	e7be      	b.n	175a <_usb_d_dev_handler+0x13e>
    17dc:	2000014c 	.word	0x2000014c
    17e0:	00001081 	.word	0x00001081
    17e4:	000012dd 	.word	0x000012dd
    17e8:	20000160 	.word	0x20000160
    17ec:	000011f1 	.word	0x000011f1
    17f0:	00001141 	.word	0x00001141
    17f4:	00001319 	.word	0x00001319
    17f8:	00001471 	.word	0x00001471
    17fc:	000010bd 	.word	0x000010bd

00001800 <_usb_d_dev_init>:
    1800:	b508      	push	{r3, lr}
    1802:	f04f 4382 	mov.w	r3, #1090519040	; 0x41000000
    1806:	789a      	ldrb	r2, [r3, #2]
    1808:	07d0      	lsls	r0, r2, #31
    180a:	d540      	bpl.n	188e <_usb_d_dev_init+0x8e>
    180c:	f04f 4282 	mov.w	r2, #1090519040	; 0x41000000
    1810:	7893      	ldrb	r3, [r2, #2]
    1812:	07db      	lsls	r3, r3, #31
    1814:	d4fc      	bmi.n	1810 <_usb_d_dev_init+0x10>
    1816:	4b2f      	ldr	r3, [pc, #188]	; (18d4 <_usb_d_dev_init+0xd4>)
    1818:	4a2f      	ldr	r2, [pc, #188]	; (18d8 <_usb_d_dev_init+0xd8>)
    181a:	601a      	str	r2, [r3, #0]
    181c:	605a      	str	r2, [r3, #4]
    181e:	609a      	str	r2, [r3, #8]
    1820:	60da      	str	r2, [r3, #12]
    1822:	611a      	str	r2, [r3, #16]
    1824:	4b2d      	ldr	r3, [pc, #180]	; (18dc <_usb_d_dev_init+0xdc>)
    1826:	4798      	blx	r3
    1828:	4b2d      	ldr	r3, [pc, #180]	; (18e0 <_usb_d_dev_init+0xe0>)
    182a:	6819      	ldr	r1, [r3, #0]
    182c:	f3c1 1344 	ubfx	r3, r1, #5, #5
    1830:	f3c1 2282 	ubfx	r2, r1, #10, #3
    1834:	f011 011f 	ands.w	r1, r1, #31
    1838:	d046      	beq.n	18c8 <_usb_d_dev_init+0xc8>
    183a:	291f      	cmp	r1, #31
    183c:	bf08      	it	eq
    183e:	2109      	moveq	r1, #9
    1840:	2b00      	cmp	r3, #0
    1842:	d043      	beq.n	18cc <_usb_d_dev_init+0xcc>
    1844:	2b1f      	cmp	r3, #31
    1846:	bf08      	it	eq
    1848:	2319      	moveq	r3, #25
    184a:	2a00      	cmp	r2, #0
    184c:	d040      	beq.n	18d0 <_usb_d_dev_init+0xd0>
    184e:	2a07      	cmp	r2, #7
    1850:	bf08      	it	eq
    1852:	2206      	moveq	r2, #6
    1854:	0312      	lsls	r2, r2, #12
    1856:	f402 42e0 	and.w	r2, r2, #28672	; 0x7000
    185a:	ea43 1381 	orr.w	r3, r3, r1, lsl #6
    185e:	4313      	orrs	r3, r2
    1860:	f04f 4282 	mov.w	r2, #1090519040	; 0x41000000
    1864:	b29b      	uxth	r3, r3
    1866:	8513      	strh	r3, [r2, #40]	; 0x28
    1868:	78d3      	ldrb	r3, [r2, #3]
    186a:	f043 0303 	orr.w	r3, r3, #3
    186e:	70d3      	strb	r3, [r2, #3]
    1870:	78d3      	ldrb	r3, [r2, #3]
    1872:	f043 030c 	orr.w	r3, r3, #12
    1876:	70d3      	strb	r3, [r2, #3]
    1878:	2304      	movs	r3, #4
    187a:	7013      	strb	r3, [r2, #0]
    187c:	7890      	ldrb	r0, [r2, #2]
    187e:	f010 0003 	ands.w	r0, r0, #3
    1882:	d1fb      	bne.n	187c <_usb_d_dev_init+0x7c>
    1884:	4b17      	ldr	r3, [pc, #92]	; (18e4 <_usb_d_dev_init+0xe4>)
    1886:	6253      	str	r3, [r2, #36]	; 0x24
    1888:	2301      	movs	r3, #1
    188a:	8113      	strh	r3, [r2, #8]
    188c:	bd08      	pop	{r3, pc}
    188e:	789a      	ldrb	r2, [r3, #2]
    1890:	0791      	lsls	r1, r2, #30
    1892:	d1fc      	bne.n	188e <_usb_d_dev_init+0x8e>
    1894:	781a      	ldrb	r2, [r3, #0]
    1896:	0792      	lsls	r2, r2, #30
    1898:	d407      	bmi.n	18aa <_usb_d_dev_init+0xaa>
    189a:	f04f 4382 	mov.w	r3, #1090519040	; 0x41000000
    189e:	2201      	movs	r2, #1
    18a0:	701a      	strb	r2, [r3, #0]
    18a2:	789a      	ldrb	r2, [r3, #2]
    18a4:	0792      	lsls	r2, r2, #30
    18a6:	d1fc      	bne.n	18a2 <_usb_d_dev_init+0xa2>
    18a8:	e7b0      	b.n	180c <_usb_d_dev_init+0xc>
    18aa:	781a      	ldrb	r2, [r3, #0]
    18ac:	f002 02fd 	and.w	r2, r2, #253	; 0xfd
    18b0:	701a      	strb	r2, [r3, #0]
    18b2:	f04f 4282 	mov.w	r2, #1090519040	; 0x41000000
    18b6:	7893      	ldrb	r3, [r2, #2]
    18b8:	0798      	lsls	r0, r3, #30
    18ba:	d1fc      	bne.n	18b6 <_usb_d_dev_init+0xb6>
    18bc:	f04f 4282 	mov.w	r2, #1090519040	; 0x41000000
    18c0:	7893      	ldrb	r3, [r2, #2]
    18c2:	0799      	lsls	r1, r3, #30
    18c4:	d4fc      	bmi.n	18c0 <_usb_d_dev_init+0xc0>
    18c6:	e7e8      	b.n	189a <_usb_d_dev_init+0x9a>
    18c8:	2109      	movs	r1, #9
    18ca:	e7b9      	b.n	1840 <_usb_d_dev_init+0x40>
    18cc:	2319      	movs	r3, #25
    18ce:	e7bc      	b.n	184a <_usb_d_dev_init+0x4a>
    18d0:	2206      	movs	r2, #6
    18d2:	e7bf      	b.n	1854 <_usb_d_dev_init+0x54>
    18d4:	2000014c 	.word	0x2000014c
    18d8:	0000107d 	.word	0x0000107d
    18dc:	000012dd 	.word	0x000012dd
    18e0:	00800084 	.word	0x00800084
    18e4:	20000214 	.word	0x20000214

000018e8 <_usb_d_dev_ep_stall>:
    18e8:	b538      	push	{r3, r4, r5, lr}
    18ea:	09c2      	lsrs	r2, r0, #7
    18ec:	f000 050f 	and.w	r5, r0, #15
    18f0:	460c      	mov	r4, r1
    18f2:	4628      	mov	r0, r5
    18f4:	4611      	mov	r1, r2
    18f6:	4b34      	ldr	r3, [pc, #208]	; (19c8 <_usb_d_dev_ep_stall+0xe0>)
    18f8:	4798      	blx	r3
    18fa:	2d02      	cmp	r5, #2
    18fc:	d861      	bhi.n	19c2 <_usb_d_dev_ep_stall+0xda>
    18fe:	2c01      	cmp	r4, #1
    1900:	d119      	bne.n	1936 <_usb_d_dev_ep_stall+0x4e>
    1902:	7c83      	ldrb	r3, [r0, #18]
    1904:	f003 030f 	and.w	r3, r3, #15
    1908:	0159      	lsls	r1, r3, #5
    190a:	2410      	movs	r4, #16
    190c:	4094      	lsls	r4, r2
    190e:	f101 4182 	add.w	r1, r1, #1090519040	; 0x41000000
    1912:	b2e4      	uxtb	r4, r4
    1914:	f881 4105 	strb.w	r4, [r1, #261]	; 0x105
    1918:	015b      	lsls	r3, r3, #5
    191a:	2120      	movs	r1, #32
    191c:	f103 4382 	add.w	r3, r3, #1090519040	; 0x41000000
    1920:	fa01 f202 	lsl.w	r2, r1, r2
    1924:	b2d2      	uxtb	r2, r2
    1926:	f883 2109 	strb.w	r2, [r3, #265]	; 0x109
    192a:	7cc3      	ldrb	r3, [r0, #19]
    192c:	f043 0308 	orr.w	r3, r3, #8
    1930:	74c3      	strb	r3, [r0, #19]
    1932:	2000      	movs	r0, #0
    1934:	bd38      	pop	{r3, r4, r5, pc}
    1936:	bb9c      	cbnz	r4, 19a0 <_usb_d_dev_ep_stall+0xb8>
    1938:	7c81      	ldrb	r1, [r0, #18]
    193a:	f001 010f 	and.w	r1, r1, #15
    193e:	014b      	lsls	r3, r1, #5
    1940:	f103 4382 	add.w	r3, r3, #1090519040	; 0x41000000
    1944:	2410      	movs	r4, #16
    1946:	f893 5106 	ldrb.w	r5, [r3, #262]	; 0x106
    194a:	4094      	lsls	r4, r2
    194c:	4225      	tst	r5, r4
    194e:	d0f0      	beq.n	1932 <_usb_d_dev_ep_stall+0x4a>
    1950:	b2e4      	uxtb	r4, r4
    1952:	f883 4104 	strb.w	r4, [r3, #260]	; 0x104
    1956:	0149      	lsls	r1, r1, #5
    1958:	2420      	movs	r4, #32
    195a:	4094      	lsls	r4, r2
    195c:	f101 4182 	add.w	r1, r1, #1090519040	; 0x41000000
    1960:	b2e5      	uxtb	r5, r4
    1962:	f881 5108 	strb.w	r5, [r1, #264]	; 0x108
    1966:	f893 1107 	ldrb.w	r1, [r3, #263]	; 0x107
    196a:	4221      	tst	r1, r4
    196c:	d007      	beq.n	197e <_usb_d_dev_ep_stall+0x96>
    196e:	2101      	movs	r1, #1
    1970:	fa01 f202 	lsl.w	r2, r1, r2
    1974:	b2d2      	uxtb	r2, r2
    1976:	f883 5107 	strb.w	r5, [r3, #263]	; 0x107
    197a:	f883 2104 	strb.w	r2, [r3, #260]	; 0x104
    197e:	7cc2      	ldrb	r2, [r0, #19]
    1980:	f002 0107 	and.w	r1, r2, #7
    1984:	2901      	cmp	r1, #1
    1986:	d108      	bne.n	199a <_usb_d_dev_ep_stall+0xb2>
    1988:	f893 3106 	ldrb.w	r3, [r3, #262]	; 0x106
    198c:	f013 0330 	ands.w	r3, r3, #48	; 0x30
    1990:	d1cf      	bne.n	1932 <_usb_d_dev_ep_stall+0x4a>
    1992:	f363 02c3 	bfi	r2, r3, #3, #1
    1996:	74c2      	strb	r2, [r0, #19]
    1998:	e7cb      	b.n	1932 <_usb_d_dev_ep_stall+0x4a>
    199a:	f36f 02c3 	bfc	r2, #3, #1
    199e:	e7fa      	b.n	1996 <_usb_d_dev_ep_stall+0xae>
    19a0:	7c83      	ldrb	r3, [r0, #18]
    19a2:	f003 030f 	and.w	r3, r3, #15
    19a6:	015b      	lsls	r3, r3, #5
    19a8:	f103 4382 	add.w	r3, r3, #1090519040	; 0x41000000
    19ac:	f503 7380 	add.w	r3, r3, #256	; 0x100
    19b0:	2010      	movs	r0, #16
    19b2:	799b      	ldrb	r3, [r3, #6]
    19b4:	fa00 f202 	lsl.w	r2, r0, r2
    19b8:	421a      	tst	r2, r3
    19ba:	bf14      	ite	ne
    19bc:	2001      	movne	r0, #1
    19be:	2000      	moveq	r0, #0
    19c0:	bd38      	pop	{r3, r4, r5, pc}
    19c2:	f06f 0011 	mvn.w	r0, #17
    19c6:	bd38      	pop	{r3, r4, r5, pc}
    19c8:	000010a5 	.word	0x000010a5

000019cc <_usb_d_dev_ep_read_req>:
    19cc:	b530      	push	{r4, r5, lr}
    19ce:	f000 000f 	and.w	r0, r0, #15
    19d2:	4b12      	ldr	r3, [pc, #72]	; (1a1c <_usb_d_dev_ep_read_req+0x50>)
    19d4:	0142      	lsls	r2, r0, #5
    19d6:	189c      	adds	r4, r3, r2
    19d8:	589d      	ldr	r5, [r3, r2]
    19da:	6864      	ldr	r4, [r4, #4]
    19dc:	2802      	cmp	r0, #2
    19de:	f3c4 040d 	ubfx	r4, r4, #0, #14
    19e2:	d814      	bhi.n	1a0e <_usb_d_dev_ep_read_req+0x42>
    19e4:	b199      	cbz	r1, 1a0e <_usb_d_dev_ep_read_req+0x42>
    19e6:	f102 4282 	add.w	r2, r2, #1090519040	; 0x41000000
    19ea:	f892 3100 	ldrb.w	r3, [r2, #256]	; 0x100
    19ee:	2b11      	cmp	r3, #17
    19f0:	d110      	bne.n	1a14 <_usb_d_dev_ep_read_req+0x48>
    19f2:	f892 3107 	ldrb.w	r3, [r2, #263]	; 0x107
    19f6:	f013 0010 	ands.w	r0, r3, #16
    19fa:	d00d      	beq.n	1a18 <_usb_d_dev_ep_read_req+0x4c>
    19fc:	682b      	ldr	r3, [r5, #0]
    19fe:	600b      	str	r3, [r1, #0]
    1a00:	686b      	ldr	r3, [r5, #4]
    1a02:	604b      	str	r3, [r1, #4]
    1a04:	2310      	movs	r3, #16
    1a06:	f882 3107 	strb.w	r3, [r2, #263]	; 0x107
    1a0a:	4620      	mov	r0, r4
    1a0c:	bd30      	pop	{r4, r5, pc}
    1a0e:	f06f 0011 	mvn.w	r0, #17
    1a12:	bd30      	pop	{r4, r5, pc}
    1a14:	f06f 0012 	mvn.w	r0, #18
    1a18:	bd30      	pop	{r4, r5, pc}
    1a1a:	bf00      	nop
    1a1c:	20000214 	.word	0x20000214

00001a20 <_usb_d_dev_ep_trans>:
    1a20:	e92d 47f3 	stmdb	sp!, {r0, r1, r4, r5, r6, r7, r8, r9, sl, lr}
    1a24:	7a07      	ldrb	r7, [r0, #8]
    1a26:	4b3a      	ldr	r3, [pc, #232]	; (1b10 <_usb_d_dev_ep_trans+0xf0>)
    1a28:	f007 050f 	and.w	r5, r7, #15
    1a2c:	b27f      	sxtb	r7, r7
    1a2e:	ea4f 79d7 	mov.w	r9, r7, lsr #31
    1a32:	4680      	mov	r8, r0
    1a34:	4649      	mov	r1, r9
    1a36:	4628      	mov	r0, r5
    1a38:	4798      	blx	r3
    1a3a:	8a02      	ldrh	r2, [r0, #16]
    1a3c:	f8d8 1004 	ldr.w	r1, [r8, #4]
    1a40:	f240 33ff 	movw	r3, #1023	; 0x3ff
    1a44:	429a      	cmp	r2, r3
    1a46:	bf1a      	itte	ne
    1a48:	f102 33ff 	addne.w	r3, r2, #4294967295
    1a4c:	b29b      	uxthne	r3, r3
    1a4e:	4613      	moveq	r3, r2
    1a50:	2d02      	cmp	r5, #2
    1a52:	4604      	mov	r4, r0
    1a54:	ea03 0601 	and.w	r6, r3, r1
    1a58:	d828      	bhi.n	1aac <_usb_d_dev_ep_trans+0x8c>
    1a5a:	f8d8 5000 	ldr.w	r5, [r8]
    1a5e:	f1b5 5f00 	cmp.w	r5, #536870912	; 0x20000000
    1a62:	d30a      	bcc.n	1a7a <_usb_d_dev_ep_trans+0x5a>
    1a64:	4b2b      	ldr	r3, [pc, #172]	; (1b14 <_usb_d_dev_ep_trans+0xf4>)
    1a66:	1948      	adds	r0, r1, r5
    1a68:	4298      	cmp	r0, r3
    1a6a:	d806      	bhi.n	1a7a <_usb_d_dev_ep_trans+0x5a>
    1a6c:	f015 0503 	ands.w	r5, r5, #3
    1a70:	d103      	bne.n	1a7a <_usb_d_dev_ep_trans+0x5a>
    1a72:	2f00      	cmp	r7, #0
    1a74:	db05      	blt.n	1a82 <_usb_d_dev_ep_trans+0x62>
    1a76:	4291      	cmp	r1, r2
    1a78:	d214      	bcs.n	1aa4 <_usb_d_dev_ep_trans+0x84>
    1a7a:	68e3      	ldr	r3, [r4, #12]
    1a7c:	2b00      	cmp	r3, #0
    1a7e:	d041      	beq.n	1b04 <_usb_d_dev_ep_trans+0xe4>
    1a80:	2501      	movs	r5, #1
    1a82:	7ce3      	ldrb	r3, [r4, #19]
    1a84:	071b      	lsls	r3, r3, #28
    1a86:	d440      	bmi.n	1b0a <_usb_d_dev_ep_trans+0xea>
    1a88:	4b23      	ldr	r3, [pc, #140]	; (1b18 <_usb_d_dev_ep_trans+0xf8>)
    1a8a:	a801      	add	r0, sp, #4
    1a8c:	4798      	blx	r3
    1a8e:	7ce3      	ldrb	r3, [r4, #19]
    1a90:	4a22      	ldr	r2, [pc, #136]	; (1b1c <_usb_d_dev_ep_trans+0xfc>)
    1a92:	f013 0a40 	ands.w	sl, r3, #64	; 0x40
    1a96:	d00e      	beq.n	1ab6 <_usb_d_dev_ep_trans+0x96>
    1a98:	a801      	add	r0, sp, #4
    1a9a:	4790      	blx	r2
    1a9c:	2001      	movs	r0, #1
    1a9e:	b002      	add	sp, #8
    1aa0:	e8bd 87f0 	ldmia.w	sp!, {r4, r5, r6, r7, r8, r9, sl, pc}
    1aa4:	b12e      	cbz	r6, 1ab2 <_usb_d_dev_ep_trans+0x92>
    1aa6:	68e3      	ldr	r3, [r4, #12]
    1aa8:	2b00      	cmp	r3, #0
    1aaa:	d1ea      	bne.n	1a82 <_usb_d_dev_ep_trans+0x62>
    1aac:	f06f 0011 	mvn.w	r0, #17
    1ab0:	e7f5      	b.n	1a9e <_usb_d_dev_ep_trans+0x7e>
    1ab2:	4635      	mov	r5, r6
    1ab4:	e7e5      	b.n	1a82 <_usb_d_dev_ep_trans+0x62>
    1ab6:	f043 0340 	orr.w	r3, r3, #64	; 0x40
    1aba:	74e3      	strb	r3, [r4, #19]
    1abc:	a801      	add	r0, sp, #4
    1abe:	4790      	blx	r2
    1ac0:	f8d8 3000 	ldr.w	r3, [r8]
    1ac4:	6023      	str	r3, [r4, #0]
    1ac6:	f8d8 3004 	ldr.w	r3, [r8, #4]
    1aca:	6063      	str	r3, [r4, #4]
    1acc:	7ce3      	ldrb	r3, [r4, #19]
    1ace:	f8c4 a008 	str.w	sl, [r4, #8]
    1ad2:	f369 13c7 	bfi	r3, r9, #7, #1
    1ad6:	f365 1345 	bfi	r3, r5, #5, #1
    1ada:	74e3      	strb	r3, [r4, #19]
    1adc:	f898 3009 	ldrb.w	r3, [r8, #9]
    1ae0:	b113      	cbz	r3, 1ae8 <_usb_d_dev_ep_trans+0xc8>
    1ae2:	fab6 f386 	clz	r3, r6
    1ae6:	095b      	lsrs	r3, r3, #5
    1ae8:	7ce2      	ldrb	r2, [r4, #19]
    1aea:	2f00      	cmp	r7, #0
    1aec:	f363 1204 	bfi	r2, r3, #4, #1
    1af0:	4620      	mov	r0, r4
    1af2:	74e2      	strb	r2, [r4, #19]
    1af4:	f04f 0100 	mov.w	r1, #0
    1af8:	bfb4      	ite	lt
    1afa:	4b09      	ldrlt	r3, [pc, #36]	; (1b20 <_usb_d_dev_ep_trans+0x100>)
    1afc:	4b09      	ldrge	r3, [pc, #36]	; (1b24 <_usb_d_dev_ep_trans+0x104>)
    1afe:	4798      	blx	r3
    1b00:	2000      	movs	r0, #0
    1b02:	e7cc      	b.n	1a9e <_usb_d_dev_ep_trans+0x7e>
    1b04:	f06f 0012 	mvn.w	r0, #18
    1b08:	e7c9      	b.n	1a9e <_usb_d_dev_ep_trans+0x7e>
    1b0a:	2002      	movs	r0, #2
    1b0c:	e7c7      	b.n	1a9e <_usb_d_dev_ep_trans+0x7e>
    1b0e:	bf00      	nop
    1b10:	000010a5 	.word	0x000010a5
    1b14:	20031fff 	.word	0x20031fff
    1b18:	00000381 	.word	0x00000381
    1b1c:	0000038f 	.word	0x0000038f
    1b20:	00001319 	.word	0x00001319
    1b24:	00001471 	.word	0x00001471

00001b28 <_usb_d_dev_register_ep_callback>:
    1b28:	4b08      	ldr	r3, [pc, #32]	; (1b4c <_usb_d_dev_register_ep_callback+0x24>)
    1b2a:	2900      	cmp	r1, #0
    1b2c:	bf08      	it	eq
    1b2e:	4619      	moveq	r1, r3
    1b30:	b910      	cbnz	r0, 1b38 <_usb_d_dev_register_ep_callback+0x10>
    1b32:	4b07      	ldr	r3, [pc, #28]	; (1b50 <_usb_d_dev_register_ep_callback+0x28>)
    1b34:	6099      	str	r1, [r3, #8]
    1b36:	4770      	bx	lr
    1b38:	2801      	cmp	r0, #1
    1b3a:	d102      	bne.n	1b42 <_usb_d_dev_register_ep_callback+0x1a>
    1b3c:	4b04      	ldr	r3, [pc, #16]	; (1b50 <_usb_d_dev_register_ep_callback+0x28>)
    1b3e:	60d9      	str	r1, [r3, #12]
    1b40:	4770      	bx	lr
    1b42:	2802      	cmp	r0, #2
    1b44:	bf04      	itt	eq
    1b46:	4b02      	ldreq	r3, [pc, #8]	; (1b50 <_usb_d_dev_register_ep_callback+0x28>)
    1b48:	6119      	streq	r1, [r3, #16]
    1b4a:	4770      	bx	lr
    1b4c:	0000107d 	.word	0x0000107d
    1b50:	2000014c 	.word	0x2000014c

00001b54 <USB_0_Handler>:
    1b54:	4b00      	ldr	r3, [pc, #0]	; (1b58 <USB_0_Handler+0x4>)
    1b56:	4718      	bx	r3
    1b58:	0000161d 	.word	0x0000161d

00001b5c <USB_1_Handler>:
    1b5c:	4b00      	ldr	r3, [pc, #0]	; (1b60 <USB_1_Handler+0x4>)
    1b5e:	4718      	bx	r3
    1b60:	0000161d 	.word	0x0000161d

00001b64 <USB_2_Handler>:
    1b64:	4b00      	ldr	r3, [pc, #0]	; (1b68 <USB_2_Handler+0x4>)
    1b66:	4718      	bx	r3
    1b68:	0000161d 	.word	0x0000161d

00001b6c <USB_3_Handler>:
    1b6c:	4b00      	ldr	r3, [pc, #0]	; (1b70 <USB_3_Handler+0x4>)
    1b6e:	4718      	bx	r3
    1b70:	0000161d 	.word	0x0000161d

00001b74 <_wdt_init>:
    1b74:	6803      	ldr	r3, [r0, #0]
    1b76:	689a      	ldr	r2, [r3, #8]
    1b78:	f012 0f0e 	tst.w	r2, #14
    1b7c:	d1fb      	bne.n	1b76 <_wdt_init+0x2>
    1b7e:	781a      	ldrb	r2, [r3, #0]
    1b80:	09d2      	lsrs	r2, r2, #7
    1b82:	d113      	bne.n	1bac <_wdt_init+0x38>
    1b84:	689a      	ldr	r2, [r3, #8]
    1b86:	f012 0f0e 	tst.w	r2, #14
    1b8a:	d1fb      	bne.n	1b84 <_wdt_init+0x10>
    1b8c:	781a      	ldrb	r2, [r3, #0]
    1b8e:	0792      	lsls	r2, r2, #30
    1b90:	d40c      	bmi.n	1bac <_wdt_init+0x38>
    1b92:	781a      	ldrb	r2, [r3, #0]
    1b94:	f002 02fb 	and.w	r2, r2, #251	; 0xfb
    1b98:	701a      	strb	r2, [r3, #0]
    1b9a:	6898      	ldr	r0, [r3, #8]
    1b9c:	f010 000e 	ands.w	r0, r0, #14
    1ba0:	d1fb      	bne.n	1b9a <_wdt_init+0x26>
    1ba2:	785a      	ldrb	r2, [r3, #1]
    1ba4:	f002 02f0 	and.w	r2, r2, #240	; 0xf0
    1ba8:	705a      	strb	r2, [r3, #1]
    1baa:	4770      	bx	lr
    1bac:	f06f 0010 	mvn.w	r0, #16
    1bb0:	4770      	bx	lr
	...

00001bb4 <nv_init>:
    1bb4:	4b01      	ldr	r3, [pc, #4]	; (1bbc <nv_init+0x8>)
    1bb6:	6018      	str	r0, [r3, #0]
    1bb8:	4770      	bx	lr
    1bba:	bf00      	nop
    1bbc:	20000334 	.word	0x20000334

00001bc0 <nv_write>:
    1bc0:	3010      	adds	r0, #16
    1bc2:	b410      	push	{r4}
    1bc4:	eb01 3100 	add.w	r1, r1, r0, lsl #12
    1bc8:	4c03      	ldr	r4, [pc, #12]	; (1bd8 <nv_write+0x18>)
    1bca:	4804      	ldr	r0, [pc, #16]	; (1bdc <nv_write+0x1c>)
    1bcc:	46a4      	mov	ip, r4
    1bce:	6800      	ldr	r0, [r0, #0]
    1bd0:	f85d 4b04 	ldr.w	r4, [sp], #4
    1bd4:	4760      	bx	ip
    1bd6:	bf00      	nop
    1bd8:	000004a5 	.word	0x000004a5
    1bdc:	20000334 	.word	0x20000334

00001be0 <nv_read>:
    1be0:	3010      	adds	r0, #16
    1be2:	b410      	push	{r4}
    1be4:	eb01 3100 	add.w	r1, r1, r0, lsl #12
    1be8:	4c03      	ldr	r4, [pc, #12]	; (1bf8 <nv_read+0x18>)
    1bea:	4804      	ldr	r0, [pc, #16]	; (1bfc <nv_read+0x1c>)
    1bec:	46a4      	mov	ip, r4
    1bee:	6800      	ldr	r0, [r0, #0]
    1bf0:	f85d 4b04 	ldr.w	r4, [sp], #4
    1bf4:	4760      	bx	ip
    1bf6:	bf00      	nop
    1bf8:	00000459 	.word	0x00000459
    1bfc:	20000334 	.word	0x20000334

00001c00 <nv_erase_sector>:
    1c00:	4b09      	ldr	r3, [pc, #36]	; (1c28 <nv_erase_sector+0x28>)
    1c02:	b570      	push	{r4, r5, r6, lr}
    1c04:	681d      	ldr	r5, [r3, #0]
    1c06:	4b09      	ldr	r3, [pc, #36]	; (1c2c <nv_erase_sector+0x2c>)
    1c08:	4604      	mov	r4, r0
    1c0a:	4628      	mov	r0, r5
    1c0c:	4798      	blx	r3
    1c0e:	f104 0110 	add.w	r1, r4, #16
    1c12:	f44f 5280 	mov.w	r2, #4096	; 0x1000
    1c16:	0309      	lsls	r1, r1, #12
    1c18:	fbb2 f2f0 	udiv	r2, r2, r0
    1c1c:	4b04      	ldr	r3, [pc, #16]	; (1c30 <nv_erase_sector+0x30>)
    1c1e:	4628      	mov	r0, r5
    1c20:	e8bd 4070 	ldmia.w	sp!, {r4, r5, r6, lr}
    1c24:	4718      	bx	r3
    1c26:	bf00      	nop
    1c28:	20000334 	.word	0x20000334
    1c2c:	00000569 	.word	0x00000569
    1c30:	00000509 	.word	0x00000509

00001c34 <nv_is_equal>:
    1c34:	e92d 4ff0 	stmdb	sp!, {r4, r5, r6, r7, r8, r9, sl, fp, lr}
    1c38:	3010      	adds	r0, #16
    1c3a:	f8df 9050 	ldr.w	r9, [pc, #80]	; 1c8c <nv_is_equal+0x58>
    1c3e:	f8df a050 	ldr.w	sl, [pc, #80]	; 1c90 <nv_is_equal+0x5c>
    1c42:	f8df b050 	ldr.w	fp, [pc, #80]	; 1c94 <nv_is_equal+0x60>
    1c46:	b091      	sub	sp, #68	; 0x44
    1c48:	4690      	mov	r8, r2
    1c4a:	461f      	mov	r7, r3
    1c4c:	eb01 3600 	add.w	r6, r1, r0, lsl #12
    1c50:	2500      	movs	r5, #0
    1c52:	42bd      	cmp	r5, r7
    1c54:	d103      	bne.n	1c5e <nv_is_equal+0x2a>
    1c56:	2001      	movs	r0, #1
    1c58:	b011      	add	sp, #68	; 0x44
    1c5a:	e8bd 8ff0 	ldmia.w	sp!, {r4, r5, r6, r7, r8, r9, sl, fp, pc}
    1c5e:	1b7c      	subs	r4, r7, r5
    1c60:	2c40      	cmp	r4, #64	; 0x40
    1c62:	bfa8      	it	ge
    1c64:	2440      	movge	r4, #64	; 0x40
    1c66:	b2e4      	uxtb	r4, r4
    1c68:	466a      	mov	r2, sp
    1c6a:	1971      	adds	r1, r6, r5
    1c6c:	4623      	mov	r3, r4
    1c6e:	f8d9 0000 	ldr.w	r0, [r9]
    1c72:	47d0      	blx	sl
    1c74:	4622      	mov	r2, r4
    1c76:	4669      	mov	r1, sp
    1c78:	eb08 0005 	add.w	r0, r8, r5
    1c7c:	47d8      	blx	fp
    1c7e:	b910      	cbnz	r0, 1c86 <nv_is_equal+0x52>
    1c80:	4425      	add	r5, r4
    1c82:	b2ad      	uxth	r5, r5
    1c84:	e7e5      	b.n	1c52 <nv_is_equal+0x1e>
    1c86:	2000      	movs	r0, #0
    1c88:	e7e6      	b.n	1c58 <nv_is_equal+0x24>
    1c8a:	bf00      	nop
    1c8c:	20000334 	.word	0x20000334
    1c90:	00000459 	.word	0x00000459
    1c94:	00002ef1 	.word	0x00002ef1

00001c98 <nv_is_empty>:
    1c98:	e92d 43f0 	stmdb	sp!, {r4, r5, r6, r7, r8, r9, lr}
    1c9c:	3010      	adds	r0, #16
    1c9e:	b091      	sub	sp, #68	; 0x44
    1ca0:	eb01 3600 	add.w	r6, r1, r0, lsl #12
    1ca4:	4617      	mov	r7, r2
    1ca6:	21ff      	movs	r1, #255	; 0xff
    1ca8:	2240      	movs	r2, #64	; 0x40
    1caa:	4668      	mov	r0, sp
    1cac:	4b12      	ldr	r3, [pc, #72]	; (1cf8 <nv_is_empty+0x60>)
    1cae:	f8df 804c 	ldr.w	r8, [pc, #76]	; 1cfc <nv_is_empty+0x64>
    1cb2:	f8df 904c 	ldr.w	r9, [pc, #76]	; 1d00 <nv_is_empty+0x68>
    1cb6:	4798      	blx	r3
    1cb8:	2500      	movs	r5, #0
    1cba:	42bd      	cmp	r5, r7
    1cbc:	d103      	bne.n	1cc6 <nv_is_empty+0x2e>
    1cbe:	2001      	movs	r0, #1
    1cc0:	b011      	add	sp, #68	; 0x44
    1cc2:	e8bd 83f0 	ldmia.w	sp!, {r4, r5, r6, r7, r8, r9, pc}
    1cc6:	1b7b      	subs	r3, r7, r5
    1cc8:	2b40      	cmp	r3, #64	; 0x40
    1cca:	bfa8      	it	ge
    1ccc:	2340      	movge	r3, #64	; 0x40
    1cce:	b2dc      	uxtb	r4, r3
    1cd0:	4623      	mov	r3, r4
    1cd2:	466a      	mov	r2, sp
    1cd4:	19a9      	adds	r1, r5, r6
    1cd6:	f8d8 0000 	ldr.w	r0, [r8]
    1cda:	47c8      	blx	r9
    1cdc:	2300      	movs	r3, #0
    1cde:	f81d 2003 	ldrb.w	r2, [sp, r3]
    1ce2:	2aff      	cmp	r2, #255	; 0xff
    1ce4:	d105      	bne.n	1cf2 <nv_is_empty+0x5a>
    1ce6:	3301      	adds	r3, #1
    1ce8:	2b40      	cmp	r3, #64	; 0x40
    1cea:	d1f8      	bne.n	1cde <nv_is_empty+0x46>
    1cec:	192b      	adds	r3, r5, r4
    1cee:	b29d      	uxth	r5, r3
    1cf0:	e7e3      	b.n	1cba <nv_is_empty+0x22>
    1cf2:	2000      	movs	r0, #0
    1cf4:	e7e4      	b.n	1cc0 <nv_is_empty+0x28>
    1cf6:	bf00      	nop
    1cf8:	00002f25 	.word	0x00002f25
    1cfc:	20000334 	.word	0x20000334
    1d00:	00000459 	.word	0x00000459

00001d04 <nv_align_next_access_address>:
    1d04:	2901      	cmp	r1, #1
    1d06:	bf02      	ittt	eq
    1d08:	307f      	addeq	r0, #127	; 0x7f
    1d0a:	f020 007f 	biceq.w	r0, r0, #127	; 0x7f
    1d0e:	b280      	uxtheq	r0, r0
    1d10:	4770      	bx	lr
	...

00001d14 <find_item>:
    1d14:	4b0a      	ldr	r3, [pc, #40]	; (1d40 <find_item+0x2c>)
    1d16:	b530      	push	{r4, r5, lr}
    1d18:	8d5c      	ldrh	r4, [r3, #42]	; 0x2a
    1d1a:	2200      	movs	r2, #0
    1d1c:	b291      	uxth	r1, r2
    1d1e:	428c      	cmp	r4, r1
    1d20:	d801      	bhi.n	1d26 <find_item+0x12>
    1d22:	2000      	movs	r0, #0
    1d24:	bd30      	pop	{r4, r5, pc}
    1d26:	1c51      	adds	r1, r2, #1
    1d28:	eb03 0581 	add.w	r5, r3, r1, lsl #2
    1d2c:	f835 5c02 	ldrh.w	r5, [r5, #-2]
    1d30:	4285      	cmp	r5, r0
    1d32:	d103      	bne.n	1d3c <find_item+0x28>
    1d34:	eb03 0082 	add.w	r0, r3, r2, lsl #2
    1d38:	3002      	adds	r0, #2
    1d3a:	bd30      	pop	{r4, r5, pc}
    1d3c:	460a      	mov	r2, r1
    1d3e:	e7ed      	b.n	1d1c <find_item+0x8>
    1d40:	20000338 	.word	0x20000338

00001d44 <calculate_block_header_checksum>:
    1d44:	1c41      	adds	r1, r0, #1
    1d46:	f100 020b 	add.w	r2, r0, #11
    1d4a:	f64f 70ff 	movw	r0, #65535	; 0xffff
    1d4e:	f811 3f01 	ldrb.w	r3, [r1, #1]!
    1d52:	ea83 2310 	eor.w	r3, r3, r0, lsr #8
    1d56:	ea83 1313 	eor.w	r3, r3, r3, lsr #4
    1d5a:	ea43 2000 	orr.w	r0, r3, r0, lsl #8
    1d5e:	ea80 3003 	eor.w	r0, r0, r3, lsl #12
    1d62:	ea80 1043 	eor.w	r0, r0, r3, lsl #5
    1d66:	428a      	cmp	r2, r1
    1d68:	b280      	uxth	r0, r0
    1d6a:	d1f0      	bne.n	1d4e <calculate_block_header_checksum+0xa>
    1d6c:	4770      	bx	lr
	...

00001d70 <write_and_verify>:
    1d70:	e92d 41f0 	stmdb	sp!, {r4, r5, r6, r7, r8, lr}
    1d74:	4604      	mov	r4, r0
    1d76:	f8df 8020 	ldr.w	r8, [pc, #32]	; 1d98 <write_and_verify+0x28>
    1d7a:	460d      	mov	r5, r1
    1d7c:	4616      	mov	r6, r2
    1d7e:	461f      	mov	r7, r3
    1d80:	47c0      	blx	r8
    1d82:	4620      	mov	r0, r4
    1d84:	4c03      	ldr	r4, [pc, #12]	; (1d94 <write_and_verify+0x24>)
    1d86:	463b      	mov	r3, r7
    1d88:	4632      	mov	r2, r6
    1d8a:	4629      	mov	r1, r5
    1d8c:	46a4      	mov	ip, r4
    1d8e:	e8bd 41f0 	ldmia.w	sp!, {r4, r5, r6, r7, r8, lr}
    1d92:	4760      	bx	ip
    1d94:	00001c35 	.word	0x00001c35
    1d98:	00001bc1 	.word	0x00001bc1

00001d9c <create_sector>:
    1d9c:	e92d 41ff 	stmdb	sp!, {r0, r1, r2, r3, r4, r5, r6, r7, r8, lr}
    1da0:	4688      	mov	r8, r1
    1da2:	4617      	mov	r7, r2
    1da4:	2100      	movs	r1, #0
    1da6:	f44f 5280 	mov.w	r2, #4096	; 0x1000
    1daa:	4c21      	ldr	r4, [pc, #132]	; (1e30 <create_sector+0x94>)
    1dac:	f88d 1003 	strb.w	r1, [sp, #3]
    1db0:	4605      	mov	r5, r0
    1db2:	47a0      	blx	r4
    1db4:	4606      	mov	r6, r0
    1db6:	b1d8      	cbz	r0, 1df0 <create_sector+0x54>
    1db8:	4b1e      	ldr	r3, [pc, #120]	; (1e34 <create_sector+0x98>)
    1dba:	4e1f      	ldr	r6, [pc, #124]	; (1e38 <create_sector+0x9c>)
    1dbc:	681a      	ldr	r2, [r3, #0]
    1dbe:	f8cd 2009 	str.w	r2, [sp, #9]
    1dc2:	889a      	ldrh	r2, [r3, #4]
    1dc4:	799b      	ldrb	r3, [r3, #6]
    1dc6:	f88d 300f 	strb.w	r3, [sp, #15]
    1dca:	23ff      	movs	r3, #255	; 0xff
    1dcc:	f8ad 200d 	strh.w	r2, [sp, #13]
    1dd0:	f88d 3004 	strb.w	r3, [sp, #4]
    1dd4:	aa01      	add	r2, sp, #4
    1dd6:	230c      	movs	r3, #12
    1dd8:	2100      	movs	r1, #0
    1dda:	4628      	mov	r0, r5
    1ddc:	f8cd 8005 	str.w	r8, [sp, #5]
    1de0:	47b0      	blx	r6
    1de2:	4604      	mov	r4, r0
    1de4:	b978      	cbnz	r0, 1e06 <create_sector+0x6a>
    1de6:	2400      	movs	r4, #0
    1de8:	4620      	mov	r0, r4
    1dea:	b004      	add	sp, #16
    1dec:	e8bd 81f0 	ldmia.w	sp!, {r4, r5, r6, r7, r8, pc}
    1df0:	4628      	mov	r0, r5
    1df2:	4b12      	ldr	r3, [pc, #72]	; (1e3c <create_sector+0xa0>)
    1df4:	4798      	blx	r3
    1df6:	f44f 5280 	mov.w	r2, #4096	; 0x1000
    1dfa:	4631      	mov	r1, r6
    1dfc:	4628      	mov	r0, r5
    1dfe:	47a0      	blx	r4
    1e00:	2800      	cmp	r0, #0
    1e02:	d1d9      	bne.n	1db8 <create_sector+0x1c>
    1e04:	e7ef      	b.n	1de6 <create_sector+0x4a>
    1e06:	2f00      	cmp	r7, #0
    1e08:	d0ee      	beq.n	1de8 <create_sector+0x4c>
    1e0a:	2301      	movs	r3, #1
    1e0c:	f10d 0203 	add.w	r2, sp, #3
    1e10:	2100      	movs	r1, #0
    1e12:	4628      	mov	r0, r5
    1e14:	47b0      	blx	r6
    1e16:	4604      	mov	r4, r0
    1e18:	2800      	cmp	r0, #0
    1e1a:	d0e4      	beq.n	1de6 <create_sector+0x4a>
    1e1c:	4e08      	ldr	r6, [pc, #32]	; (1e40 <create_sector+0xa4>)
    1e1e:	4b09      	ldr	r3, [pc, #36]	; (1e44 <create_sector+0xa8>)
    1e20:	200c      	movs	r0, #12
    1e22:	2100      	movs	r1, #0
    1e24:	8030      	strh	r0, [r6, #0]
    1e26:	4798      	blx	r3
    1e28:	f886 502c 	strb.w	r5, [r6, #44]	; 0x2c
    1e2c:	8030      	strh	r0, [r6, #0]
    1e2e:	e7db      	b.n	1de8 <create_sector+0x4c>
    1e30:	00001c99 	.word	0x00001c99
    1e34:	00004058 	.word	0x00004058
    1e38:	00001d71 	.word	0x00001d71
    1e3c:	00001c01 	.word	0x00001c01
    1e40:	20000338 	.word	0x20000338
    1e44:	00001d05 	.word	0x00001d05

00001e48 <nv_storage_init>:
    1e48:	e92d 4ff0 	stmdb	sp!, {r4, r5, r6, r7, r8, r9, sl, fp, lr}
    1e4c:	4f49      	ldr	r7, [pc, #292]	; (1f74 <nv_storage_init+0x12c>)
    1e4e:	f8df a140 	ldr.w	sl, [pc, #320]	; 1f90 <nv_storage_init+0x148>
    1e52:	2500      	movs	r5, #0
    1e54:	b089      	sub	sp, #36	; 0x24
    1e56:	462c      	mov	r4, r5
    1e58:	26ff      	movs	r6, #255	; 0xff
    1e5a:	46b9      	mov	r9, r7
    1e5c:	fa5f f885 	uxtb.w	r8, r5
    1e60:	230c      	movs	r3, #12
    1e62:	aa01      	add	r2, sp, #4
    1e64:	2100      	movs	r1, #0
    1e66:	4640      	mov	r0, r8
    1e68:	47b8      	blx	r7
    1e6a:	f89d 3004 	ldrb.w	r3, [sp, #4]
    1e6e:	b963      	cbnz	r3, 1e8a <nv_storage_init+0x42>
    1e70:	2207      	movs	r2, #7
    1e72:	4651      	mov	r1, sl
    1e74:	f10d 0009 	add.w	r0, sp, #9
    1e78:	4b3f      	ldr	r3, [pc, #252]	; (1f78 <nv_storage_init+0x130>)
    1e7a:	4798      	blx	r3
    1e7c:	b928      	cbnz	r0, 1e8a <nv_storage_init+0x42>
    1e7e:	f8dd 3005 	ldr.w	r3, [sp, #5]
    1e82:	42a3      	cmp	r3, r4
    1e84:	bf24      	itt	cs
    1e86:	461c      	movcs	r4, r3
    1e88:	4646      	movcs	r6, r8
    1e8a:	3501      	adds	r5, #1
    1e8c:	2d02      	cmp	r5, #2
    1e8e:	d1e5      	bne.n	1e5c <nv_storage_init+0x14>
    1e90:	2eff      	cmp	r6, #255	; 0xff
    1e92:	d10d      	bne.n	1eb0 <nv_storage_init+0x68>
    1e94:	3401      	adds	r4, #1
    1e96:	2201      	movs	r2, #1
    1e98:	4621      	mov	r1, r4
    1e9a:	2000      	movs	r0, #0
    1e9c:	4d37      	ldr	r5, [pc, #220]	; (1f7c <nv_storage_init+0x134>)
    1e9e:	47a8      	blx	r5
    1ea0:	b918      	cbnz	r0, 1eaa <nv_storage_init+0x62>
    1ea2:	2201      	movs	r2, #1
    1ea4:	4621      	mov	r1, r4
    1ea6:	4610      	mov	r0, r2
    1ea8:	47a8      	blx	r5
    1eaa:	b009      	add	sp, #36	; 0x24
    1eac:	e8bd 8ff0 	ldmia.w	sp!, {r4, r5, r6, r7, r8, r9, sl, fp, pc}
    1eb0:	4c33      	ldr	r4, [pc, #204]	; (1f80 <nv_storage_init+0x138>)
    1eb2:	4d34      	ldr	r5, [pc, #208]	; (1f84 <nv_storage_init+0x13c>)
    1eb4:	f884 602c 	strb.w	r6, [r4, #44]	; 0x2c
    1eb8:	2100      	movs	r1, #0
    1eba:	200c      	movs	r0, #12
    1ebc:	47a8      	blx	r5
    1ebe:	f106 0710 	add.w	r7, r6, #16
    1ec2:	033f      	lsls	r7, r7, #12
    1ec4:	8020      	strh	r0, [r4, #0]
    1ec6:	f607 7aff 	addw	sl, r7, #4095	; 0xfff
    1eca:	f10d 0810 	add.w	r8, sp, #16
    1ece:	230e      	movs	r3, #14
    1ed0:	4642      	mov	r2, r8
    1ed2:	8821      	ldrh	r1, [r4, #0]
    1ed4:	4630      	mov	r0, r6
    1ed6:	47c8      	blx	r9
    1ed8:	2300      	movs	r3, #0
    1eda:	f818 2003 	ldrb.w	r2, [r8, r3]
    1ede:	2aff      	cmp	r2, #255	; 0xff
    1ee0:	d134      	bne.n	1f4c <nv_storage_init+0x104>
    1ee2:	3301      	adds	r3, #1
    1ee4:	2b0e      	cmp	r3, #14
    1ee6:	d1f8      	bne.n	1eda <nv_storage_init+0x92>
    1ee8:	e7df      	b.n	1eaa <nv_storage_init+0x62>
    1eea:	8820      	ldrh	r0, [r4, #0]
    1eec:	300e      	adds	r0, #14
    1eee:	2101      	movs	r1, #1
    1ef0:	b280      	uxth	r0, r0
    1ef2:	47a8      	blx	r5
    1ef4:	8020      	strh	r0, [r4, #0]
    1ef6:	e7ea      	b.n	1ece <nv_storage_init+0x86>
    1ef8:	f8bd b012 	ldrh.w	fp, [sp, #18]
    1efc:	4b22      	ldr	r3, [pc, #136]	; (1f88 <nv_storage_init+0x140>)
    1efe:	4658      	mov	r0, fp
    1f00:	4798      	blx	r3
    1f02:	b940      	cbnz	r0, 1f16 <nv_storage_init+0xce>
    1f04:	8d63      	ldrh	r3, [r4, #42]	; 0x2a
    1f06:	1c59      	adds	r1, r3, #1
    1f08:	009b      	lsls	r3, r3, #2
    1f0a:	1c98      	adds	r0, r3, #2
    1f0c:	4423      	add	r3, r4
    1f0e:	8561      	strh	r1, [r4, #42]	; 0x2a
    1f10:	4420      	add	r0, r4
    1f12:	f8a3 b002 	strh.w	fp, [r3, #2]
    1f16:	f8bd 3018 	ldrh.w	r3, [sp, #24]
    1f1a:	b943      	cbnz	r3, 1f2e <nv_storage_init+0xe6>
    1f1c:	8d63      	ldrh	r3, [r4, #42]	; 0x2a
    1f1e:	3b01      	subs	r3, #1
    1f20:	b29b      	uxth	r3, r3
    1f22:	8563      	strh	r3, [r4, #42]	; 0x2a
    1f24:	eb04 0383 	add.w	r3, r4, r3, lsl #2
    1f28:	f8d3 3002 	ldr.w	r3, [r3, #2]
    1f2c:	6003      	str	r3, [r0, #0]
    1f2e:	8823      	ldrh	r3, [r4, #0]
    1f30:	8043      	strh	r3, [r0, #2]
    1f32:	f8bd 0016 	ldrh.w	r0, [sp, #22]
    1f36:	4418      	add	r0, r3
    1f38:	300e      	adds	r0, #14
    1f3a:	b280      	uxth	r0, r0
    1f3c:	2101      	movs	r1, #1
    1f3e:	8020      	strh	r0, [r4, #0]
    1f40:	47a8      	blx	r5
    1f42:	8020      	strh	r0, [r4, #0]
    1f44:	4438      	add	r0, r7
    1f46:	4550      	cmp	r0, sl
    1f48:	d3c1      	bcc.n	1ece <nv_storage_init+0x86>
    1f4a:	e7ae      	b.n	1eaa <nv_storage_init+0x62>
    1f4c:	4640      	mov	r0, r8
    1f4e:	4b0f      	ldr	r3, [pc, #60]	; (1f8c <nv_storage_init+0x144>)
    1f50:	f8bd b01c 	ldrh.w	fp, [sp, #28]
    1f54:	4798      	blx	r3
    1f56:	4583      	cmp	fp, r0
    1f58:	d1c7      	bne.n	1eea <nv_storage_init+0xa2>
    1f5a:	f8bd 3010 	ldrh.w	r3, [sp, #16]
    1f5e:	2b00      	cmp	r3, #0
    1f60:	d0ca      	beq.n	1ef8 <nv_storage_init+0xb0>
    1f62:	8820      	ldrh	r0, [r4, #0]
    1f64:	f8bd 3016 	ldrh.w	r3, [sp, #22]
    1f68:	4418      	add	r0, r3
    1f6a:	300e      	adds	r0, #14
    1f6c:	b280      	uxth	r0, r0
    1f6e:	8020      	strh	r0, [r4, #0]
    1f70:	2101      	movs	r1, #1
    1f72:	e7be      	b.n	1ef2 <nv_storage_init+0xaa>
    1f74:	00001be1 	.word	0x00001be1
    1f78:	00002ef1 	.word	0x00002ef1
    1f7c:	00001d9d 	.word	0x00001d9d
    1f80:	20000338 	.word	0x20000338
    1f84:	00001d05 	.word	0x00001d05
    1f88:	00001d15 	.word	0x00001d15
    1f8c:	00001d45 	.word	0x00001d45
    1f90:	00004058 	.word	0x00004058

00001f94 <_read>:
    1f94:	b508      	push	{r3, lr}
    1f96:	460b      	mov	r3, r1
    1f98:	b930      	cbnz	r0, 1fa8 <_read+0x14>
    1f9a:	4611      	mov	r1, r2
    1f9c:	4618      	mov	r0, r3
    1f9e:	4b04      	ldr	r3, [pc, #16]	; (1fb0 <_read+0x1c>)
    1fa0:	4798      	blx	r3
    1fa2:	ea40 70e0 	orr.w	r0, r0, r0, asr #31
    1fa6:	bd08      	pop	{r3, pc}
    1fa8:	f04f 30ff 	mov.w	r0, #4294967295
    1fac:	bd08      	pop	{r3, pc}
    1fae:	bf00      	nop
    1fb0:	00002005 	.word	0x00002005

00001fb4 <_write>:
    1fb4:	3801      	subs	r0, #1
    1fb6:	2802      	cmp	r0, #2
    1fb8:	b508      	push	{r3, lr}
    1fba:	460b      	mov	r3, r1
    1fbc:	d806      	bhi.n	1fcc <_write+0x18>
    1fbe:	4611      	mov	r1, r2
    1fc0:	4618      	mov	r0, r3
    1fc2:	4b04      	ldr	r3, [pc, #16]	; (1fd4 <_write+0x20>)
    1fc4:	4798      	blx	r3
    1fc6:	ea40 70e0 	orr.w	r0, r0, r0, asr #31
    1fca:	bd08      	pop	{r3, pc}
    1fcc:	f04f 30ff 	mov.w	r0, #4294967295
    1fd0:	bd08      	pop	{r3, pc}
    1fd2:	bf00      	nop
    1fd4:	00002021 	.word	0x00002021

00001fd8 <stdio_io_init>:
    1fd8:	b570      	push	{r4, r5, r6, lr}
    1fda:	4d07      	ldr	r5, [pc, #28]	; (1ff8 <stdio_io_init+0x20>)
    1fdc:	4c07      	ldr	r4, [pc, #28]	; (1ffc <stdio_io_init+0x24>)
    1fde:	682b      	ldr	r3, [r5, #0]
    1fe0:	4606      	mov	r6, r0
    1fe2:	2100      	movs	r1, #0
    1fe4:	6898      	ldr	r0, [r3, #8]
    1fe6:	47a0      	blx	r4
    1fe8:	682b      	ldr	r3, [r5, #0]
    1fea:	2100      	movs	r1, #0
    1fec:	6858      	ldr	r0, [r3, #4]
    1fee:	47a0      	blx	r4
    1ff0:	4b03      	ldr	r3, [pc, #12]	; (2000 <stdio_io_init+0x28>)
    1ff2:	601e      	str	r6, [r3, #0]
    1ff4:	bd70      	pop	{r4, r5, r6, pc}
    1ff6:	bf00      	nop
    1ff8:	20000038 	.word	0x20000038
    1ffc:	00002fd9 	.word	0x00002fd9
    2000:	20000368 	.word	0x20000368

00002004 <stdio_io_read>:
    2004:	4a04      	ldr	r2, [pc, #16]	; (2018 <stdio_io_read+0x14>)
    2006:	4603      	mov	r3, r0
    2008:	6810      	ldr	r0, [r2, #0]
    200a:	b118      	cbz	r0, 2014 <stdio_io_read+0x10>
    200c:	b28a      	uxth	r2, r1
    200e:	4619      	mov	r1, r3
    2010:	4b02      	ldr	r3, [pc, #8]	; (201c <stdio_io_read+0x18>)
    2012:	4718      	bx	r3
    2014:	4770      	bx	lr
    2016:	bf00      	nop
    2018:	20000368 	.word	0x20000368
    201c:	00000575 	.word	0x00000575

00002020 <stdio_io_write>:
    2020:	4a04      	ldr	r2, [pc, #16]	; (2034 <stdio_io_write+0x14>)
    2022:	4603      	mov	r3, r0
    2024:	6810      	ldr	r0, [r2, #0]
    2026:	b118      	cbz	r0, 2030 <stdio_io_write+0x10>
    2028:	b28a      	uxth	r2, r1
    202a:	4619      	mov	r1, r3
    202c:	4b02      	ldr	r3, [pc, #8]	; (2038 <stdio_io_write+0x18>)
    202e:	4718      	bx	r3
    2030:	4770      	bx	lr
    2032:	bf00      	nop
    2034:	20000368 	.word	0x20000368
    2038:	00000571 	.word	0x00000571

0000203c <atmel_start_init>:
    203c:	b510      	push	{r4, lr}
    203e:	4b04      	ldr	r3, [pc, #16]	; (2050 <atmel_start_init+0x14>)
    2040:	4798      	blx	r3
    2042:	4b04      	ldr	r3, [pc, #16]	; (2054 <atmel_start_init+0x18>)
    2044:	4798      	blx	r3
    2046:	4b04      	ldr	r3, [pc, #16]	; (2058 <atmel_start_init+0x1c>)
    2048:	e8bd 4010 	ldmia.w	sp!, {r4, lr}
    204c:	4718      	bx	r3
    204e:	bf00      	nop
    2050:	000025b1 	.word	0x000025b1
    2054:	00002b21 	.word	0x00002b21
    2058:	00002e89 	.word	0x00002e89

0000205c <drawChar>:
    205c:	e92d 43f0 	stmdb	sp!, {r4, r5, r6, r7, r8, r9, lr}
    2060:	4f5b      	ldr	r7, [pc, #364]	; (21d0 <drawChar+0x174>)
    2062:	4a5c      	ldr	r2, [pc, #368]	; (21d4 <drawChar+0x178>)
    2064:	8879      	ldrh	r1, [r7, #2]
    2066:	f8df 8184 	ldr.w	r8, [pc, #388]	; 21ec <drawChar+0x190>
    206a:	4604      	mov	r4, r0
    206c:	8838      	ldrh	r0, [r7, #0]
    206e:	2318      	movs	r3, #24
    2070:	4343      	muls	r3, r0
    2072:	185d      	adds	r5, r3, r1
    2074:	eb00 0080 	add.w	r0, r0, r0, lsl #2
    2078:	f852 5025 	ldr.w	r5, [r2, r5, lsl #2]
    207c:	4a56      	ldr	r2, [pc, #344]	; (21d8 <drawChar+0x17c>)
    207e:	4413      	add	r3, r2
    2080:	0040      	lsls	r0, r0, #1
    2082:	545c      	strb	r4, [r3, r1]
    2084:	eb01 0181 	add.w	r1, r1, r1, lsl #2
    2088:	4b54      	ldr	r3, [pc, #336]	; (21dc <drawChar+0x180>)
    208a:	0089      	lsls	r1, r1, #2
    208c:	b280      	uxth	r0, r0
    208e:	f44f 0280 	mov.w	r2, #4194304	; 0x400000
    2092:	b289      	uxth	r1, r1
    2094:	601a      	str	r2, [r3, #0]
    2096:	f100 0209 	add.w	r2, r0, #9
    209a:	f101 0313 	add.w	r3, r1, #19
    209e:	b29b      	uxth	r3, r3
    20a0:	b0e5      	sub	sp, #404	; 0x194
    20a2:	b292      	uxth	r2, r2
    20a4:	47c0      	blx	r8
    20a6:	eb04 0484 	add.w	r4, r4, r4, lsl #2
    20aa:	4b4d      	ldr	r3, [pc, #308]	; (21e0 <drawChar+0x184>)
    20ac:	eb04 0484 	add.w	r4, r4, r4, lsl #2
    20b0:	0c2e      	lsrs	r6, r5, #16
    20b2:	441c      	add	r4, r3
    20b4:	b2ad      	uxth	r5, r5
    20b6:	2000      	movs	r0, #0
    20b8:	f04f 08ff 	mov.w	r8, #255	; 0xff
    20bc:	ea4f 0ec0 	mov.w	lr, r0, lsl #3
    20c0:	f814 c000 	ldrb.w	ip, [r4, r0]
    20c4:	fa5f fe8e 	uxtb.w	lr, lr
    20c8:	2100      	movs	r1, #0
    20ca:	eb0e 0301 	add.w	r3, lr, r1
    20ce:	f1c1 0207 	rsb	r2, r1, #7
    20d2:	f50d 79c8 	add.w	r9, sp, #400	; 0x190
    20d6:	fa59 f383 	uxtab	r3, r9, r3
    20da:	fa4c f202 	asr.w	r2, ip, r2
    20de:	f012 0201 	ands.w	r2, r2, #1
    20e2:	f101 0101 	add.w	r1, r1, #1
    20e6:	bf14      	ite	ne
    20e8:	f803 8cc8 	strbne.w	r8, [r3, #-200]
    20ec:	f803 2cc8 	strbeq.w	r2, [r3, #-200]
    20f0:	2908      	cmp	r1, #8
    20f2:	d1ea      	bne.n	20ca <drawChar+0x6e>
    20f4:	3001      	adds	r0, #1
    20f6:	2819      	cmp	r0, #25
    20f8:	d1e0      	bne.n	20bc <drawChar+0x60>
    20fa:	2300      	movs	r3, #0
    20fc:	469e      	mov	lr, r3
    20fe:	b2dc      	uxtb	r4, r3
    2100:	2200      	movs	r2, #0
    2102:	eb0d 0003 	add.w	r0, sp, r3
    2106:	18a1      	adds	r1, r4, r2
    2108:	f50d 7cc8 	add.w	ip, sp, #400	; 0x190
    210c:	fa5c f181 	uxtab	r1, ip, r1
    2110:	f811 1cc8 	ldrb.w	r1, [r1, #-200]
    2114:	29ff      	cmp	r1, #255	; 0xff
    2116:	bf0c      	ite	eq
    2118:	5481      	strbeq	r1, [r0, r2]
    211a:	f800 e002 	strbne.w	lr, [r0, r2]
    211e:	3201      	adds	r2, #1
    2120:	2a14      	cmp	r2, #20
    2122:	d1f0      	bne.n	2106 <drawChar+0xaa>
    2124:	3314      	adds	r3, #20
    2126:	2bc8      	cmp	r3, #200	; 0xc8
    2128:	d1e9      	bne.n	20fe <drawChar+0xa2>
    212a:	883b      	ldrh	r3, [r7, #0]
    212c:	492d      	ldr	r1, [pc, #180]	; (21e4 <drawChar+0x188>)
    212e:	887a      	ldrh	r2, [r7, #2]
    2130:	2018      	movs	r0, #24
    2132:	fb00 1303 	mla	r3, r0, r3, r1
    2136:	5c9c      	ldrb	r4, [r3, r2]
    2138:	07a2      	lsls	r2, r4, #30
    213a:	d510      	bpl.n	215e <drawChar+0x102>
    213c:	f10d 02b3 	add.w	r2, sp, #179	; 0xb3
    2140:	f10d 37ff 	add.w	r7, sp, #4294967295
    2144:	f1a2 0314 	sub.w	r3, r2, #20
    2148:	4618      	mov	r0, r3
    214a:	f813 1f01 	ldrb.w	r1, [r3, #1]!
    214e:	29ff      	cmp	r1, #255	; 0xff
    2150:	bf08      	it	eq
    2152:	7519      	strbeq	r1, [r3, #20]
    2154:	429a      	cmp	r2, r3
    2156:	d1f8      	bne.n	214a <drawChar+0xee>
    2158:	4287      	cmp	r7, r0
    215a:	4602      	mov	r2, r0
    215c:	d1f2      	bne.n	2144 <drawChar+0xe8>
    215e:	06e3      	lsls	r3, r4, #27
    2160:	d41b      	bmi.n	219a <drawChar+0x13e>
    2162:	09e4      	lsrs	r4, r4, #7
    2164:	f8df 8088 	ldr.w	r8, [pc, #136]	; 21f0 <drawChar+0x194>
    2168:	d02e      	beq.n	21c8 <drawChar+0x16c>
    216a:	2400      	movs	r4, #0
    216c:	2700      	movs	r7, #0
    216e:	eb0d 0904 	add.w	r9, sp, r4
    2172:	f819 3007 	ldrb.w	r3, [r9, r7]
    2176:	2bff      	cmp	r3, #255	; 0xff
    2178:	bf14      	ite	ne
    217a:	4630      	movne	r0, r6
    217c:	4628      	moveq	r0, r5
    217e:	3701      	adds	r7, #1
    2180:	47c0      	blx	r8
    2182:	2f14      	cmp	r7, #20
    2184:	d1f5      	bne.n	2172 <drawChar+0x116>
    2186:	3414      	adds	r4, #20
    2188:	2cc8      	cmp	r4, #200	; 0xc8
    218a:	d1ef      	bne.n	216c <drawChar+0x110>
    218c:	4b16      	ldr	r3, [pc, #88]	; (21e8 <drawChar+0x18c>)
    218e:	f44f 0280 	mov.w	r2, #4194304	; 0x400000
    2192:	601a      	str	r2, [r3, #0]
    2194:	b065      	add	sp, #404	; 0x194
    2196:	e8bd 83f0 	ldmia.w	sp!, {r4, r5, r6, r7, r8, r9, pc}
    219a:	2300      	movs	r3, #0
    219c:	21ff      	movs	r1, #255	; 0xff
    219e:	eb0d 0203 	add.w	r2, sp, r3
    21a2:	3301      	adds	r3, #1
    21a4:	2b0a      	cmp	r3, #10
    21a6:	f882 10b4 	strb.w	r1, [r2, #180]	; 0xb4
    21aa:	d1f8      	bne.n	219e <drawChar+0x142>
    21ac:	e7d9      	b.n	2162 <drawChar+0x106>
    21ae:	f819 3007 	ldrb.w	r3, [r9, r7]
    21b2:	2bff      	cmp	r3, #255	; 0xff
    21b4:	bf0c      	ite	eq
    21b6:	4630      	moveq	r0, r6
    21b8:	4628      	movne	r0, r5
    21ba:	3701      	adds	r7, #1
    21bc:	47c0      	blx	r8
    21be:	2f14      	cmp	r7, #20
    21c0:	d1f5      	bne.n	21ae <drawChar+0x152>
    21c2:	3414      	adds	r4, #20
    21c4:	2cc8      	cmp	r4, #200	; 0xc8
    21c6:	d0e1      	beq.n	218c <drawChar+0x130>
    21c8:	2700      	movs	r7, #0
    21ca:	eb0d 0904 	add.w	r9, sp, r4
    21ce:	e7ee      	b.n	21ae <drawChar+0x152>
    21d0:	2000036c 	.word	0x2000036c
    21d4:	20001314 	.word	0x20001314
    21d8:	20000411 	.word	0x20000411
    21dc:	41008094 	.word	0x41008094
    21e0:	00004060 	.word	0x00004060
    21e4:	20000b91 	.word	0x20000b91
    21e8:	41008098 	.word	0x41008098
    21ec:	000026e1 	.word	0x000026e1
    21f0:	0000280d 	.word	0x0000280d

000021f4 <writeString>:
    21f4:	e92d 41f0 	stmdb	sp!, {r4, r5, r6, r7, r8, lr}
    21f8:	4b0a      	ldr	r3, [pc, #40]	; (2224 <writeString+0x30>)
    21fa:	f8df 8030 	ldr.w	r8, [pc, #48]	; 222c <writeString+0x38>
    21fe:	4e0a      	ldr	r6, [pc, #40]	; (2228 <writeString+0x34>)
    2200:	4605      	mov	r5, r0
    2202:	4798      	blx	r3
    2204:	462c      	mov	r4, r5
    2206:	4607      	mov	r7, r0
    2208:	1b63      	subs	r3, r4, r5
    220a:	429f      	cmp	r7, r3
    220c:	dc01      	bgt.n	2212 <writeString+0x1e>
    220e:	e8bd 81f0 	ldmia.w	sp!, {r4, r5, r6, r7, r8, pc}
    2212:	f814 0b01 	ldrb.w	r0, [r4], #1
    2216:	47c0      	blx	r8
    2218:	8833      	ldrh	r3, [r6, #0]
    221a:	2b50      	cmp	r3, #80	; 0x50
    221c:	bf9c      	itt	ls
    221e:	3301      	addls	r3, #1
    2220:	8033      	strhls	r3, [r6, #0]
    2222:	e7f1      	b.n	2208 <writeString+0x14>
    2224:	00003145 	.word	0x00003145
    2228:	2000036c 	.word	0x2000036c
    222c:	0000205d 	.word	0x0000205d

00002230 <nullifyConsole>:
    2230:	b5f0      	push	{r4, r5, r6, r7, lr}
    2232:	2300      	movs	r3, #0
    2234:	f8df e034 	ldr.w	lr, [pc, #52]	; 226c <nullifyConsole+0x3c>
    2238:	4e0a      	ldr	r6, [pc, #40]	; (2264 <nullifyConsole+0x34>)
    223a:	4c0b      	ldr	r4, [pc, #44]	; (2268 <nullifyConsole+0x38>)
    223c:	f8df c030 	ldr.w	ip, [pc, #48]	; 2270 <nullifyConsole+0x40>
    2240:	4619      	mov	r1, r3
    2242:	eb0e 0783 	add.w	r7, lr, r3, lsl #2
    2246:	2200      	movs	r2, #0
    2248:	199d      	adds	r5, r3, r6
    224a:	1918      	adds	r0, r3, r4
    224c:	54a9      	strb	r1, [r5, r2]
    224e:	5481      	strb	r1, [r0, r2]
    2250:	f847 c022 	str.w	ip, [r7, r2, lsl #2]
    2254:	3201      	adds	r2, #1
    2256:	2a18      	cmp	r2, #24
    2258:	d1f8      	bne.n	224c <nullifyConsole+0x1c>
    225a:	3318      	adds	r3, #24
    225c:	f5b3 6ff0 	cmp.w	r3, #1920	; 0x780
    2260:	d1ef      	bne.n	2242 <nullifyConsole+0x12>
    2262:	bdf0      	pop	{r4, r5, r6, r7, pc}
    2264:	20000411 	.word	0x20000411
    2268:	20000b91 	.word	0x20000b91
    226c:	20001314 	.word	0x20001314
    2270:	ffff0000 	.word	0xffff0000

00002274 <_gpio_set_pin_function>:
    2274:	b530      	push	{r4, r5, lr}
    2276:	1c4a      	adds	r2, r1, #1
    2278:	b2c4      	uxtb	r4, r0
    227a:	f3c0 1247 	ubfx	r2, r0, #5, #8
    227e:	4816      	ldr	r0, [pc, #88]	; (22d8 <_gpio_set_pin_function+0x64>)
    2280:	f004 031f 	and.w	r3, r4, #31
    2284:	eb00 10c2 	add.w	r0, r0, r2, lsl #7
    2288:	d107      	bne.n	229a <_gpio_set_pin_function+0x26>
    228a:	4418      	add	r0, r3
    228c:	f890 3040 	ldrb.w	r3, [r0, #64]	; 0x40
    2290:	f003 03fe 	and.w	r3, r3, #254	; 0xfe
    2294:	f880 3040 	strb.w	r3, [r0, #64]	; 0x40
    2298:	bd30      	pop	{r4, r5, pc}
    229a:	18c5      	adds	r5, r0, r3
    229c:	085b      	lsrs	r3, r3, #1
    229e:	f895 2040 	ldrb.w	r2, [r5, #64]	; 0x40
    22a2:	f002 02fe 	and.w	r2, r2, #254	; 0xfe
    22a6:	4418      	add	r0, r3
    22a8:	f042 0201 	orr.w	r2, r2, #1
    22ac:	f885 2040 	strb.w	r2, [r5, #64]	; 0x40
    22b0:	f890 3030 	ldrb.w	r3, [r0, #48]	; 0x30
    22b4:	f014 0f01 	tst.w	r4, #1
    22b8:	bf19      	ittee	ne
    22ba:	f003 030f 	andne.w	r3, r3, #15
    22be:	ea43 1101 	orrne.w	r1, r3, r1, lsl #4
    22c2:	f001 010f 	andeq.w	r1, r1, #15
    22c6:	f003 03f0 	andeq.w	r3, r3, #240	; 0xf0
    22ca:	bf14      	ite	ne
    22cc:	b2c9      	uxtbne	r1, r1
    22ce:	4319      	orreq	r1, r3
    22d0:	f880 1030 	strb.w	r1, [r0, #48]	; 0x30
    22d4:	bd30      	pop	{r4, r5, pc}
    22d6:	bf00      	nop
    22d8:	41008000 	.word	0x41008000

000022dc <EXTERNAL_IRQ_0_init>:
    22dc:	4b05      	ldr	r3, [pc, #20]	; (22f4 <EXTERNAL_IRQ_0_init+0x18>)
    22de:	2240      	movs	r2, #64	; 0x40
    22e0:	f8c3 2090 	str.w	r2, [r3, #144]	; 0x90
    22e4:	4a04      	ldr	r2, [pc, #16]	; (22f8 <EXTERNAL_IRQ_0_init+0x1c>)
    22e6:	6953      	ldr	r3, [r2, #20]
    22e8:	f443 6380 	orr.w	r3, r3, #1024	; 0x400
    22ec:	6153      	str	r3, [r2, #20]
    22ee:	4b03      	ldr	r3, [pc, #12]	; (22fc <EXTERNAL_IRQ_0_init+0x20>)
    22f0:	4718      	bx	r3
    22f2:	bf00      	nop
    22f4:	40001c00 	.word	0x40001c00
    22f8:	40000800 	.word	0x40000800
    22fc:	00000409 	.word	0x00000409

00002300 <FLASH_0_CLOCK_init>:
    2300:	4a02      	ldr	r2, [pc, #8]	; (230c <FLASH_0_CLOCK_init+0xc>)
    2302:	6913      	ldr	r3, [r2, #16]
    2304:	f043 0340 	orr.w	r3, r3, #64	; 0x40
    2308:	6113      	str	r3, [r2, #16]
    230a:	4770      	bx	lr
    230c:	40000800 	.word	0x40000800

00002310 <FLASH_0_init>:
    2310:	b510      	push	{r4, lr}
    2312:	4b04      	ldr	r3, [pc, #16]	; (2324 <FLASH_0_init+0x14>)
    2314:	4798      	blx	r3
    2316:	4904      	ldr	r1, [pc, #16]	; (2328 <FLASH_0_init+0x18>)
    2318:	4804      	ldr	r0, [pc, #16]	; (232c <FLASH_0_init+0x1c>)
    231a:	4b05      	ldr	r3, [pc, #20]	; (2330 <FLASH_0_init+0x20>)
    231c:	e8bd 4010 	ldmia.w	sp!, {r4, lr}
    2320:	4718      	bx	r3
    2322:	bf00      	nop
    2324:	00002301 	.word	0x00002301
    2328:	41004000 	.word	0x41004000
    232c:	20003118 	.word	0x20003118
    2330:	00000439 	.word	0x00000439

00002334 <USART_0_PORT_init>:
    2334:	b510      	push	{r4, lr}
    2336:	4c05      	ldr	r4, [pc, #20]	; (234c <USART_0_PORT_init+0x18>)
    2338:	4905      	ldr	r1, [pc, #20]	; (2350 <USART_0_PORT_init+0x1c>)
    233a:	2008      	movs	r0, #8
    233c:	47a0      	blx	r4
    233e:	4623      	mov	r3, r4
    2340:	4904      	ldr	r1, [pc, #16]	; (2354 <USART_0_PORT_init+0x20>)
    2342:	2009      	movs	r0, #9
    2344:	e8bd 4010 	ldmia.w	sp!, {r4, lr}
    2348:	4718      	bx	r3
    234a:	bf00      	nop
    234c:	00002275 	.word	0x00002275
    2350:	00080002 	.word	0x00080002
    2354:	00090002 	.word	0x00090002

00002358 <USART_0_CLOCK_init>:
    2358:	4b06      	ldr	r3, [pc, #24]	; (2374 <USART_0_CLOCK_init+0x1c>)
    235a:	2241      	movs	r2, #65	; 0x41
    235c:	f8c3 209c 	str.w	r2, [r3, #156]	; 0x9c
    2360:	2243      	movs	r2, #67	; 0x43
    2362:	f8c3 208c 	str.w	r2, [r3, #140]	; 0x8c
    2366:	4a04      	ldr	r2, [pc, #16]	; (2378 <USART_0_CLOCK_init+0x20>)
    2368:	6953      	ldr	r3, [r2, #20]
    236a:	f443 5380 	orr.w	r3, r3, #4096	; 0x1000
    236e:	6153      	str	r3, [r2, #20]
    2370:	4770      	bx	lr
    2372:	bf00      	nop
    2374:	40001c00 	.word	0x40001c00
    2378:	40000800 	.word	0x40000800

0000237c <USART_0_init>:
    237c:	b510      	push	{r4, lr}
    237e:	4b05      	ldr	r3, [pc, #20]	; (2394 <USART_0_init+0x18>)
    2380:	4798      	blx	r3
    2382:	4b05      	ldr	r3, [pc, #20]	; (2398 <USART_0_init+0x1c>)
    2384:	4905      	ldr	r1, [pc, #20]	; (239c <USART_0_init+0x20>)
    2386:	4806      	ldr	r0, [pc, #24]	; (23a0 <USART_0_init+0x24>)
    2388:	2200      	movs	r2, #0
    238a:	4798      	blx	r3
    238c:	4b05      	ldr	r3, [pc, #20]	; (23a4 <USART_0_init+0x28>)
    238e:	e8bd 4010 	ldmia.w	sp!, {r4, lr}
    2392:	4718      	bx	r3
    2394:	00002359 	.word	0x00002359
    2398:	00000609 	.word	0x00000609
    239c:	40003000 	.word	0x40003000
    23a0:	2000314c 	.word	0x2000314c
    23a4:	00002335 	.word	0x00002335

000023a8 <TARGET_IO_PORT_init>:
    23a8:	b510      	push	{r4, lr}
    23aa:	4c05      	ldr	r4, [pc, #20]	; (23c0 <TARGET_IO_PORT_init+0x18>)
    23ac:	2103      	movs	r1, #3
    23ae:	2000      	movs	r0, #0
    23b0:	47a0      	blx	r4
    23b2:	4623      	mov	r3, r4
    23b4:	4903      	ldr	r1, [pc, #12]	; (23c4 <TARGET_IO_PORT_init+0x1c>)
    23b6:	2001      	movs	r0, #1
    23b8:	e8bd 4010 	ldmia.w	sp!, {r4, lr}
    23bc:	4718      	bx	r3
    23be:	bf00      	nop
    23c0:	00002275 	.word	0x00002275
    23c4:	00010003 	.word	0x00010003

000023c8 <TARGET_IO_CLOCK_init>:
    23c8:	4b06      	ldr	r3, [pc, #24]	; (23e4 <TARGET_IO_CLOCK_init+0x1c>)
    23ca:	2240      	movs	r2, #64	; 0x40
    23cc:	f8c3 20a0 	str.w	r2, [r3, #160]	; 0xa0
    23d0:	2243      	movs	r2, #67	; 0x43
    23d2:	f8c3 208c 	str.w	r2, [r3, #140]	; 0x8c
    23d6:	4a04      	ldr	r2, [pc, #16]	; (23e8 <TARGET_IO_CLOCK_init+0x20>)
    23d8:	6953      	ldr	r3, [r2, #20]
    23da:	f443 5300 	orr.w	r3, r3, #8192	; 0x2000
    23de:	6153      	str	r3, [r2, #20]
    23e0:	4770      	bx	lr
    23e2:	bf00      	nop
    23e4:	40001c00 	.word	0x40001c00
    23e8:	40000800 	.word	0x40000800

000023ec <TARGET_IO_init>:
    23ec:	b510      	push	{r4, lr}
    23ee:	4b05      	ldr	r3, [pc, #20]	; (2404 <TARGET_IO_init+0x18>)
    23f0:	4798      	blx	r3
    23f2:	4b05      	ldr	r3, [pc, #20]	; (2408 <TARGET_IO_init+0x1c>)
    23f4:	4905      	ldr	r1, [pc, #20]	; (240c <TARGET_IO_init+0x20>)
    23f6:	4806      	ldr	r0, [pc, #24]	; (2410 <TARGET_IO_init+0x24>)
    23f8:	2200      	movs	r2, #0
    23fa:	4798      	blx	r3
    23fc:	4b05      	ldr	r3, [pc, #20]	; (2414 <TARGET_IO_init+0x28>)
    23fe:	e8bd 4010 	ldmia.w	sp!, {r4, lr}
    2402:	4718      	bx	r3
    2404:	000023c9 	.word	0x000023c9
    2408:	00000609 	.word	0x00000609
    240c:	40003400 	.word	0x40003400
    2410:	20003134 	.word	0x20003134
    2414:	000023a9 	.word	0x000023a9

00002418 <USART_1_PORT_init>:
    2418:	b510      	push	{r4, lr}
    241a:	4c05      	ldr	r4, [pc, #20]	; (2430 <USART_1_PORT_init+0x18>)
    241c:	4905      	ldr	r1, [pc, #20]	; (2434 <USART_1_PORT_init+0x1c>)
    241e:	200c      	movs	r0, #12
    2420:	47a0      	blx	r4
    2422:	4623      	mov	r3, r4
    2424:	4904      	ldr	r1, [pc, #16]	; (2438 <USART_1_PORT_init+0x20>)
    2426:	200d      	movs	r0, #13
    2428:	e8bd 4010 	ldmia.w	sp!, {r4, lr}
    242c:	4718      	bx	r3
    242e:	bf00      	nop
    2430:	00002275 	.word	0x00002275
    2434:	000c0002 	.word	0x000c0002
    2438:	000d0002 	.word	0x000d0002

0000243c <USART_1_CLOCK_init>:
    243c:	4b06      	ldr	r3, [pc, #24]	; (2458 <USART_1_CLOCK_init+0x1c>)
    243e:	2240      	movs	r2, #64	; 0x40
    2440:	f8c3 20dc 	str.w	r2, [r3, #220]	; 0xdc
    2444:	2243      	movs	r2, #67	; 0x43
    2446:	f8c3 208c 	str.w	r2, [r3, #140]	; 0x8c
    244a:	4a04      	ldr	r2, [pc, #16]	; (245c <USART_1_CLOCK_init+0x20>)
    244c:	6993      	ldr	r3, [r2, #24]
    244e:	f443 7300 	orr.w	r3, r3, #512	; 0x200
    2452:	6193      	str	r3, [r2, #24]
    2454:	4770      	bx	lr
    2456:	bf00      	nop
    2458:	40001c00 	.word	0x40001c00
    245c:	40000800 	.word	0x40000800

00002460 <USART_1_init>:
    2460:	b510      	push	{r4, lr}
    2462:	4b05      	ldr	r3, [pc, #20]	; (2478 <USART_1_init+0x18>)
    2464:	4798      	blx	r3
    2466:	4b05      	ldr	r3, [pc, #20]	; (247c <USART_1_init+0x1c>)
    2468:	4905      	ldr	r1, [pc, #20]	; (2480 <USART_1_init+0x20>)
    246a:	4806      	ldr	r0, [pc, #24]	; (2484 <USART_1_init+0x24>)
    246c:	2200      	movs	r2, #0
    246e:	4798      	blx	r3
    2470:	4b05      	ldr	r3, [pc, #20]	; (2488 <USART_1_init+0x28>)
    2472:	e8bd 4010 	ldmia.w	sp!, {r4, lr}
    2476:	4718      	bx	r3
    2478:	0000243d 	.word	0x0000243d
    247c:	00000609 	.word	0x00000609
    2480:	41012000 	.word	0x41012000
    2484:	20003158 	.word	0x20003158
    2488:	00002419 	.word	0x00002419

0000248c <delay_driver_init>:
    248c:	4801      	ldr	r0, [pc, #4]	; (2494 <delay_driver_init+0x8>)
    248e:	4b02      	ldr	r3, [pc, #8]	; (2498 <delay_driver_init+0xc>)
    2490:	4718      	bx	r3
    2492:	bf00      	nop
    2494:	e000e010 	.word	0xe000e010
    2498:	000003a5 	.word	0x000003a5

0000249c <RAND_0_CLOCK_init>:
    249c:	4a02      	ldr	r2, [pc, #8]	; (24a8 <RAND_0_CLOCK_init+0xc>)
    249e:	69d3      	ldr	r3, [r2, #28]
    24a0:	f443 6380 	orr.w	r3, r3, #1024	; 0x400
    24a4:	61d3      	str	r3, [r2, #28]
    24a6:	4770      	bx	lr
    24a8:	40000800 	.word	0x40000800

000024ac <RAND_0_init>:
    24ac:	b510      	push	{r4, lr}
    24ae:	4b04      	ldr	r3, [pc, #16]	; (24c0 <RAND_0_init+0x14>)
    24b0:	4798      	blx	r3
    24b2:	4904      	ldr	r1, [pc, #16]	; (24c4 <RAND_0_init+0x18>)
    24b4:	4804      	ldr	r0, [pc, #16]	; (24c8 <RAND_0_init+0x1c>)
    24b6:	4b05      	ldr	r3, [pc, #20]	; (24cc <RAND_0_init+0x20>)
    24b8:	e8bd 4010 	ldmia.w	sp!, {r4, lr}
    24bc:	4718      	bx	r3
    24be:	bf00      	nop
    24c0:	0000249d 	.word	0x0000249d
    24c4:	42002800 	.word	0x42002800
    24c8:	20003140 	.word	0x20003140
    24cc:	00000579 	.word	0x00000579

000024d0 <USB_0_PORT_init>:
    24d0:	b570      	push	{r4, r5, r6, lr}
    24d2:	4c13      	ldr	r4, [pc, #76]	; (2520 <USB_0_PORT_init+0x50>)
    24d4:	4a13      	ldr	r2, [pc, #76]	; (2524 <USB_0_PORT_init+0x54>)
    24d6:	4d14      	ldr	r5, [pc, #80]	; (2528 <USB_0_PORT_init+0x58>)
    24d8:	4914      	ldr	r1, [pc, #80]	; (252c <USB_0_PORT_init+0x5c>)
    24da:	f04f 7380 	mov.w	r3, #16777216	; 0x1000000
    24de:	f04f 4680 	mov.w	r6, #1073741824	; 0x40000000
    24e2:	60a3      	str	r3, [r4, #8]
    24e4:	62a6      	str	r6, [r4, #40]	; 0x28
    24e6:	62a2      	str	r2, [r4, #40]	; 0x28
    24e8:	6163      	str	r3, [r4, #20]
    24ea:	f894 3058 	ldrb.w	r3, [r4, #88]	; 0x58
    24ee:	f003 03fb 	and.w	r3, r3, #251	; 0xfb
    24f2:	f884 3058 	strb.w	r3, [r4, #88]	; 0x58
    24f6:	2018      	movs	r0, #24
    24f8:	47a8      	blx	r5
    24fa:	f04f 7300 	mov.w	r3, #33554432	; 0x2000000
    24fe:	4a0c      	ldr	r2, [pc, #48]	; (2530 <USB_0_PORT_init+0x60>)
    2500:	60a3      	str	r3, [r4, #8]
    2502:	62a6      	str	r6, [r4, #40]	; 0x28
    2504:	62a2      	str	r2, [r4, #40]	; 0x28
    2506:	6163      	str	r3, [r4, #20]
    2508:	f894 3059 	ldrb.w	r3, [r4, #89]	; 0x59
    250c:	4909      	ldr	r1, [pc, #36]	; (2534 <USB_0_PORT_init+0x64>)
    250e:	f003 03fb 	and.w	r3, r3, #251	; 0xfb
    2512:	f884 3059 	strb.w	r3, [r4, #89]	; 0x59
    2516:	2019      	movs	r0, #25
    2518:	462b      	mov	r3, r5
    251a:	e8bd 4070 	ldmia.w	sp!, {r4, r5, r6, lr}
    251e:	4718      	bx	r3
    2520:	41008000 	.word	0x41008000
    2524:	c0000100 	.word	0xc0000100
    2528:	00002275 	.word	0x00002275
    252c:	00180007 	.word	0x00180007
    2530:	c0000200 	.word	0xc0000200
    2534:	00190007 	.word	0x00190007

00002538 <USB_0_CLOCK_init>:
    2538:	4b07      	ldr	r3, [pc, #28]	; (2558 <USB_0_CLOCK_init+0x20>)
    253a:	2241      	movs	r2, #65	; 0x41
    253c:	f8c3 20a8 	str.w	r2, [r3, #168]	; 0xa8
    2540:	f5a3 53a0 	sub.w	r3, r3, #5120	; 0x1400
    2544:	691a      	ldr	r2, [r3, #16]
    2546:	f442 6280 	orr.w	r2, r2, #1024	; 0x400
    254a:	611a      	str	r2, [r3, #16]
    254c:	699a      	ldr	r2, [r3, #24]
    254e:	f042 0201 	orr.w	r2, r2, #1
    2552:	619a      	str	r2, [r3, #24]
    2554:	4770      	bx	lr
    2556:	bf00      	nop
    2558:	40001c00 	.word	0x40001c00

0000255c <USB_0_init>:
    255c:	b510      	push	{r4, lr}
    255e:	4b04      	ldr	r3, [pc, #16]	; (2570 <USB_0_init+0x14>)
    2560:	4798      	blx	r3
    2562:	4b04      	ldr	r3, [pc, #16]	; (2574 <USB_0_init+0x18>)
    2564:	4798      	blx	r3
    2566:	4b04      	ldr	r3, [pc, #16]	; (2578 <USB_0_init+0x1c>)
    2568:	e8bd 4010 	ldmia.w	sp!, {r4, lr}
    256c:	4718      	bx	r3
    256e:	bf00      	nop
    2570:	00002539 	.word	0x00002539
    2574:	0000083d 	.word	0x0000083d
    2578:	000024d1 	.word	0x000024d1

0000257c <WDT_0_CLOCK_init>:
    257c:	4a02      	ldr	r2, [pc, #8]	; (2588 <WDT_0_CLOCK_init+0xc>)
    257e:	6953      	ldr	r3, [r2, #20]
    2580:	f443 7380 	orr.w	r3, r3, #256	; 0x100
    2584:	6153      	str	r3, [r2, #20]
    2586:	4770      	bx	lr
    2588:	40000800 	.word	0x40000800

0000258c <WDT_0_init>:
    258c:	b510      	push	{r4, lr}
    258e:	4b04      	ldr	r3, [pc, #16]	; (25a0 <WDT_0_init+0x14>)
    2590:	4798      	blx	r3
    2592:	4804      	ldr	r0, [pc, #16]	; (25a4 <WDT_0_init+0x18>)
    2594:	4b04      	ldr	r3, [pc, #16]	; (25a8 <WDT_0_init+0x1c>)
    2596:	6003      	str	r3, [r0, #0]
    2598:	e8bd 4010 	ldmia.w	sp!, {r4, lr}
    259c:	4b03      	ldr	r3, [pc, #12]	; (25ac <WDT_0_init+0x20>)
    259e:	4718      	bx	r3
    25a0:	0000257d 	.word	0x0000257d
    25a4:	20003148 	.word	0x20003148
    25a8:	40002000 	.word	0x40002000
    25ac:	00001b75 	.word	0x00001b75

000025b0 <system_init>:
    25b0:	b510      	push	{r4, lr}
    25b2:	4b0b      	ldr	r3, [pc, #44]	; (25e0 <system_init+0x30>)
    25b4:	4798      	blx	r3
    25b6:	4b0b      	ldr	r3, [pc, #44]	; (25e4 <system_init+0x34>)
    25b8:	4798      	blx	r3
    25ba:	4b0b      	ldr	r3, [pc, #44]	; (25e8 <system_init+0x38>)
    25bc:	4798      	blx	r3
    25be:	4b0b      	ldr	r3, [pc, #44]	; (25ec <system_init+0x3c>)
    25c0:	4798      	blx	r3
    25c2:	4b0b      	ldr	r3, [pc, #44]	; (25f0 <system_init+0x40>)
    25c4:	4798      	blx	r3
    25c6:	4b0b      	ldr	r3, [pc, #44]	; (25f4 <system_init+0x44>)
    25c8:	4798      	blx	r3
    25ca:	4b0b      	ldr	r3, [pc, #44]	; (25f8 <system_init+0x48>)
    25cc:	4798      	blx	r3
    25ce:	4b0b      	ldr	r3, [pc, #44]	; (25fc <system_init+0x4c>)
    25d0:	4798      	blx	r3
    25d2:	4b0b      	ldr	r3, [pc, #44]	; (2600 <system_init+0x50>)
    25d4:	4798      	blx	r3
    25d6:	4b0b      	ldr	r3, [pc, #44]	; (2604 <system_init+0x54>)
    25d8:	e8bd 4010 	ldmia.w	sp!, {r4, lr}
    25dc:	4718      	bx	r3
    25de:	bf00      	nop
    25e0:	0000094d 	.word	0x0000094d
    25e4:	000022dd 	.word	0x000022dd
    25e8:	00002311 	.word	0x00002311
    25ec:	0000237d 	.word	0x0000237d
    25f0:	000023ed 	.word	0x000023ed
    25f4:	00002461 	.word	0x00002461
    25f8:	0000248d 	.word	0x0000248d
    25fc:	000024ad 	.word	0x000024ad
    2600:	0000255d 	.word	0x0000255d
    2604:	0000258d 	.word	0x0000258d

00002608 <setColorRGB>:
    2608:	4b06      	ldr	r3, [pc, #24]	; (2624 <setColorRGB+0x1c>)
    260a:	f000 00f8 	and.w	r0, r0, #248	; 0xf8
    260e:	ea40 1051 	orr.w	r0, r0, r1, lsr #5
    2612:	00c9      	lsls	r1, r1, #3
    2614:	8018      	strh	r0, [r3, #0]
    2616:	f001 01e0 	and.w	r1, r1, #224	; 0xe0
    261a:	4b03      	ldr	r3, [pc, #12]	; (2628 <setColorRGB+0x20>)
    261c:	ea41 01d2 	orr.w	r1, r1, r2, lsr #3
    2620:	8019      	strh	r1, [r3, #0]
    2622:	4770      	bx	lr
    2624:	20003166 	.word	0x20003166
    2628:	20003168 	.word	0x20003168

0000262c <setColorHex>:
    262c:	4b03      	ldr	r3, [pc, #12]	; (263c <setColorHex+0x10>)
    262e:	0a02      	lsrs	r2, r0, #8
    2630:	801a      	strh	r2, [r3, #0]
    2632:	4b03      	ldr	r3, [pc, #12]	; (2640 <setColorHex+0x14>)
    2634:	b2c0      	uxtb	r0, r0
    2636:	8018      	strh	r0, [r3, #0]
    2638:	4770      	bx	lr
    263a:	bf00      	nop
    263c:	20003166 	.word	0x20003166
    2640:	20003168 	.word	0x20003168

00002644 <setBackColorRGB>:
    2644:	4b06      	ldr	r3, [pc, #24]	; (2660 <setBackColorRGB+0x1c>)
    2646:	f000 00f8 	and.w	r0, r0, #248	; 0xf8
    264a:	ea40 1051 	orr.w	r0, r0, r1, lsr #5
    264e:	00c9      	lsls	r1, r1, #3
    2650:	8018      	strh	r0, [r3, #0]
    2652:	f001 01e0 	and.w	r1, r1, #224	; 0xe0
    2656:	4b03      	ldr	r3, [pc, #12]	; (2664 <setBackColorRGB+0x20>)
    2658:	ea41 01d2 	orr.w	r1, r1, r2, lsr #3
    265c:	8019      	strh	r1, [r3, #0]
    265e:	4770      	bx	lr
    2660:	2000316a 	.word	0x2000316a
    2664:	20003164 	.word	0x20003164

00002668 <setBackColorHex>:
    2668:	4b03      	ldr	r3, [pc, #12]	; (2678 <setBackColorHex+0x10>)
    266a:	0a02      	lsrs	r2, r0, #8
    266c:	801a      	strh	r2, [r3, #0]
    266e:	4b03      	ldr	r3, [pc, #12]	; (267c <setBackColorHex+0x14>)
    2670:	b2c0      	uxtb	r0, r0
    2672:	8018      	strh	r0, [r3, #0]
    2674:	4770      	bx	lr
    2676:	bf00      	nop
    2678:	2000316a 	.word	0x2000316a
    267c:	20003164 	.word	0x20003164

00002680 <LCD_Fast_Fill>:
    2680:	4b15      	ldr	r3, [pc, #84]	; (26d8 <LCD_Fast_Fill+0x58>)
    2682:	b570      	push	{r4, r5, r6, lr}
    2684:	ea41 2000 	orr.w	r0, r1, r0, lsl #8
    2688:	f64f 74ff 	movw	r4, #65535	; 0xffff
    268c:	4913      	ldr	r1, [pc, #76]	; (26dc <LCD_Fast_Fill+0x5c>)
    268e:	601c      	str	r4, [r3, #0]
    2690:	f44f 3600 	mov.w	r6, #131072	; 0x20000
    2694:	2400      	movs	r4, #0
    2696:	6008      	str	r0, [r1, #0]
    2698:	2010      	movs	r0, #16
    269a:	fb92 f0f0 	sdiv	r0, r2, r0
    269e:	4284      	cmp	r4, r0
    26a0:	db0e      	blt.n	26c0 <LCD_Fast_Fill+0x40>
    26a2:	f012 000f 	ands.w	r0, r2, #15
    26a6:	d00a      	beq.n	26be <LCD_Fast_Fill+0x3e>
    26a8:	4252      	negs	r2, r2
    26aa:	f002 020f 	and.w	r2, r2, #15
    26ae:	bf58      	it	pl
    26b0:	4250      	negpl	r0, r2
    26b2:	4602      	mov	r2, r0
    26b4:	f44f 3400 	mov.w	r4, #131072	; 0x20000
    26b8:	2000      	movs	r0, #0
    26ba:	4290      	cmp	r0, r2
    26bc:	dd07      	ble.n	26ce <LCD_Fast_Fill+0x4e>
    26be:	bd70      	pop	{r4, r5, r6, pc}
    26c0:	2510      	movs	r5, #16
    26c2:	3d01      	subs	r5, #1
    26c4:	601e      	str	r6, [r3, #0]
    26c6:	600e      	str	r6, [r1, #0]
    26c8:	d1fb      	bne.n	26c2 <LCD_Fast_Fill+0x42>
    26ca:	3401      	adds	r4, #1
    26cc:	e7e7      	b.n	269e <LCD_Fast_Fill+0x1e>
    26ce:	601c      	str	r4, [r3, #0]
    26d0:	3001      	adds	r0, #1
    26d2:	600c      	str	r4, [r1, #0]
    26d4:	e7f1      	b.n	26ba <LCD_Fast_Fill+0x3a>
    26d6:	bf00      	nop
    26d8:	41008094 	.word	0x41008094
    26dc:	41008098 	.word	0x41008098

000026e0 <setXY>:
    26e0:	e92d 47f0 	stmdb	sp!, {r4, r5, r6, r7, r8, r9, sl, lr}
    26e4:	4c1b      	ldr	r4, [pc, #108]	; (2754 <setXY+0x74>)
    26e6:	4d1c      	ldr	r5, [pc, #112]	; (2758 <setXY+0x78>)
    26e8:	4681      	mov	r9, r0
    26ea:	460f      	mov	r7, r1
    26ec:	202a      	movs	r0, #42	; 0x2a
    26ee:	2100      	movs	r1, #0
    26f0:	461e      	mov	r6, r3
    26f2:	4690      	mov	r8, r2
    26f4:	47a0      	blx	r4
    26f6:	ea4f 2019 	mov.w	r0, r9, lsr #8
    26fa:	47a8      	blx	r5
    26fc:	2101      	movs	r1, #1
    26fe:	202a      	movs	r0, #42	; 0x2a
    2700:	47a0      	blx	r4
    2702:	fa5f f089 	uxtb.w	r0, r9
    2706:	47a8      	blx	r5
    2708:	2102      	movs	r1, #2
    270a:	202a      	movs	r0, #42	; 0x2a
    270c:	47a0      	blx	r4
    270e:	ea4f 2018 	mov.w	r0, r8, lsr #8
    2712:	47a8      	blx	r5
    2714:	2103      	movs	r1, #3
    2716:	202a      	movs	r0, #42	; 0x2a
    2718:	47a0      	blx	r4
    271a:	fa5f f088 	uxtb.w	r0, r8
    271e:	47a8      	blx	r5
    2720:	2100      	movs	r1, #0
    2722:	202b      	movs	r0, #43	; 0x2b
    2724:	47a0      	blx	r4
    2726:	0a38      	lsrs	r0, r7, #8
    2728:	47a8      	blx	r5
    272a:	2101      	movs	r1, #1
    272c:	202b      	movs	r0, #43	; 0x2b
    272e:	47a0      	blx	r4
    2730:	b2f8      	uxtb	r0, r7
    2732:	47a8      	blx	r5
    2734:	2102      	movs	r1, #2
    2736:	202b      	movs	r0, #43	; 0x2b
    2738:	47a0      	blx	r4
    273a:	0a30      	lsrs	r0, r6, #8
    273c:	47a8      	blx	r5
    273e:	2103      	movs	r1, #3
    2740:	202b      	movs	r0, #43	; 0x2b
    2742:	47a0      	blx	r4
    2744:	b2f0      	uxtb	r0, r6
    2746:	47a8      	blx	r5
    2748:	4623      	mov	r3, r4
    274a:	2100      	movs	r1, #0
    274c:	202c      	movs	r0, #44	; 0x2c
    274e:	e8bd 47f0 	ldmia.w	sp!, {r4, r5, r6, r7, r8, r9, sl, lr}
    2752:	4718      	bx	r3
    2754:	0000286d 	.word	0x0000286d
    2758:	00002895 	.word	0x00002895

0000275c <fillRect>:
    275c:	4290      	cmp	r0, r2
    275e:	e92d 43f8 	stmdb	sp!, {r3, r4, r5, r6, r7, r8, r9, lr}
    2762:	461d      	mov	r5, r3
    2764:	bfc8      	it	gt
    2766:	4603      	movgt	r3, r0
    2768:	4606      	mov	r6, r0
    276a:	4614      	mov	r4, r2
    276c:	bfc4      	itt	gt
    276e:	4616      	movgt	r6, r2
    2770:	461c      	movgt	r4, r3
    2772:	42a9      	cmp	r1, r5
    2774:	bfc2      	ittt	gt
    2776:	4633      	movgt	r3, r6
    2778:	4626      	movgt	r6, r4
    277a:	461c      	movgt	r4, r3
    277c:	4b10      	ldr	r3, [pc, #64]	; (27c0 <fillRect+0x64>)
    277e:	f8df 9050 	ldr.w	r9, [pc, #80]	; 27d0 <fillRect+0x74>
    2782:	f44f 0880 	mov.w	r8, #4194304	; 0x400000
    2786:	b2a2      	uxth	r2, r4
    2788:	460f      	mov	r7, r1
    278a:	f8c3 8000 	str.w	r8, [r3]
    278e:	b289      	uxth	r1, r1
    2790:	b2ab      	uxth	r3, r5
    2792:	b2b0      	uxth	r0, r6
    2794:	47c8      	blx	r9
    2796:	f8df 903c 	ldr.w	r9, [pc, #60]	; 27d4 <fillRect+0x78>
    279a:	f44f 0300 	mov.w	r3, #8388608	; 0x800000
    279e:	f8c9 3000 	str.w	r3, [r9]
    27a2:	4b08      	ldr	r3, [pc, #32]	; (27c4 <fillRect+0x68>)
    27a4:	1bea      	subs	r2, r5, r7
    27a6:	8819      	ldrh	r1, [r3, #0]
    27a8:	4b07      	ldr	r3, [pc, #28]	; (27c8 <fillRect+0x6c>)
    27aa:	1ba4      	subs	r4, r4, r6
    27ac:	3201      	adds	r2, #1
    27ae:	8818      	ldrh	r0, [r3, #0]
    27b0:	4b06      	ldr	r3, [pc, #24]	; (27cc <fillRect+0x70>)
    27b2:	fb04 2202 	mla	r2, r4, r2, r2
    27b6:	4798      	blx	r3
    27b8:	f8c9 8000 	str.w	r8, [r9]
    27bc:	e8bd 83f8 	ldmia.w	sp!, {r3, r4, r5, r6, r7, r8, r9, pc}
    27c0:	41008094 	.word	0x41008094
    27c4:	20003168 	.word	0x20003168
    27c8:	20003166 	.word	0x20003166
    27cc:	00002681 	.word	0x00002681
    27d0:	000026e1 	.word	0x000026e1
    27d4:	41008098 	.word	0x41008098

000027d8 <clrXY>:
    27d8:	b410      	push	{r4}
    27da:	4a05      	ldr	r2, [pc, #20]	; (27f0 <clrXY+0x18>)
    27dc:	4c05      	ldr	r4, [pc, #20]	; (27f4 <clrXY+0x1c>)
    27de:	8813      	ldrh	r3, [r2, #0]
    27e0:	8852      	ldrh	r2, [r2, #2]
    27e2:	2100      	movs	r1, #0
    27e4:	46a4      	mov	ip, r4
    27e6:	4608      	mov	r0, r1
    27e8:	f85d 4b04 	ldr.w	r4, [sp], #4
    27ec:	4760      	bx	ip
    27ee:	bf00      	nop
    27f0:	20000000 	.word	0x20000000
    27f4:	000026e1 	.word	0x000026e1

000027f8 <clrScr>:
    27f8:	4b02      	ldr	r3, [pc, #8]	; (2804 <clrScr+0xc>)
    27fa:	f44f 0280 	mov.w	r2, #4194304	; 0x400000
    27fe:	601a      	str	r2, [r3, #0]
    2800:	4b01      	ldr	r3, [pc, #4]	; (2808 <clrScr+0x10>)
    2802:	4718      	bx	r3
    2804:	41008094 	.word	0x41008094
    2808:	000027d9 	.word	0x000027d9

0000280c <setPixel>:
    280c:	b2c1      	uxtb	r1, r0
    280e:	4b01      	ldr	r3, [pc, #4]	; (2814 <setPixel+0x8>)
    2810:	0a00      	lsrs	r0, r0, #8
    2812:	4718      	bx	r3
    2814:	00002881 	.word	0x00002881

00002818 <clearScreen>:
    2818:	4b07      	ldr	r3, [pc, #28]	; (2838 <clearScreen+0x20>)
    281a:	4a08      	ldr	r2, [pc, #32]	; (283c <clearScreen+0x24>)
    281c:	2100      	movs	r1, #0
    281e:	b410      	push	{r4}
    2820:	8019      	strh	r1, [r3, #0]
    2822:	4c07      	ldr	r4, [pc, #28]	; (2840 <clearScreen+0x28>)
    2824:	4b07      	ldr	r3, [pc, #28]	; (2844 <clearScreen+0x2c>)
    2826:	46a4      	mov	ip, r4
    2828:	8019      	strh	r1, [r3, #0]
    282a:	4608      	mov	r0, r1
    282c:	8853      	ldrh	r3, [r2, #2]
    282e:	f85d 4b04 	ldr.w	r4, [sp], #4
    2832:	8812      	ldrh	r2, [r2, #0]
    2834:	4760      	bx	ip
    2836:	bf00      	nop
    2838:	20003166 	.word	0x20003166
    283c:	20000000 	.word	0x20000000
    2840:	0000275d 	.word	0x0000275d
    2844:	20003168 	.word	0x20003168

00002848 <LCD_Write_Bus>:
    2848:	b510      	push	{r4, lr}
    284a:	4c06      	ldr	r4, [pc, #24]	; (2864 <LCD_Write_Bus+0x1c>)
    284c:	f64f 73ff 	movw	r3, #65535	; 0xffff
    2850:	6023      	str	r3, [r4, #0]
    2852:	4b05      	ldr	r3, [pc, #20]	; (2868 <LCD_Write_Bus+0x20>)
    2854:	f44f 3200 	mov.w	r2, #131072	; 0x20000
    2858:	ea41 2100 	orr.w	r1, r1, r0, lsl #8
    285c:	6019      	str	r1, [r3, #0]
    285e:	6022      	str	r2, [r4, #0]
    2860:	601a      	str	r2, [r3, #0]
    2862:	bd10      	pop	{r4, pc}
    2864:	41008094 	.word	0x41008094
    2868:	41008098 	.word	0x41008098

0000286c <LCD_Write_COM16>:
    286c:	4b02      	ldr	r3, [pc, #8]	; (2878 <LCD_Write_COM16+0xc>)
    286e:	f44f 0200 	mov.w	r2, #8388608	; 0x800000
    2872:	601a      	str	r2, [r3, #0]
    2874:	4b01      	ldr	r3, [pc, #4]	; (287c <LCD_Write_COM16+0x10>)
    2876:	4718      	bx	r3
    2878:	41008094 	.word	0x41008094
    287c:	00002849 	.word	0x00002849

00002880 <LCD_Write_DATA16>:
    2880:	4b02      	ldr	r3, [pc, #8]	; (288c <LCD_Write_DATA16+0xc>)
    2882:	f44f 0200 	mov.w	r2, #8388608	; 0x800000
    2886:	601a      	str	r2, [r3, #0]
    2888:	4b01      	ldr	r3, [pc, #4]	; (2890 <LCD_Write_DATA16+0x10>)
    288a:	4718      	bx	r3
    288c:	41008098 	.word	0x41008098
    2890:	00002849 	.word	0x00002849

00002894 <LCD_Write_DATA8>:
    2894:	4b03      	ldr	r3, [pc, #12]	; (28a4 <LCD_Write_DATA8+0x10>)
    2896:	f44f 0200 	mov.w	r2, #8388608	; 0x800000
    289a:	601a      	str	r2, [r3, #0]
    289c:	4601      	mov	r1, r0
    289e:	4b02      	ldr	r3, [pc, #8]	; (28a8 <LCD_Write_DATA8+0x14>)
    28a0:	2000      	movs	r0, #0
    28a2:	4718      	bx	r3
    28a4:	41008098 	.word	0x41008098
    28a8:	00002849 	.word	0x00002849

000028ac <InitLCD>:
    28ac:	e92d 4ff7 	stmdb	sp!, {r0, r1, r2, r4, r5, r6, r7, r8, r9, sl, fp, lr}
    28b0:	4b82      	ldr	r3, [pc, #520]	; (2abc <InitLCD+0x210>)
    28b2:	4c83      	ldr	r4, [pc, #524]	; (2ac0 <InitLCD+0x214>)
    28b4:	f8df 8228 	ldr.w	r8, [pc, #552]	; 2ae0 <InitLCD+0x234>
    28b8:	f8df b228 	ldr.w	fp, [pc, #552]	; 2ae4 <InitLCD+0x238>
    28bc:	f04f 4580 	mov.w	r5, #1073741824	; 0x40000000
    28c0:	f44f 3280 	mov.w	r2, #65536	; 0x10000
    28c4:	f44f 0680 	mov.w	r6, #4194304	; 0x400000
    28c8:	f44f 0100 	mov.w	r1, #8388608	; 0x800000
    28cc:	f64f 77ff 	movw	r7, #65535	; 0xffff
    28d0:	f44f 3000 	mov.w	r0, #131072	; 0x20000
    28d4:	601f      	str	r7, [r3, #0]
    28d6:	601d      	str	r5, [r3, #0]
    28d8:	601e      	str	r6, [r3, #0]
    28da:	6018      	str	r0, [r3, #0]
    28dc:	6019      	str	r1, [r3, #0]
    28de:	601a      	str	r2, [r3, #0]
    28e0:	6027      	str	r7, [r4, #0]
    28e2:	4f78      	ldr	r7, [pc, #480]	; (2ac4 <InitLCD+0x218>)
    28e4:	6025      	str	r5, [r4, #0]
    28e6:	6026      	str	r6, [r4, #0]
    28e8:	6020      	str	r0, [r4, #0]
    28ea:	6021      	str	r1, [r4, #0]
    28ec:	2005      	movs	r0, #5
    28ee:	6022      	str	r2, [r4, #0]
    28f0:	601a      	str	r2, [r3, #0]
    28f2:	603a      	str	r2, [r7, #0]
    28f4:	603d      	str	r5, [r7, #0]
    28f6:	47c0      	blx	r8
    28f8:	6025      	str	r5, [r4, #0]
    28fa:	2005      	movs	r0, #5
    28fc:	47c0      	blx	r8
    28fe:	603d      	str	r5, [r7, #0]
    2900:	4d71      	ldr	r5, [pc, #452]	; (2ac8 <InitLCD+0x21c>)
    2902:	6026      	str	r6, [r4, #0]
    2904:	f04f 0900 	mov.w	r9, #0
    2908:	4626      	mov	r6, r4
    290a:	f10b 0346 	add.w	r3, fp, #70	; 0x46
    290e:	f44f 0400 	mov.w	r4, #8388608	; 0x800000
    2912:	f8df a1d4 	ldr.w	sl, [pc, #468]	; 2ae8 <InitLCD+0x23c>
    2916:	f813 0009 	ldrb.w	r0, [r3, r9]
    291a:	6034      	str	r4, [r6, #0]
    291c:	f81b 1009 	ldrb.w	r1, [fp, r9]
    2920:	9301      	str	r3, [sp, #4]
    2922:	47a8      	blx	r5
    2924:	603c      	str	r4, [r7, #0]
    2926:	f81a 0009 	ldrb.w	r0, [sl, r9]
    292a:	4c68      	ldr	r4, [pc, #416]	; (2acc <InitLCD+0x220>)
    292c:	f109 0901 	add.w	r9, r9, #1
    2930:	47a0      	blx	r4
    2932:	f1b9 0f46 	cmp.w	r9, #70	; 0x46
    2936:	9b01      	ldr	r3, [sp, #4]
    2938:	d1e9      	bne.n	290e <InitLCD+0x62>
    293a:	26d1      	movs	r6, #209	; 0xd1
    293c:	f10a 0a46 	add.w	sl, sl, #70	; 0x46
    2940:	f04f 0900 	mov.w	r9, #0
    2944:	2100      	movs	r1, #0
    2946:	4630      	mov	r0, r6
    2948:	47a8      	blx	r5
    294a:	f81a 0009 	ldrb.w	r0, [sl, r9]
    294e:	f109 0901 	add.w	r9, r9, #1
    2952:	47a0      	blx	r4
    2954:	f1b9 0f34 	cmp.w	r9, #52	; 0x34
    2958:	d1f4      	bne.n	2944 <InitLCD+0x98>
    295a:	3601      	adds	r6, #1
    295c:	b2f6      	uxtb	r6, r6
    295e:	2ed6      	cmp	r6, #214	; 0xd6
    2960:	d1ee      	bne.n	2940 <InitLCD+0x94>
    2962:	2100      	movs	r1, #0
    2964:	20f0      	movs	r0, #240	; 0xf0
    2966:	47a8      	blx	r5
    2968:	2055      	movs	r0, #85	; 0x55
    296a:	47a0      	blx	r4
    296c:	2101      	movs	r1, #1
    296e:	20f0      	movs	r0, #240	; 0xf0
    2970:	47a8      	blx	r5
    2972:	20aa      	movs	r0, #170	; 0xaa
    2974:	47a0      	blx	r4
    2976:	2102      	movs	r1, #2
    2978:	20f0      	movs	r0, #240	; 0xf0
    297a:	47a8      	blx	r5
    297c:	2052      	movs	r0, #82	; 0x52
    297e:	47a0      	blx	r4
    2980:	2103      	movs	r1, #3
    2982:	20f0      	movs	r0, #240	; 0xf0
    2984:	47a8      	blx	r5
    2986:	2008      	movs	r0, #8
    2988:	47a0      	blx	r4
    298a:	2104      	movs	r1, #4
    298c:	20f0      	movs	r0, #240	; 0xf0
    298e:	47a8      	blx	r5
    2990:	2000      	movs	r0, #0
    2992:	47a0      	blx	r4
    2994:	2100      	movs	r1, #0
    2996:	20b1      	movs	r0, #177	; 0xb1
    2998:	47a8      	blx	r5
    299a:	20cc      	movs	r0, #204	; 0xcc
    299c:	47a0      	blx	r4
    299e:	2101      	movs	r1, #1
    29a0:	20b1      	movs	r0, #177	; 0xb1
    29a2:	47a8      	blx	r5
    29a4:	2000      	movs	r0, #0
    29a6:	47a0      	blx	r4
    29a8:	2100      	movs	r1, #0
    29aa:	20b5      	movs	r0, #181	; 0xb5
    29ac:	47a8      	blx	r5
    29ae:	2050      	movs	r0, #80	; 0x50
    29b0:	47a0      	blx	r4
    29b2:	2100      	movs	r1, #0
    29b4:	20b6      	movs	r0, #182	; 0xb6
    29b6:	47a8      	blx	r5
    29b8:	2005      	movs	r0, #5
    29ba:	47a0      	blx	r4
    29bc:	2100      	movs	r1, #0
    29be:	20b7      	movs	r0, #183	; 0xb7
    29c0:	47a8      	blx	r5
    29c2:	2070      	movs	r0, #112	; 0x70
    29c4:	47a0      	blx	r4
    29c6:	2101      	movs	r1, #1
    29c8:	20b7      	movs	r0, #183	; 0xb7
    29ca:	47a8      	blx	r5
    29cc:	2070      	movs	r0, #112	; 0x70
    29ce:	47a0      	blx	r4
    29d0:	2100      	movs	r1, #0
    29d2:	20b8      	movs	r0, #184	; 0xb8
    29d4:	47a8      	blx	r5
    29d6:	2001      	movs	r0, #1
    29d8:	47a0      	blx	r4
    29da:	2101      	movs	r1, #1
    29dc:	20b8      	movs	r0, #184	; 0xb8
    29de:	47a8      	blx	r5
    29e0:	2003      	movs	r0, #3
    29e2:	47a0      	blx	r4
    29e4:	2102      	movs	r1, #2
    29e6:	20b8      	movs	r0, #184	; 0xb8
    29e8:	47a8      	blx	r5
    29ea:	2003      	movs	r0, #3
    29ec:	47a0      	blx	r4
    29ee:	2103      	movs	r1, #3
    29f0:	20b8      	movs	r0, #184	; 0xb8
    29f2:	47a8      	blx	r5
    29f4:	2003      	movs	r0, #3
    29f6:	47a0      	blx	r4
    29f8:	2100      	movs	r1, #0
    29fa:	20bc      	movs	r0, #188	; 0xbc
    29fc:	47a8      	blx	r5
    29fe:	2002      	movs	r0, #2
    2a00:	47a0      	blx	r4
    2a02:	2101      	movs	r1, #1
    2a04:	20bc      	movs	r0, #188	; 0xbc
    2a06:	47a8      	blx	r5
    2a08:	2000      	movs	r0, #0
    2a0a:	47a0      	blx	r4
    2a0c:	2102      	movs	r1, #2
    2a0e:	20bc      	movs	r0, #188	; 0xbc
    2a10:	47a8      	blx	r5
    2a12:	2000      	movs	r0, #0
    2a14:	47a0      	blx	r4
    2a16:	2100      	movs	r1, #0
    2a18:	20c9      	movs	r0, #201	; 0xc9
    2a1a:	47a8      	blx	r5
    2a1c:	20d0      	movs	r0, #208	; 0xd0
    2a1e:	47a0      	blx	r4
    2a20:	2101      	movs	r1, #1
    2a22:	20c9      	movs	r0, #201	; 0xc9
    2a24:	47a8      	blx	r5
    2a26:	2002      	movs	r0, #2
    2a28:	47a0      	blx	r4
    2a2a:	2102      	movs	r1, #2
    2a2c:	20c9      	movs	r0, #201	; 0xc9
    2a2e:	47a8      	blx	r5
    2a30:	2050      	movs	r0, #80	; 0x50
    2a32:	47a0      	blx	r4
    2a34:	2103      	movs	r1, #3
    2a36:	20c9      	movs	r0, #201	; 0xc9
    2a38:	47a8      	blx	r5
    2a3a:	2050      	movs	r0, #80	; 0x50
    2a3c:	47a0      	blx	r4
    2a3e:	2104      	movs	r1, #4
    2a40:	20c9      	movs	r0, #201	; 0xc9
    2a42:	47a8      	blx	r5
    2a44:	2050      	movs	r0, #80	; 0x50
    2a46:	47a0      	blx	r4
    2a48:	2100      	movs	r1, #0
    2a4a:	2035      	movs	r0, #53	; 0x35
    2a4c:	47a8      	blx	r5
    2a4e:	2000      	movs	r0, #0
    2a50:	47a0      	blx	r4
    2a52:	2100      	movs	r1, #0
    2a54:	203a      	movs	r0, #58	; 0x3a
    2a56:	47a8      	blx	r5
    2a58:	2055      	movs	r0, #85	; 0x55
    2a5a:	47a0      	blx	r4
    2a5c:	2100      	movs	r1, #0
    2a5e:	2036      	movs	r0, #54	; 0x36
    2a60:	47a8      	blx	r5
    2a62:	20e2      	movs	r0, #226	; 0xe2
    2a64:	47a0      	blx	r4
    2a66:	2100      	movs	r1, #0
    2a68:	2011      	movs	r0, #17
    2a6a:	47a8      	blx	r5
    2a6c:	2064      	movs	r0, #100	; 0x64
    2a6e:	47c0      	blx	r8
    2a70:	2100      	movs	r1, #0
    2a72:	2029      	movs	r0, #41	; 0x29
    2a74:	47a8      	blx	r5
    2a76:	2064      	movs	r0, #100	; 0x64
    2a78:	47c0      	blx	r8
    2a7a:	2100      	movs	r1, #0
    2a7c:	2051      	movs	r0, #81	; 0x51
    2a7e:	47a8      	blx	r5
    2a80:	20ff      	movs	r0, #255	; 0xff
    2a82:	47a0      	blx	r4
    2a84:	f44f 0380 	mov.w	r3, #4194304	; 0x400000
    2a88:	603b      	str	r3, [r7, #0]
    2a8a:	4b11      	ldr	r3, [pc, #68]	; (2ad0 <InitLCD+0x224>)
    2a8c:	4c11      	ldr	r4, [pc, #68]	; (2ad4 <InitLCD+0x228>)
    2a8e:	4798      	blx	r3
    2a90:	2200      	movs	r2, #0
    2a92:	4611      	mov	r1, r2
    2a94:	4610      	mov	r0, r2
    2a96:	4b10      	ldr	r3, [pc, #64]	; (2ad8 <InitLCD+0x22c>)
    2a98:	4798      	blx	r3
    2a9a:	2200      	movs	r2, #0
    2a9c:	4611      	mov	r1, r2
    2a9e:	4610      	mov	r0, r2
    2aa0:	4b0e      	ldr	r3, [pc, #56]	; (2adc <InitLCD+0x230>)
    2aa2:	4798      	blx	r3
    2aa4:	2100      	movs	r1, #0
    2aa6:	f240 13e9 	movw	r3, #489	; 0x1e9
    2aaa:	f240 321f 	movw	r2, #799	; 0x31f
    2aae:	4608      	mov	r0, r1
    2ab0:	46a4      	mov	ip, r4
    2ab2:	b003      	add	sp, #12
    2ab4:	e8bd 4ff0 	ldmia.w	sp!, {r4, r5, r6, r7, r8, r9, sl, fp, lr}
    2ab8:	4760      	bx	ip
    2aba:	bf00      	nop
    2abc:	41008088 	.word	0x41008088
    2ac0:	41008094 	.word	0x41008094
    2ac4:	41008098 	.word	0x41008098
    2ac8:	0000286d 	.word	0x0000286d
    2acc:	00002895 	.word	0x00002895
    2ad0:	000027f9 	.word	0x000027f9
    2ad4:	0000275d 	.word	0x0000275d
    2ad8:	00002609 	.word	0x00002609
    2adc:	00002645 	.word	0x00002645
    2ae0:	000003b5 	.word	0x000003b5
    2ae4:	00005960 	.word	0x00005960
    2ae8:	000059ec 	.word	0x000059ec

00002aec <main>:
    2aec:	b508      	push	{r3, lr}
    2aee:	4b06      	ldr	r3, [pc, #24]	; (2b08 <main+0x1c>)
    2af0:	4c06      	ldr	r4, [pc, #24]	; (2b0c <main+0x20>)
    2af2:	4798      	blx	r3
    2af4:	4b06      	ldr	r3, [pc, #24]	; (2b10 <main+0x24>)
    2af6:	4807      	ldr	r0, [pc, #28]	; (2b14 <main+0x28>)
    2af8:	4798      	blx	r3
    2afa:	4b07      	ldr	r3, [pc, #28]	; (2b18 <main+0x2c>)
    2afc:	4798      	blx	r3
    2afe:	4b07      	ldr	r3, [pc, #28]	; (2b1c <main+0x30>)
    2b00:	4798      	blx	r3
    2b02:	47a0      	blx	r4
    2b04:	e7fd      	b.n	2b02 <main+0x16>
    2b06:	bf00      	nop
    2b08:	0000203d 	.word	0x0000203d
    2b0c:	00002c31 	.word	0x00002c31
    2b10:	00002f35 	.word	0x00002f35
    2b14:	00005a66 	.word	0x00005a66
    2b18:	0000034d 	.word	0x0000034d
    2b1c:	000028ad 	.word	0x000028ad

00002b20 <persistent_storage_init>:
    2b20:	b510      	push	{r4, lr}
    2b22:	4b03      	ldr	r3, [pc, #12]	; (2b30 <persistent_storage_init+0x10>)
    2b24:	4803      	ldr	r0, [pc, #12]	; (2b34 <persistent_storage_init+0x14>)
    2b26:	4798      	blx	r3
    2b28:	4b03      	ldr	r3, [pc, #12]	; (2b38 <persistent_storage_init+0x18>)
    2b2a:	e8bd 4010 	ldmia.w	sp!, {r4, lr}
    2b2e:	4718      	bx	r3
    2b30:	00001bb5 	.word	0x00001bb5
    2b34:	20003118 	.word	0x20003118
    2b38:	00001e49 	.word	0x00001e49

00002b3c <drawKare>:
    2b3c:	e92d 43f0 	stmdb	sp!, {r4, r5, r6, r7, r8, r9, lr}
    2b40:	b0c1      	sub	sp, #260	; 0x104
    2b42:	ae0c      	add	r6, sp, #48	; 0x30
    2b44:	22d0      	movs	r2, #208	; 0xd0
    2b46:	4b35      	ldr	r3, [pc, #212]	; (2c1c <drawKare+0xe0>)
    2b48:	4935      	ldr	r1, [pc, #212]	; (2c20 <drawKare+0xe4>)
    2b4a:	4604      	mov	r4, r0
    2b4c:	4630      	mov	r0, r6
    2b4e:	4798      	blx	r3
    2b50:	4b34      	ldr	r3, [pc, #208]	; (2c24 <drawKare+0xe8>)
    2b52:	aa05      	add	r2, sp, #20
    2b54:	f103 0e18 	add.w	lr, r3, #24
    2b58:	4617      	mov	r7, r2
    2b5a:	6818      	ldr	r0, [r3, #0]
    2b5c:	6859      	ldr	r1, [r3, #4]
    2b5e:	4615      	mov	r5, r2
    2b60:	c503      	stmia	r5!, {r0, r1}
    2b62:	3308      	adds	r3, #8
    2b64:	4573      	cmp	r3, lr
    2b66:	462a      	mov	r2, r5
    2b68:	d1f7      	bne.n	2b5a <drawKare+0x1e>
    2b6a:	6818      	ldr	r0, [r3, #0]
    2b6c:	4b2e      	ldr	r3, [pc, #184]	; (2c28 <drawKare+0xec>)
    2b6e:	6028      	str	r0, [r5, #0]
    2b70:	466a      	mov	r2, sp
    2b72:	f103 0e10 	add.w	lr, r3, #16
    2b76:	6818      	ldr	r0, [r3, #0]
    2b78:	6859      	ldr	r1, [r3, #4]
    2b7a:	4615      	mov	r5, r2
    2b7c:	c503      	stmia	r5!, {r0, r1}
    2b7e:	3308      	adds	r3, #8
    2b80:	4573      	cmp	r3, lr
    2b82:	462a      	mov	r2, r5
    2b84:	d1f7      	bne.n	2b76 <drawKare+0x3a>
    2b86:	f8df 90a4 	ldr.w	r9, [pc, #164]	; 2c2c <drawKare+0xf0>
    2b8a:	6818      	ldr	r0, [r3, #0]
    2b8c:	6028      	str	r0, [r5, #0]
    2b8e:	46c8      	mov	r8, r9
    2b90:	2500      	movs	r5, #0
    2b92:	1971      	adds	r1, r6, r5
    2b94:	5b70      	ldrh	r0, [r6, r5]
    2b96:	88cb      	ldrh	r3, [r1, #6]
    2b98:	888a      	ldrh	r2, [r1, #4]
    2b9a:	8849      	ldrh	r1, [r1, #2]
    2b9c:	105b      	asrs	r3, r3, #1
    2b9e:	1052      	asrs	r2, r2, #1
    2ba0:	1049      	asrs	r1, r1, #1
    2ba2:	1040      	asrs	r0, r0, #1
    2ba4:	3396      	adds	r3, #150	; 0x96
    2ba6:	f502 7296 	add.w	r2, r2, #300	; 0x12c
    2baa:	3196      	adds	r1, #150	; 0x96
    2bac:	f500 7096 	add.w	r0, r0, #300	; 0x12c
    2bb0:	3508      	adds	r5, #8
    2bb2:	47c8      	blx	r9
    2bb4:	2dd0      	cmp	r5, #208	; 0xd0
    2bb6:	d1ec      	bne.n	2b92 <drawKare+0x56>
    2bb8:	b124      	cbz	r4, 2bc4 <drawKare+0x88>
    2bba:	2c01      	cmp	r4, #1
    2bbc:	d016      	beq.n	2bec <drawKare+0xb0>
    2bbe:	b041      	add	sp, #260	; 0x104
    2bc0:	e8bd 83f0 	ldmia.w	sp!, {r4, r5, r6, r7, r8, r9, pc}
    2bc4:	1939      	adds	r1, r7, r4
    2bc6:	5d38      	ldrb	r0, [r7, r4]
    2bc8:	78cb      	ldrb	r3, [r1, #3]
    2bca:	788a      	ldrb	r2, [r1, #2]
    2bcc:	7849      	ldrb	r1, [r1, #1]
    2bce:	105b      	asrs	r3, r3, #1
    2bd0:	1052      	asrs	r2, r2, #1
    2bd2:	1049      	asrs	r1, r1, #1
    2bd4:	1040      	asrs	r0, r0, #1
    2bd6:	3396      	adds	r3, #150	; 0x96
    2bd8:	f502 7296 	add.w	r2, r2, #300	; 0x12c
    2bdc:	3196      	adds	r1, #150	; 0x96
    2bde:	f500 7096 	add.w	r0, r0, #300	; 0x12c
    2be2:	3404      	adds	r4, #4
    2be4:	47c0      	blx	r8
    2be6:	2c1c      	cmp	r4, #28
    2be8:	d1ec      	bne.n	2bc4 <drawKare+0x88>
    2bea:	e7e8      	b.n	2bbe <drawKare+0x82>
    2bec:	2400      	movs	r4, #0
    2bee:	eb0d 0104 	add.w	r1, sp, r4
    2bf2:	f81d 0004 	ldrb.w	r0, [sp, r4]
    2bf6:	78cb      	ldrb	r3, [r1, #3]
    2bf8:	788a      	ldrb	r2, [r1, #2]
    2bfa:	7849      	ldrb	r1, [r1, #1]
    2bfc:	105b      	asrs	r3, r3, #1
    2bfe:	1052      	asrs	r2, r2, #1
    2c00:	1049      	asrs	r1, r1, #1
    2c02:	1040      	asrs	r0, r0, #1
    2c04:	3396      	adds	r3, #150	; 0x96
    2c06:	f502 7296 	add.w	r2, r2, #300	; 0x12c
    2c0a:	3196      	adds	r1, #150	; 0x96
    2c0c:	f500 7096 	add.w	r0, r0, #300	; 0x12c
    2c10:	3404      	adds	r4, #4
    2c12:	47c0      	blx	r8
    2c14:	2c14      	cmp	r4, #20
    2c16:	d1ea      	bne.n	2bee <drawKare+0xb2>
    2c18:	e7d1      	b.n	2bbe <drawKare+0x82>
    2c1a:	bf00      	nop
    2c1c:	00002f0f 	.word	0x00002f0f
    2c20:	00005a7c 	.word	0x00005a7c
    2c24:	00005b4c 	.word	0x00005b4c
    2c28:	00005b68 	.word	0x00005b68
    2c2c:	0000275d 	.word	0x0000275d

00002c30 <splashScreen>:
    2c30:	e92d 41f0 	stmdb	sp!, {r4, r5, r6, r7, r8, lr}
    2c34:	4c5e      	ldr	r4, [pc, #376]	; (2db0 <splashScreen+0x180>)
    2c36:	4b5f      	ldr	r3, [pc, #380]	; (2db4 <splashScreen+0x184>)
    2c38:	6023      	str	r3, [r4, #0]
    2c3a:	4b5f      	ldr	r3, [pc, #380]	; (2db8 <splashScreen+0x188>)
    2c3c:	6063      	str	r3, [r4, #4]
    2c3e:	4b5f      	ldr	r3, [pc, #380]	; (2dbc <splashScreen+0x18c>)
    2c40:	60a3      	str	r3, [r4, #8]
    2c42:	4b5f      	ldr	r3, [pc, #380]	; (2dc0 <splashScreen+0x190>)
    2c44:	60e3      	str	r3, [r4, #12]
    2c46:	4b5f      	ldr	r3, [pc, #380]	; (2dc4 <splashScreen+0x194>)
    2c48:	6123      	str	r3, [r4, #16]
    2c4a:	4b5f      	ldr	r3, [pc, #380]	; (2dc8 <splashScreen+0x198>)
    2c4c:	6163      	str	r3, [r4, #20]
    2c4e:	4b5f      	ldr	r3, [pc, #380]	; (2dcc <splashScreen+0x19c>)
    2c50:	61a3      	str	r3, [r4, #24]
    2c52:	4b5f      	ldr	r3, [pc, #380]	; (2dd0 <splashScreen+0x1a0>)
    2c54:	61e3      	str	r3, [r4, #28]
    2c56:	4b5f      	ldr	r3, [pc, #380]	; (2dd4 <splashScreen+0x1a4>)
    2c58:	6223      	str	r3, [r4, #32]
    2c5a:	4b5f      	ldr	r3, [pc, #380]	; (2dd8 <splashScreen+0x1a8>)
    2c5c:	6263      	str	r3, [r4, #36]	; 0x24
    2c5e:	4b5f      	ldr	r3, [pc, #380]	; (2ddc <splashScreen+0x1ac>)
    2c60:	62a3      	str	r3, [r4, #40]	; 0x28
    2c62:	4b5f      	ldr	r3, [pc, #380]	; (2de0 <splashScreen+0x1b0>)
    2c64:	62e3      	str	r3, [r4, #44]	; 0x2c
    2c66:	4b5f      	ldr	r3, [pc, #380]	; (2de4 <splashScreen+0x1b4>)
    2c68:	6323      	str	r3, [r4, #48]	; 0x30
    2c6a:	4b5f      	ldr	r3, [pc, #380]	; (2de8 <splashScreen+0x1b8>)
    2c6c:	6363      	str	r3, [r4, #52]	; 0x34
    2c6e:	4b5f      	ldr	r3, [pc, #380]	; (2dec <splashScreen+0x1bc>)
    2c70:	63a3      	str	r3, [r4, #56]	; 0x38
    2c72:	4b5f      	ldr	r3, [pc, #380]	; (2df0 <splashScreen+0x1c0>)
    2c74:	63e3      	str	r3, [r4, #60]	; 0x3c
    2c76:	4b5f      	ldr	r3, [pc, #380]	; (2df4 <splashScreen+0x1c4>)
    2c78:	6423      	str	r3, [r4, #64]	; 0x40
    2c7a:	4b5f      	ldr	r3, [pc, #380]	; (2df8 <splashScreen+0x1c8>)
    2c7c:	6463      	str	r3, [r4, #68]	; 0x44
    2c7e:	4b5f      	ldr	r3, [pc, #380]	; (2dfc <splashScreen+0x1cc>)
    2c80:	64a3      	str	r3, [r4, #72]	; 0x48
    2c82:	4b5f      	ldr	r3, [pc, #380]	; (2e00 <splashScreen+0x1d0>)
    2c84:	64e3      	str	r3, [r4, #76]	; 0x4c
    2c86:	4b5f      	ldr	r3, [pc, #380]	; (2e04 <splashScreen+0x1d4>)
    2c88:	6523      	str	r3, [r4, #80]	; 0x50
    2c8a:	4b5f      	ldr	r3, [pc, #380]	; (2e08 <splashScreen+0x1d8>)
    2c8c:	6563      	str	r3, [r4, #84]	; 0x54
    2c8e:	4b5f      	ldr	r3, [pc, #380]	; (2e0c <splashScreen+0x1dc>)
    2c90:	65a3      	str	r3, [r4, #88]	; 0x58
    2c92:	4b5f      	ldr	r3, [pc, #380]	; (2e10 <splashScreen+0x1e0>)
    2c94:	65e3      	str	r3, [r4, #92]	; 0x5c
    2c96:	4b5f      	ldr	r3, [pc, #380]	; (2e14 <splashScreen+0x1e4>)
    2c98:	6623      	str	r3, [r4, #96]	; 0x60
    2c9a:	4b5f      	ldr	r3, [pc, #380]	; (2e18 <splashScreen+0x1e8>)
    2c9c:	6663      	str	r3, [r4, #100]	; 0x64
    2c9e:	4b5f      	ldr	r3, [pc, #380]	; (2e1c <splashScreen+0x1ec>)
    2ca0:	66a3      	str	r3, [r4, #104]	; 0x68
    2ca2:	4b5f      	ldr	r3, [pc, #380]	; (2e20 <splashScreen+0x1f0>)
    2ca4:	66e3      	str	r3, [r4, #108]	; 0x6c
    2ca6:	4b5f      	ldr	r3, [pc, #380]	; (2e24 <splashScreen+0x1f4>)
    2ca8:	6723      	str	r3, [r4, #112]	; 0x70
    2caa:	4b5f      	ldr	r3, [pc, #380]	; (2e28 <splashScreen+0x1f8>)
    2cac:	6763      	str	r3, [r4, #116]	; 0x74
    2cae:	4b5f      	ldr	r3, [pc, #380]	; (2e2c <splashScreen+0x1fc>)
    2cb0:	67a3      	str	r3, [r4, #120]	; 0x78
    2cb2:	4b5f      	ldr	r3, [pc, #380]	; (2e30 <splashScreen+0x200>)
    2cb4:	67e3      	str	r3, [r4, #124]	; 0x7c
    2cb6:	4b5f      	ldr	r3, [pc, #380]	; (2e34 <splashScreen+0x204>)
    2cb8:	f8c4 3080 	str.w	r3, [r4, #128]	; 0x80
    2cbc:	4b5e      	ldr	r3, [pc, #376]	; (2e38 <splashScreen+0x208>)
    2cbe:	4e5f      	ldr	r6, [pc, #380]	; (2e3c <splashScreen+0x20c>)
    2cc0:	4798      	blx	r3
    2cc2:	4243      	negs	r3, r0
    2cc4:	f003 031f 	and.w	r3, r3, #31
    2cc8:	f000 001f 	and.w	r0, r0, #31
    2ccc:	bf58      	it	pl
    2cce:	4258      	negpl	r0, r3
    2cd0:	22ff      	movs	r2, #255	; 0xff
    2cd2:	f854 7020 	ldr.w	r7, [r4, r0, lsl #2]
    2cd6:	4611      	mov	r1, r2
    2cd8:	4610      	mov	r0, r2
    2cda:	47b0      	blx	r6
    2cdc:	4b58      	ldr	r3, [pc, #352]	; (2e40 <splashScreen+0x210>)
    2cde:	f04f 4200 	mov.w	r2, #2147483648	; 0x80000000
    2ce2:	601a      	str	r2, [r3, #0]
    2ce4:	f893 2053 	ldrb.w	r2, [r3, #83]	; 0x53
    2ce8:	f042 0204 	orr.w	r2, r2, #4
    2cec:	f883 2053 	strb.w	r2, [r3, #83]	; 0x53
    2cf0:	f893 2053 	ldrb.w	r2, [r3, #83]	; 0x53
    2cf4:	f042 0202 	orr.w	r2, r2, #2
    2cf8:	f883 2053 	strb.w	r2, [r3, #83]	; 0x53
    2cfc:	3b8c      	subs	r3, #140	; 0x8c
    2cfe:	f8d3 30a0 	ldr.w	r3, [r3, #160]	; 0xa0
    2d02:	2b00      	cmp	r3, #0
    2d04:	4b4f      	ldr	r3, [pc, #316]	; (2e44 <splashScreen+0x214>)
    2d06:	da50      	bge.n	2daa <splashScreen+0x17a>
    2d08:	2001      	movs	r0, #1
    2d0a:	4798      	blx	r3
    2d0c:	4c4e      	ldr	r4, [pc, #312]	; (2e48 <splashScreen+0x218>)
    2d0e:	484f      	ldr	r0, [pc, #316]	; (2e4c <splashScreen+0x21c>)
    2d10:	2300      	movs	r3, #0
    2d12:	2200      	movs	r2, #0
    2d14:	1819      	adds	r1, r3, r0
    2d16:	f841 4022 	str.w	r4, [r1, r2, lsl #2]
    2d1a:	3201      	adds	r2, #1
    2d1c:	2a18      	cmp	r2, #24
    2d1e:	d1fa      	bne.n	2d16 <splashScreen+0xe6>
    2d20:	3360      	adds	r3, #96	; 0x60
    2d22:	f5b3 5ff0 	cmp.w	r3, #7680	; 0x1e00
    2d26:	d1f4      	bne.n	2d12 <splashScreen+0xe2>
    2d28:	4b49      	ldr	r3, [pc, #292]	; (2e50 <splashScreen+0x220>)
    2d2a:	f8df 8158 	ldr.w	r8, [pc, #344]	; 2e84 <splashScreen+0x254>
    2d2e:	8818      	ldrh	r0, [r3, #0]
    2d30:	4b48      	ldr	r3, [pc, #288]	; (2e54 <splashScreen+0x224>)
    2d32:	4d49      	ldr	r5, [pc, #292]	; (2e58 <splashScreen+0x228>)
    2d34:	4c49      	ldr	r4, [pc, #292]	; (2e5c <splashScreen+0x22c>)
    2d36:	4798      	blx	r3
    2d38:	4b49      	ldr	r3, [pc, #292]	; (2e60 <splashScreen+0x230>)
    2d3a:	8818      	ldrh	r0, [r3, #0]
    2d3c:	4b49      	ldr	r3, [pc, #292]	; (2e64 <splashScreen+0x234>)
    2d3e:	4798      	blx	r3
    2d40:	4638      	mov	r0, r7
    2d42:	47c0      	blx	r8
    2d44:	0840      	lsrs	r0, r0, #1
    2d46:	f1c0 0028 	rsb	r0, r0, #40	; 0x28
    2d4a:	2310      	movs	r3, #16
    2d4c:	8028      	strh	r0, [r5, #0]
    2d4e:	4638      	mov	r0, r7
    2d50:	4f45      	ldr	r7, [pc, #276]	; (2e68 <splashScreen+0x238>)
    2d52:	8023      	strh	r3, [r4, #0]
    2d54:	47b8      	blx	r7
    2d56:	4845      	ldr	r0, [pc, #276]	; (2e6c <splashScreen+0x23c>)
    2d58:	47c0      	blx	r8
    2d5a:	0840      	lsrs	r0, r0, #1
    2d5c:	f1c0 0028 	rsb	r0, r0, #40	; 0x28
    2d60:	2312      	movs	r3, #18
    2d62:	8028      	strh	r0, [r5, #0]
    2d64:	4841      	ldr	r0, [pc, #260]	; (2e6c <splashScreen+0x23c>)
    2d66:	8023      	strh	r3, [r4, #0]
    2d68:	47b8      	blx	r7
    2d6a:	4841      	ldr	r0, [pc, #260]	; (2e70 <splashScreen+0x240>)
    2d6c:	47c0      	blx	r8
    2d6e:	0840      	lsrs	r0, r0, #1
    2d70:	f1c0 0028 	rsb	r0, r0, #40	; 0x28
    2d74:	2313      	movs	r3, #19
    2d76:	8028      	strh	r0, [r5, #0]
    2d78:	483d      	ldr	r0, [pc, #244]	; (2e70 <splashScreen+0x240>)
    2d7a:	8023      	strh	r3, [r4, #0]
    2d7c:	47b8      	blx	r7
    2d7e:	4b3d      	ldr	r3, [pc, #244]	; (2e74 <splashScreen+0x244>)
    2d80:	f44f 7096 	mov.w	r0, #300	; 0x12c
    2d84:	4798      	blx	r3
    2d86:	4b3c      	ldr	r3, [pc, #240]	; (2e78 <splashScreen+0x248>)
    2d88:	4798      	blx	r3
    2d8a:	4b3c      	ldr	r3, [pc, #240]	; (2e7c <splashScreen+0x24c>)
    2d8c:	4798      	blx	r3
    2d8e:	2200      	movs	r2, #0
    2d90:	4610      	mov	r0, r2
    2d92:	21ff      	movs	r1, #255	; 0xff
    2d94:	47b0      	blx	r6
    2d96:	2200      	movs	r2, #0
    2d98:	4b39      	ldr	r3, [pc, #228]	; (2e80 <splashScreen+0x250>)
    2d9a:	4611      	mov	r1, r2
    2d9c:	4610      	mov	r0, r2
    2d9e:	4798      	blx	r3
    2da0:	2300      	movs	r3, #0
    2da2:	802b      	strh	r3, [r5, #0]
    2da4:	8023      	strh	r3, [r4, #0]
    2da6:	e8bd 81f0 	ldmia.w	sp!, {r4, r5, r6, r7, r8, pc}
    2daa:	2000      	movs	r0, #0
    2dac:	e7ad      	b.n	2d0a <splashScreen+0xda>
    2dae:	bf00      	nop
    2db0:	20000378 	.word	0x20000378
    2db4:	00005b7c 	.word	0x00005b7c
    2db8:	00005b9a 	.word	0x00005b9a
    2dbc:	00005bad 	.word	0x00005bad
    2dc0:	00005bc2 	.word	0x00005bc2
    2dc4:	00005bd1 	.word	0x00005bd1
    2dc8:	00005bd9 	.word	0x00005bd9
    2dcc:	00005bfe 	.word	0x00005bfe
    2dd0:	00005c2a 	.word	0x00005c2a
    2dd4:	00005c51 	.word	0x00005c51
    2dd8:	00005c7d 	.word	0x00005c7d
    2ddc:	00005c88 	.word	0x00005c88
    2de0:	00005c9e 	.word	0x00005c9e
    2de4:	00005cbd 	.word	0x00005cbd
    2de8:	00005cdd 	.word	0x00005cdd
    2dec:	00005cff 	.word	0x00005cff
    2df0:	00005d0c 	.word	0x00005d0c
    2df4:	00005d17 	.word	0x00005d17
    2df8:	00005d32 	.word	0x00005d32
    2dfc:	00005d50 	.word	0x00005d50
    2e00:	00005d89 	.word	0x00005d89
    2e04:	00005da2 	.word	0x00005da2
    2e08:	00005dbb 	.word	0x00005dbb
    2e0c:	00005dcb 	.word	0x00005dcb
    2e10:	00005dec 	.word	0x00005dec
    2e14:	00005e16 	.word	0x00005e16
    2e18:	00005e40 	.word	0x00005e40
    2e1c:	00005e5e 	.word	0x00005e5e
    2e20:	00005e7d 	.word	0x00005e7d
    2e24:	00005e90 	.word	0x00005e90
    2e28:	00005eac 	.word	0x00005eac
    2e2c:	00005ebc 	.word	0x00005ebc
    2e30:	00005ede 	.word	0x00005ede
    2e34:	00005efb 	.word	0x00005efb
    2e38:	00002f65 	.word	0x00002f65
    2e3c:	00002609 	.word	0x00002609
    2e40:	4100808c 	.word	0x4100808c
    2e44:	00002b3d 	.word	0x00002b3d
    2e48:	ffff0000 	.word	0xffff0000
    2e4c:	20001314 	.word	0x20001314
    2e50:	2000002e 	.word	0x2000002e
    2e54:	0000262d 	.word	0x0000262d
    2e58:	2000036c 	.word	0x2000036c
    2e5c:	2000036e 	.word	0x2000036e
    2e60:	20000372 	.word	0x20000372
    2e64:	00002669 	.word	0x00002669
    2e68:	000021f5 	.word	0x000021f5
    2e6c:	20000004 	.word	0x20000004
    2e70:	20000014 	.word	0x20000014
    2e74:	000003b5 	.word	0x000003b5
    2e78:	00002819 	.word	0x00002819
    2e7c:	00002231 	.word	0x00002231
    2e80:	00002645 	.word	0x00002645
    2e84:	00003145 	.word	0x00003145

00002e88 <stdio_redirect_init>:
    2e88:	b510      	push	{r4, lr}
    2e8a:	4c04      	ldr	r4, [pc, #16]	; (2e9c <stdio_redirect_init+0x14>)
    2e8c:	4b04      	ldr	r3, [pc, #16]	; (2ea0 <stdio_redirect_init+0x18>)
    2e8e:	4620      	mov	r0, r4
    2e90:	4798      	blx	r3
    2e92:	4620      	mov	r0, r4
    2e94:	4b03      	ldr	r3, [pc, #12]	; (2ea4 <stdio_redirect_init+0x1c>)
    2e96:	e8bd 4010 	ldmia.w	sp!, {r4, lr}
    2e9a:	4718      	bx	r3
    2e9c:	20003134 	.word	0x20003134
    2ea0:	0000062d 	.word	0x0000062d
    2ea4:	00001fd9 	.word	0x00001fd9

00002ea8 <__libc_init_array>:
    2ea8:	b570      	push	{r4, r5, r6, lr}
    2eaa:	4e0d      	ldr	r6, [pc, #52]	; (2ee0 <__libc_init_array+0x38>)
    2eac:	4c0d      	ldr	r4, [pc, #52]	; (2ee4 <__libc_init_array+0x3c>)
    2eae:	1ba4      	subs	r4, r4, r6
    2eb0:	10a4      	asrs	r4, r4, #2
    2eb2:	2500      	movs	r5, #0
    2eb4:	42a5      	cmp	r5, r4
    2eb6:	d109      	bne.n	2ecc <__libc_init_array+0x24>
    2eb8:	4e0b      	ldr	r6, [pc, #44]	; (2ee8 <__libc_init_array+0x40>)
    2eba:	4c0c      	ldr	r4, [pc, #48]	; (2eec <__libc_init_array+0x44>)
    2ebc:	f003 f878 	bl	5fb0 <_init>
    2ec0:	1ba4      	subs	r4, r4, r6
    2ec2:	10a4      	asrs	r4, r4, #2
    2ec4:	2500      	movs	r5, #0
    2ec6:	42a5      	cmp	r5, r4
    2ec8:	d105      	bne.n	2ed6 <__libc_init_array+0x2e>
    2eca:	bd70      	pop	{r4, r5, r6, pc}
    2ecc:	f856 3025 	ldr.w	r3, [r6, r5, lsl #2]
    2ed0:	4798      	blx	r3
    2ed2:	3501      	adds	r5, #1
    2ed4:	e7ee      	b.n	2eb4 <__libc_init_array+0xc>
    2ed6:	f856 3025 	ldr.w	r3, [r6, r5, lsl #2]
    2eda:	4798      	blx	r3
    2edc:	3501      	adds	r5, #1
    2ede:	e7f2      	b.n	2ec6 <__libc_init_array+0x1e>
    2ee0:	00005fbc 	.word	0x00005fbc
    2ee4:	00005fbc 	.word	0x00005fbc
    2ee8:	00005fbc 	.word	0x00005fbc
    2eec:	00005fc0 	.word	0x00005fc0

00002ef0 <memcmp>:
    2ef0:	b510      	push	{r4, lr}
    2ef2:	3901      	subs	r1, #1
    2ef4:	4402      	add	r2, r0
    2ef6:	4290      	cmp	r0, r2
    2ef8:	d101      	bne.n	2efe <memcmp+0xe>
    2efa:	2000      	movs	r0, #0
    2efc:	bd10      	pop	{r4, pc}
    2efe:	f810 3b01 	ldrb.w	r3, [r0], #1
    2f02:	f811 4f01 	ldrb.w	r4, [r1, #1]!
    2f06:	42a3      	cmp	r3, r4
    2f08:	d0f5      	beq.n	2ef6 <memcmp+0x6>
    2f0a:	1b18      	subs	r0, r3, r4
    2f0c:	bd10      	pop	{r4, pc}

00002f0e <memcpy>:
    2f0e:	b510      	push	{r4, lr}
    2f10:	1e43      	subs	r3, r0, #1
    2f12:	440a      	add	r2, r1
    2f14:	4291      	cmp	r1, r2
    2f16:	d100      	bne.n	2f1a <memcpy+0xc>
    2f18:	bd10      	pop	{r4, pc}
    2f1a:	f811 4b01 	ldrb.w	r4, [r1], #1
    2f1e:	f803 4f01 	strb.w	r4, [r3, #1]!
    2f22:	e7f7      	b.n	2f14 <memcpy+0x6>

00002f24 <memset>:
    2f24:	4402      	add	r2, r0
    2f26:	4603      	mov	r3, r0
    2f28:	4293      	cmp	r3, r2
    2f2a:	d100      	bne.n	2f2e <memset+0xa>
    2f2c:	4770      	bx	lr
    2f2e:	f803 1b01 	strb.w	r1, [r3], #1
    2f32:	e7f9      	b.n	2f28 <memset+0x4>

00002f34 <iprintf>:
    2f34:	b40f      	push	{r0, r1, r2, r3}
    2f36:	4b0a      	ldr	r3, [pc, #40]	; (2f60 <iprintf+0x2c>)
    2f38:	b513      	push	{r0, r1, r4, lr}
    2f3a:	681c      	ldr	r4, [r3, #0]
    2f3c:	b124      	cbz	r4, 2f48 <iprintf+0x14>
    2f3e:	69a3      	ldr	r3, [r4, #24]
    2f40:	b913      	cbnz	r3, 2f48 <iprintf+0x14>
    2f42:	4620      	mov	r0, r4
    2f44:	f000 fab8 	bl	34b8 <__sinit>
    2f48:	ab05      	add	r3, sp, #20
    2f4a:	9a04      	ldr	r2, [sp, #16]
    2f4c:	68a1      	ldr	r1, [r4, #8]
    2f4e:	9301      	str	r3, [sp, #4]
    2f50:	4620      	mov	r0, r4
    2f52:	f000 fc7b 	bl	384c <_vfiprintf_r>
    2f56:	b002      	add	sp, #8
    2f58:	e8bd 4010 	ldmia.w	sp!, {r4, lr}
    2f5c:	b004      	add	sp, #16
    2f5e:	4770      	bx	lr
    2f60:	20000038 	.word	0x20000038

00002f64 <rand>:
    2f64:	4b19      	ldr	r3, [pc, #100]	; (2fcc <rand+0x68>)
    2f66:	b510      	push	{r4, lr}
    2f68:	681c      	ldr	r4, [r3, #0]
    2f6a:	6ba3      	ldr	r3, [r4, #56]	; 0x38
    2f6c:	b9d3      	cbnz	r3, 2fa4 <rand+0x40>
    2f6e:	2018      	movs	r0, #24
    2f70:	f000 fb90 	bl	3694 <malloc>
    2f74:	f243 330e 	movw	r3, #13070	; 0x330e
    2f78:	63a0      	str	r0, [r4, #56]	; 0x38
    2f7a:	8003      	strh	r3, [r0, #0]
    2f7c:	f64a 33cd 	movw	r3, #43981	; 0xabcd
    2f80:	8043      	strh	r3, [r0, #2]
    2f82:	f241 2334 	movw	r3, #4660	; 0x1234
    2f86:	8083      	strh	r3, [r0, #4]
    2f88:	f24e 636d 	movw	r3, #58989	; 0xe66d
    2f8c:	80c3      	strh	r3, [r0, #6]
    2f8e:	f64d 63ec 	movw	r3, #57068	; 0xdeec
    2f92:	8103      	strh	r3, [r0, #8]
    2f94:	2305      	movs	r3, #5
    2f96:	8143      	strh	r3, [r0, #10]
    2f98:	230b      	movs	r3, #11
    2f9a:	8183      	strh	r3, [r0, #12]
    2f9c:	2201      	movs	r2, #1
    2f9e:	2300      	movs	r3, #0
    2fa0:	e9c0 2304 	strd	r2, r3, [r0, #16]
    2fa4:	6ba1      	ldr	r1, [r4, #56]	; 0x38
    2fa6:	480a      	ldr	r0, [pc, #40]	; (2fd0 <rand+0x6c>)
    2fa8:	690a      	ldr	r2, [r1, #16]
    2faa:	694b      	ldr	r3, [r1, #20]
    2fac:	4c09      	ldr	r4, [pc, #36]	; (2fd4 <rand+0x70>)
    2fae:	4350      	muls	r0, r2
    2fb0:	fb04 0003 	mla	r0, r4, r3, r0
    2fb4:	fba2 2304 	umull	r2, r3, r2, r4
    2fb8:	3201      	adds	r2, #1
    2fba:	4403      	add	r3, r0
    2fbc:	f143 0300 	adc.w	r3, r3, #0
    2fc0:	e9c1 2304 	strd	r2, r3, [r1, #16]
    2fc4:	f023 4000 	bic.w	r0, r3, #2147483648	; 0x80000000
    2fc8:	bd10      	pop	{r4, pc}
    2fca:	bf00      	nop
    2fcc:	20000038 	.word	0x20000038
    2fd0:	5851f42d 	.word	0x5851f42d
    2fd4:	4c957f2d 	.word	0x4c957f2d

00002fd8 <setbuf>:
    2fd8:	2900      	cmp	r1, #0
    2fda:	f44f 6380 	mov.w	r3, #1024	; 0x400
    2fde:	bf0c      	ite	eq
    2fe0:	2202      	moveq	r2, #2
    2fe2:	2200      	movne	r2, #0
    2fe4:	f000 b800 	b.w	2fe8 <setvbuf>

00002fe8 <setvbuf>:
    2fe8:	e92d 43f7 	stmdb	sp!, {r0, r1, r2, r4, r5, r6, r7, r8, r9, lr}
    2fec:	461d      	mov	r5, r3
    2fee:	4b51      	ldr	r3, [pc, #324]	; (3134 <setvbuf+0x14c>)
    2ff0:	681e      	ldr	r6, [r3, #0]
    2ff2:	4604      	mov	r4, r0
    2ff4:	460f      	mov	r7, r1
    2ff6:	4690      	mov	r8, r2
    2ff8:	b126      	cbz	r6, 3004 <setvbuf+0x1c>
    2ffa:	69b3      	ldr	r3, [r6, #24]
    2ffc:	b913      	cbnz	r3, 3004 <setvbuf+0x1c>
    2ffe:	4630      	mov	r0, r6
    3000:	f000 fa5a 	bl	34b8 <__sinit>
    3004:	4b4c      	ldr	r3, [pc, #304]	; (3138 <setvbuf+0x150>)
    3006:	429c      	cmp	r4, r3
    3008:	d152      	bne.n	30b0 <setvbuf+0xc8>
    300a:	6874      	ldr	r4, [r6, #4]
    300c:	f1b8 0f02 	cmp.w	r8, #2
    3010:	d006      	beq.n	3020 <setvbuf+0x38>
    3012:	f1b8 0f01 	cmp.w	r8, #1
    3016:	f200 8089 	bhi.w	312c <setvbuf+0x144>
    301a:	2d00      	cmp	r5, #0
    301c:	f2c0 8086 	blt.w	312c <setvbuf+0x144>
    3020:	4621      	mov	r1, r4
    3022:	4630      	mov	r0, r6
    3024:	f000 f9de 	bl	33e4 <_fflush_r>
    3028:	6b61      	ldr	r1, [r4, #52]	; 0x34
    302a:	b141      	cbz	r1, 303e <setvbuf+0x56>
    302c:	f104 0344 	add.w	r3, r4, #68	; 0x44
    3030:	4299      	cmp	r1, r3
    3032:	d002      	beq.n	303a <setvbuf+0x52>
    3034:	4630      	mov	r0, r6
    3036:	f000 fb35 	bl	36a4 <_free_r>
    303a:	2300      	movs	r3, #0
    303c:	6363      	str	r3, [r4, #52]	; 0x34
    303e:	2300      	movs	r3, #0
    3040:	61a3      	str	r3, [r4, #24]
    3042:	6063      	str	r3, [r4, #4]
    3044:	89a3      	ldrh	r3, [r4, #12]
    3046:	061b      	lsls	r3, r3, #24
    3048:	d503      	bpl.n	3052 <setvbuf+0x6a>
    304a:	6921      	ldr	r1, [r4, #16]
    304c:	4630      	mov	r0, r6
    304e:	f000 fb29 	bl	36a4 <_free_r>
    3052:	89a3      	ldrh	r3, [r4, #12]
    3054:	f423 634a 	bic.w	r3, r3, #3232	; 0xca0
    3058:	f023 0303 	bic.w	r3, r3, #3
    305c:	f1b8 0f02 	cmp.w	r8, #2
    3060:	81a3      	strh	r3, [r4, #12]
    3062:	d05d      	beq.n	3120 <setvbuf+0x138>
    3064:	ab01      	add	r3, sp, #4
    3066:	466a      	mov	r2, sp
    3068:	4621      	mov	r1, r4
    306a:	4630      	mov	r0, r6
    306c:	f000 faae 	bl	35cc <__swhatbuf_r>
    3070:	89a3      	ldrh	r3, [r4, #12]
    3072:	4318      	orrs	r0, r3
    3074:	81a0      	strh	r0, [r4, #12]
    3076:	bb2d      	cbnz	r5, 30c4 <setvbuf+0xdc>
    3078:	9d00      	ldr	r5, [sp, #0]
    307a:	4628      	mov	r0, r5
    307c:	f000 fb0a 	bl	3694 <malloc>
    3080:	4607      	mov	r7, r0
    3082:	2800      	cmp	r0, #0
    3084:	d14e      	bne.n	3124 <setvbuf+0x13c>
    3086:	f8dd 9000 	ldr.w	r9, [sp]
    308a:	45a9      	cmp	r9, r5
    308c:	d13c      	bne.n	3108 <setvbuf+0x120>
    308e:	f04f 30ff 	mov.w	r0, #4294967295
    3092:	89a3      	ldrh	r3, [r4, #12]
    3094:	f043 0302 	orr.w	r3, r3, #2
    3098:	81a3      	strh	r3, [r4, #12]
    309a:	2300      	movs	r3, #0
    309c:	60a3      	str	r3, [r4, #8]
    309e:	f104 0347 	add.w	r3, r4, #71	; 0x47
    30a2:	6023      	str	r3, [r4, #0]
    30a4:	6123      	str	r3, [r4, #16]
    30a6:	2301      	movs	r3, #1
    30a8:	6163      	str	r3, [r4, #20]
    30aa:	b003      	add	sp, #12
    30ac:	e8bd 83f0 	ldmia.w	sp!, {r4, r5, r6, r7, r8, r9, pc}
    30b0:	4b22      	ldr	r3, [pc, #136]	; (313c <setvbuf+0x154>)
    30b2:	429c      	cmp	r4, r3
    30b4:	d101      	bne.n	30ba <setvbuf+0xd2>
    30b6:	68b4      	ldr	r4, [r6, #8]
    30b8:	e7a8      	b.n	300c <setvbuf+0x24>
    30ba:	4b21      	ldr	r3, [pc, #132]	; (3140 <setvbuf+0x158>)
    30bc:	429c      	cmp	r4, r3
    30be:	bf08      	it	eq
    30c0:	68f4      	ldreq	r4, [r6, #12]
    30c2:	e7a3      	b.n	300c <setvbuf+0x24>
    30c4:	2f00      	cmp	r7, #0
    30c6:	d0d8      	beq.n	307a <setvbuf+0x92>
    30c8:	69b3      	ldr	r3, [r6, #24]
    30ca:	b913      	cbnz	r3, 30d2 <setvbuf+0xea>
    30cc:	4630      	mov	r0, r6
    30ce:	f000 f9f3 	bl	34b8 <__sinit>
    30d2:	f1b8 0f01 	cmp.w	r8, #1
    30d6:	bf08      	it	eq
    30d8:	89a3      	ldrheq	r3, [r4, #12]
    30da:	6027      	str	r7, [r4, #0]
    30dc:	bf04      	itt	eq
    30de:	f043 0301 	orreq.w	r3, r3, #1
    30e2:	81a3      	strheq	r3, [r4, #12]
    30e4:	89a3      	ldrh	r3, [r4, #12]
    30e6:	6127      	str	r7, [r4, #16]
    30e8:	f013 0008 	ands.w	r0, r3, #8
    30ec:	6165      	str	r5, [r4, #20]
    30ee:	d01b      	beq.n	3128 <setvbuf+0x140>
    30f0:	f013 0001 	ands.w	r0, r3, #1
    30f4:	bf18      	it	ne
    30f6:	426d      	negne	r5, r5
    30f8:	f04f 0300 	mov.w	r3, #0
    30fc:	bf1d      	ittte	ne
    30fe:	60a3      	strne	r3, [r4, #8]
    3100:	61a5      	strne	r5, [r4, #24]
    3102:	4618      	movne	r0, r3
    3104:	60a5      	streq	r5, [r4, #8]
    3106:	e7d0      	b.n	30aa <setvbuf+0xc2>
    3108:	4648      	mov	r0, r9
    310a:	f000 fac3 	bl	3694 <malloc>
    310e:	4607      	mov	r7, r0
    3110:	2800      	cmp	r0, #0
    3112:	d0bc      	beq.n	308e <setvbuf+0xa6>
    3114:	89a3      	ldrh	r3, [r4, #12]
    3116:	f043 0380 	orr.w	r3, r3, #128	; 0x80
    311a:	81a3      	strh	r3, [r4, #12]
    311c:	464d      	mov	r5, r9
    311e:	e7d3      	b.n	30c8 <setvbuf+0xe0>
    3120:	2000      	movs	r0, #0
    3122:	e7b6      	b.n	3092 <setvbuf+0xaa>
    3124:	46a9      	mov	r9, r5
    3126:	e7f5      	b.n	3114 <setvbuf+0x12c>
    3128:	60a0      	str	r0, [r4, #8]
    312a:	e7be      	b.n	30aa <setvbuf+0xc2>
    312c:	f04f 30ff 	mov.w	r0, #4294967295
    3130:	e7bb      	b.n	30aa <setvbuf+0xc2>
    3132:	bf00      	nop
    3134:	20000038 	.word	0x20000038
    3138:	00005f3c 	.word	0x00005f3c
    313c:	00005f5c 	.word	0x00005f5c
    3140:	00005f1c 	.word	0x00005f1c

00003144 <strlen>:
    3144:	4603      	mov	r3, r0
    3146:	f813 2b01 	ldrb.w	r2, [r3], #1
    314a:	2a00      	cmp	r2, #0
    314c:	d1fb      	bne.n	3146 <strlen+0x2>
    314e:	1a18      	subs	r0, r3, r0
    3150:	3801      	subs	r0, #1
    3152:	4770      	bx	lr

00003154 <__swbuf_r>:
    3154:	b5f8      	push	{r3, r4, r5, r6, r7, lr}
    3156:	460e      	mov	r6, r1
    3158:	4614      	mov	r4, r2
    315a:	4605      	mov	r5, r0
    315c:	b118      	cbz	r0, 3166 <__swbuf_r+0x12>
    315e:	6983      	ldr	r3, [r0, #24]
    3160:	b90b      	cbnz	r3, 3166 <__swbuf_r+0x12>
    3162:	f000 f9a9 	bl	34b8 <__sinit>
    3166:	4b21      	ldr	r3, [pc, #132]	; (31ec <__swbuf_r+0x98>)
    3168:	429c      	cmp	r4, r3
    316a:	d12a      	bne.n	31c2 <__swbuf_r+0x6e>
    316c:	686c      	ldr	r4, [r5, #4]
    316e:	69a3      	ldr	r3, [r4, #24]
    3170:	60a3      	str	r3, [r4, #8]
    3172:	89a3      	ldrh	r3, [r4, #12]
    3174:	071a      	lsls	r2, r3, #28
    3176:	d52e      	bpl.n	31d6 <__swbuf_r+0x82>
    3178:	6923      	ldr	r3, [r4, #16]
    317a:	b363      	cbz	r3, 31d6 <__swbuf_r+0x82>
    317c:	6923      	ldr	r3, [r4, #16]
    317e:	6820      	ldr	r0, [r4, #0]
    3180:	1ac0      	subs	r0, r0, r3
    3182:	6963      	ldr	r3, [r4, #20]
    3184:	b2f6      	uxtb	r6, r6
    3186:	4298      	cmp	r0, r3
    3188:	4637      	mov	r7, r6
    318a:	db04      	blt.n	3196 <__swbuf_r+0x42>
    318c:	4621      	mov	r1, r4
    318e:	4628      	mov	r0, r5
    3190:	f000 f928 	bl	33e4 <_fflush_r>
    3194:	bb28      	cbnz	r0, 31e2 <__swbuf_r+0x8e>
    3196:	68a3      	ldr	r3, [r4, #8]
    3198:	3b01      	subs	r3, #1
    319a:	60a3      	str	r3, [r4, #8]
    319c:	6823      	ldr	r3, [r4, #0]
    319e:	1c5a      	adds	r2, r3, #1
    31a0:	6022      	str	r2, [r4, #0]
    31a2:	701e      	strb	r6, [r3, #0]
    31a4:	6963      	ldr	r3, [r4, #20]
    31a6:	3001      	adds	r0, #1
    31a8:	4298      	cmp	r0, r3
    31aa:	d004      	beq.n	31b6 <__swbuf_r+0x62>
    31ac:	89a3      	ldrh	r3, [r4, #12]
    31ae:	07db      	lsls	r3, r3, #31
    31b0:	d519      	bpl.n	31e6 <__swbuf_r+0x92>
    31b2:	2e0a      	cmp	r6, #10
    31b4:	d117      	bne.n	31e6 <__swbuf_r+0x92>
    31b6:	4621      	mov	r1, r4
    31b8:	4628      	mov	r0, r5
    31ba:	f000 f913 	bl	33e4 <_fflush_r>
    31be:	b190      	cbz	r0, 31e6 <__swbuf_r+0x92>
    31c0:	e00f      	b.n	31e2 <__swbuf_r+0x8e>
    31c2:	4b0b      	ldr	r3, [pc, #44]	; (31f0 <__swbuf_r+0x9c>)
    31c4:	429c      	cmp	r4, r3
    31c6:	d101      	bne.n	31cc <__swbuf_r+0x78>
    31c8:	68ac      	ldr	r4, [r5, #8]
    31ca:	e7d0      	b.n	316e <__swbuf_r+0x1a>
    31cc:	4b09      	ldr	r3, [pc, #36]	; (31f4 <__swbuf_r+0xa0>)
    31ce:	429c      	cmp	r4, r3
    31d0:	bf08      	it	eq
    31d2:	68ec      	ldreq	r4, [r5, #12]
    31d4:	e7cb      	b.n	316e <__swbuf_r+0x1a>
    31d6:	4621      	mov	r1, r4
    31d8:	4628      	mov	r0, r5
    31da:	f000 f80d 	bl	31f8 <__swsetup_r>
    31de:	2800      	cmp	r0, #0
    31e0:	d0cc      	beq.n	317c <__swbuf_r+0x28>
    31e2:	f04f 37ff 	mov.w	r7, #4294967295
    31e6:	4638      	mov	r0, r7
    31e8:	bdf8      	pop	{r3, r4, r5, r6, r7, pc}
    31ea:	bf00      	nop
    31ec:	00005f3c 	.word	0x00005f3c
    31f0:	00005f5c 	.word	0x00005f5c
    31f4:	00005f1c 	.word	0x00005f1c

000031f8 <__swsetup_r>:
    31f8:	4b32      	ldr	r3, [pc, #200]	; (32c4 <__swsetup_r+0xcc>)
    31fa:	b570      	push	{r4, r5, r6, lr}
    31fc:	681d      	ldr	r5, [r3, #0]
    31fe:	4606      	mov	r6, r0
    3200:	460c      	mov	r4, r1
    3202:	b125      	cbz	r5, 320e <__swsetup_r+0x16>
    3204:	69ab      	ldr	r3, [r5, #24]
    3206:	b913      	cbnz	r3, 320e <__swsetup_r+0x16>
    3208:	4628      	mov	r0, r5
    320a:	f000 f955 	bl	34b8 <__sinit>
    320e:	4b2e      	ldr	r3, [pc, #184]	; (32c8 <__swsetup_r+0xd0>)
    3210:	429c      	cmp	r4, r3
    3212:	d10f      	bne.n	3234 <__swsetup_r+0x3c>
    3214:	686c      	ldr	r4, [r5, #4]
    3216:	f9b4 300c 	ldrsh.w	r3, [r4, #12]
    321a:	b29a      	uxth	r2, r3
    321c:	0715      	lsls	r5, r2, #28
    321e:	d42c      	bmi.n	327a <__swsetup_r+0x82>
    3220:	06d0      	lsls	r0, r2, #27
    3222:	d411      	bmi.n	3248 <__swsetup_r+0x50>
    3224:	2209      	movs	r2, #9
    3226:	6032      	str	r2, [r6, #0]
    3228:	f043 0340 	orr.w	r3, r3, #64	; 0x40
    322c:	81a3      	strh	r3, [r4, #12]
    322e:	f04f 30ff 	mov.w	r0, #4294967295
    3232:	bd70      	pop	{r4, r5, r6, pc}
    3234:	4b25      	ldr	r3, [pc, #148]	; (32cc <__swsetup_r+0xd4>)
    3236:	429c      	cmp	r4, r3
    3238:	d101      	bne.n	323e <__swsetup_r+0x46>
    323a:	68ac      	ldr	r4, [r5, #8]
    323c:	e7eb      	b.n	3216 <__swsetup_r+0x1e>
    323e:	4b24      	ldr	r3, [pc, #144]	; (32d0 <__swsetup_r+0xd8>)
    3240:	429c      	cmp	r4, r3
    3242:	bf08      	it	eq
    3244:	68ec      	ldreq	r4, [r5, #12]
    3246:	e7e6      	b.n	3216 <__swsetup_r+0x1e>
    3248:	0751      	lsls	r1, r2, #29
    324a:	d512      	bpl.n	3272 <__swsetup_r+0x7a>
    324c:	6b61      	ldr	r1, [r4, #52]	; 0x34
    324e:	b141      	cbz	r1, 3262 <__swsetup_r+0x6a>
    3250:	f104 0344 	add.w	r3, r4, #68	; 0x44
    3254:	4299      	cmp	r1, r3
    3256:	d002      	beq.n	325e <__swsetup_r+0x66>
    3258:	4630      	mov	r0, r6
    325a:	f000 fa23 	bl	36a4 <_free_r>
    325e:	2300      	movs	r3, #0
    3260:	6363      	str	r3, [r4, #52]	; 0x34
    3262:	89a3      	ldrh	r3, [r4, #12]
    3264:	f023 0324 	bic.w	r3, r3, #36	; 0x24
    3268:	81a3      	strh	r3, [r4, #12]
    326a:	2300      	movs	r3, #0
    326c:	6063      	str	r3, [r4, #4]
    326e:	6923      	ldr	r3, [r4, #16]
    3270:	6023      	str	r3, [r4, #0]
    3272:	89a3      	ldrh	r3, [r4, #12]
    3274:	f043 0308 	orr.w	r3, r3, #8
    3278:	81a3      	strh	r3, [r4, #12]
    327a:	6923      	ldr	r3, [r4, #16]
    327c:	b94b      	cbnz	r3, 3292 <__swsetup_r+0x9a>
    327e:	89a3      	ldrh	r3, [r4, #12]
    3280:	f403 7320 	and.w	r3, r3, #640	; 0x280
    3284:	f5b3 7f00 	cmp.w	r3, #512	; 0x200
    3288:	d003      	beq.n	3292 <__swsetup_r+0x9a>
    328a:	4621      	mov	r1, r4
    328c:	4630      	mov	r0, r6
    328e:	f000 f9c1 	bl	3614 <__smakebuf_r>
    3292:	89a2      	ldrh	r2, [r4, #12]
    3294:	f012 0301 	ands.w	r3, r2, #1
    3298:	d00c      	beq.n	32b4 <__swsetup_r+0xbc>
    329a:	2300      	movs	r3, #0
    329c:	60a3      	str	r3, [r4, #8]
    329e:	6963      	ldr	r3, [r4, #20]
    32a0:	425b      	negs	r3, r3
    32a2:	61a3      	str	r3, [r4, #24]
    32a4:	6923      	ldr	r3, [r4, #16]
    32a6:	b953      	cbnz	r3, 32be <__swsetup_r+0xc6>
    32a8:	f9b4 300c 	ldrsh.w	r3, [r4, #12]
    32ac:	f013 0080 	ands.w	r0, r3, #128	; 0x80
    32b0:	d1ba      	bne.n	3228 <__swsetup_r+0x30>
    32b2:	bd70      	pop	{r4, r5, r6, pc}
    32b4:	0792      	lsls	r2, r2, #30
    32b6:	bf58      	it	pl
    32b8:	6963      	ldrpl	r3, [r4, #20]
    32ba:	60a3      	str	r3, [r4, #8]
    32bc:	e7f2      	b.n	32a4 <__swsetup_r+0xac>
    32be:	2000      	movs	r0, #0
    32c0:	e7f7      	b.n	32b2 <__swsetup_r+0xba>
    32c2:	bf00      	nop
    32c4:	20000038 	.word	0x20000038
    32c8:	00005f3c 	.word	0x00005f3c
    32cc:	00005f5c 	.word	0x00005f5c
    32d0:	00005f1c 	.word	0x00005f1c

000032d4 <__sflush_r>:
    32d4:	898a      	ldrh	r2, [r1, #12]
    32d6:	e92d 41f0 	stmdb	sp!, {r4, r5, r6, r7, r8, lr}
    32da:	4605      	mov	r5, r0
    32dc:	0710      	lsls	r0, r2, #28
    32de:	460c      	mov	r4, r1
    32e0:	d45a      	bmi.n	3398 <__sflush_r+0xc4>
    32e2:	684b      	ldr	r3, [r1, #4]
    32e4:	2b00      	cmp	r3, #0
    32e6:	dc05      	bgt.n	32f4 <__sflush_r+0x20>
    32e8:	6c0b      	ldr	r3, [r1, #64]	; 0x40
    32ea:	2b00      	cmp	r3, #0
    32ec:	dc02      	bgt.n	32f4 <__sflush_r+0x20>
    32ee:	2000      	movs	r0, #0
    32f0:	e8bd 81f0 	ldmia.w	sp!, {r4, r5, r6, r7, r8, pc}
    32f4:	6ae6      	ldr	r6, [r4, #44]	; 0x2c
    32f6:	2e00      	cmp	r6, #0
    32f8:	d0f9      	beq.n	32ee <__sflush_r+0x1a>
    32fa:	2300      	movs	r3, #0
    32fc:	f412 5280 	ands.w	r2, r2, #4096	; 0x1000
    3300:	682f      	ldr	r7, [r5, #0]
    3302:	602b      	str	r3, [r5, #0]
    3304:	d033      	beq.n	336e <__sflush_r+0x9a>
    3306:	6d60      	ldr	r0, [r4, #84]	; 0x54
    3308:	89a3      	ldrh	r3, [r4, #12]
    330a:	075a      	lsls	r2, r3, #29
    330c:	d505      	bpl.n	331a <__sflush_r+0x46>
    330e:	6863      	ldr	r3, [r4, #4]
    3310:	1ac0      	subs	r0, r0, r3
    3312:	6b63      	ldr	r3, [r4, #52]	; 0x34
    3314:	b10b      	cbz	r3, 331a <__sflush_r+0x46>
    3316:	6c23      	ldr	r3, [r4, #64]	; 0x40
    3318:	1ac0      	subs	r0, r0, r3
    331a:	2300      	movs	r3, #0
    331c:	4602      	mov	r2, r0
    331e:	6ae6      	ldr	r6, [r4, #44]	; 0x2c
    3320:	6a21      	ldr	r1, [r4, #32]
    3322:	4628      	mov	r0, r5
    3324:	47b0      	blx	r6
    3326:	1c43      	adds	r3, r0, #1
    3328:	89a3      	ldrh	r3, [r4, #12]
    332a:	d106      	bne.n	333a <__sflush_r+0x66>
    332c:	6829      	ldr	r1, [r5, #0]
    332e:	291d      	cmp	r1, #29
    3330:	d84b      	bhi.n	33ca <__sflush_r+0xf6>
    3332:	4a2b      	ldr	r2, [pc, #172]	; (33e0 <__sflush_r+0x10c>)
    3334:	40ca      	lsrs	r2, r1
    3336:	07d6      	lsls	r6, r2, #31
    3338:	d547      	bpl.n	33ca <__sflush_r+0xf6>
    333a:	2200      	movs	r2, #0
    333c:	6062      	str	r2, [r4, #4]
    333e:	04d9      	lsls	r1, r3, #19
    3340:	6922      	ldr	r2, [r4, #16]
    3342:	6022      	str	r2, [r4, #0]
    3344:	d504      	bpl.n	3350 <__sflush_r+0x7c>
    3346:	1c42      	adds	r2, r0, #1
    3348:	d101      	bne.n	334e <__sflush_r+0x7a>
    334a:	682b      	ldr	r3, [r5, #0]
    334c:	b903      	cbnz	r3, 3350 <__sflush_r+0x7c>
    334e:	6560      	str	r0, [r4, #84]	; 0x54
    3350:	6b61      	ldr	r1, [r4, #52]	; 0x34
    3352:	602f      	str	r7, [r5, #0]
    3354:	2900      	cmp	r1, #0
    3356:	d0ca      	beq.n	32ee <__sflush_r+0x1a>
    3358:	f104 0344 	add.w	r3, r4, #68	; 0x44
    335c:	4299      	cmp	r1, r3
    335e:	d002      	beq.n	3366 <__sflush_r+0x92>
    3360:	4628      	mov	r0, r5
    3362:	f000 f99f 	bl	36a4 <_free_r>
    3366:	2000      	movs	r0, #0
    3368:	6360      	str	r0, [r4, #52]	; 0x34
    336a:	e8bd 81f0 	ldmia.w	sp!, {r4, r5, r6, r7, r8, pc}
    336e:	6a21      	ldr	r1, [r4, #32]
    3370:	2301      	movs	r3, #1
    3372:	4628      	mov	r0, r5
    3374:	47b0      	blx	r6
    3376:	1c41      	adds	r1, r0, #1
    3378:	d1c6      	bne.n	3308 <__sflush_r+0x34>
    337a:	682b      	ldr	r3, [r5, #0]
    337c:	2b00      	cmp	r3, #0
    337e:	d0c3      	beq.n	3308 <__sflush_r+0x34>
    3380:	2b1d      	cmp	r3, #29
    3382:	d001      	beq.n	3388 <__sflush_r+0xb4>
    3384:	2b16      	cmp	r3, #22
    3386:	d101      	bne.n	338c <__sflush_r+0xb8>
    3388:	602f      	str	r7, [r5, #0]
    338a:	e7b0      	b.n	32ee <__sflush_r+0x1a>
    338c:	89a3      	ldrh	r3, [r4, #12]
    338e:	f043 0340 	orr.w	r3, r3, #64	; 0x40
    3392:	81a3      	strh	r3, [r4, #12]
    3394:	e8bd 81f0 	ldmia.w	sp!, {r4, r5, r6, r7, r8, pc}
    3398:	690f      	ldr	r7, [r1, #16]
    339a:	2f00      	cmp	r7, #0
    339c:	d0a7      	beq.n	32ee <__sflush_r+0x1a>
    339e:	0793      	lsls	r3, r2, #30
    33a0:	680e      	ldr	r6, [r1, #0]
    33a2:	bf08      	it	eq
    33a4:	694b      	ldreq	r3, [r1, #20]
    33a6:	600f      	str	r7, [r1, #0]
    33a8:	bf18      	it	ne
    33aa:	2300      	movne	r3, #0
    33ac:	eba6 0807 	sub.w	r8, r6, r7
    33b0:	608b      	str	r3, [r1, #8]
    33b2:	f1b8 0f00 	cmp.w	r8, #0
    33b6:	dd9a      	ble.n	32ee <__sflush_r+0x1a>
    33b8:	4643      	mov	r3, r8
    33ba:	463a      	mov	r2, r7
    33bc:	6a21      	ldr	r1, [r4, #32]
    33be:	6aa6      	ldr	r6, [r4, #40]	; 0x28
    33c0:	4628      	mov	r0, r5
    33c2:	47b0      	blx	r6
    33c4:	2800      	cmp	r0, #0
    33c6:	dc07      	bgt.n	33d8 <__sflush_r+0x104>
    33c8:	89a3      	ldrh	r3, [r4, #12]
    33ca:	f043 0340 	orr.w	r3, r3, #64	; 0x40
    33ce:	81a3      	strh	r3, [r4, #12]
    33d0:	f04f 30ff 	mov.w	r0, #4294967295
    33d4:	e8bd 81f0 	ldmia.w	sp!, {r4, r5, r6, r7, r8, pc}
    33d8:	4407      	add	r7, r0
    33da:	eba8 0800 	sub.w	r8, r8, r0
    33de:	e7e8      	b.n	33b2 <__sflush_r+0xde>
    33e0:	20400001 	.word	0x20400001

000033e4 <_fflush_r>:
    33e4:	b538      	push	{r3, r4, r5, lr}
    33e6:	690b      	ldr	r3, [r1, #16]
    33e8:	4605      	mov	r5, r0
    33ea:	460c      	mov	r4, r1
    33ec:	b1db      	cbz	r3, 3426 <_fflush_r+0x42>
    33ee:	b118      	cbz	r0, 33f8 <_fflush_r+0x14>
    33f0:	6983      	ldr	r3, [r0, #24]
    33f2:	b90b      	cbnz	r3, 33f8 <_fflush_r+0x14>
    33f4:	f000 f860 	bl	34b8 <__sinit>
    33f8:	4b0c      	ldr	r3, [pc, #48]	; (342c <_fflush_r+0x48>)
    33fa:	429c      	cmp	r4, r3
    33fc:	d109      	bne.n	3412 <_fflush_r+0x2e>
    33fe:	686c      	ldr	r4, [r5, #4]
    3400:	f9b4 300c 	ldrsh.w	r3, [r4, #12]
    3404:	b17b      	cbz	r3, 3426 <_fflush_r+0x42>
    3406:	4621      	mov	r1, r4
    3408:	4628      	mov	r0, r5
    340a:	e8bd 4038 	ldmia.w	sp!, {r3, r4, r5, lr}
    340e:	f7ff bf61 	b.w	32d4 <__sflush_r>
    3412:	4b07      	ldr	r3, [pc, #28]	; (3430 <_fflush_r+0x4c>)
    3414:	429c      	cmp	r4, r3
    3416:	d101      	bne.n	341c <_fflush_r+0x38>
    3418:	68ac      	ldr	r4, [r5, #8]
    341a:	e7f1      	b.n	3400 <_fflush_r+0x1c>
    341c:	4b05      	ldr	r3, [pc, #20]	; (3434 <_fflush_r+0x50>)
    341e:	429c      	cmp	r4, r3
    3420:	bf08      	it	eq
    3422:	68ec      	ldreq	r4, [r5, #12]
    3424:	e7ec      	b.n	3400 <_fflush_r+0x1c>
    3426:	2000      	movs	r0, #0
    3428:	bd38      	pop	{r3, r4, r5, pc}
    342a:	bf00      	nop
    342c:	00005f3c 	.word	0x00005f3c
    3430:	00005f5c 	.word	0x00005f5c
    3434:	00005f1c 	.word	0x00005f1c

00003438 <_cleanup_r>:
    3438:	4901      	ldr	r1, [pc, #4]	; (3440 <_cleanup_r+0x8>)
    343a:	f000 b8a9 	b.w	3590 <_fwalk_reent>
    343e:	bf00      	nop
    3440:	000033e5 	.word	0x000033e5

00003444 <std.isra.0>:
    3444:	2300      	movs	r3, #0
    3446:	b510      	push	{r4, lr}
    3448:	4604      	mov	r4, r0
    344a:	6003      	str	r3, [r0, #0]
    344c:	6043      	str	r3, [r0, #4]
    344e:	6083      	str	r3, [r0, #8]
    3450:	8181      	strh	r1, [r0, #12]
    3452:	6643      	str	r3, [r0, #100]	; 0x64
    3454:	81c2      	strh	r2, [r0, #14]
    3456:	6103      	str	r3, [r0, #16]
    3458:	6143      	str	r3, [r0, #20]
    345a:	6183      	str	r3, [r0, #24]
    345c:	4619      	mov	r1, r3
    345e:	2208      	movs	r2, #8
    3460:	305c      	adds	r0, #92	; 0x5c
    3462:	f7ff fd5f 	bl	2f24 <memset>
    3466:	4b05      	ldr	r3, [pc, #20]	; (347c <std.isra.0+0x38>)
    3468:	6263      	str	r3, [r4, #36]	; 0x24
    346a:	4b05      	ldr	r3, [pc, #20]	; (3480 <std.isra.0+0x3c>)
    346c:	62a3      	str	r3, [r4, #40]	; 0x28
    346e:	4b05      	ldr	r3, [pc, #20]	; (3484 <std.isra.0+0x40>)
    3470:	62e3      	str	r3, [r4, #44]	; 0x2c
    3472:	4b05      	ldr	r3, [pc, #20]	; (3488 <std.isra.0+0x44>)
    3474:	6224      	str	r4, [r4, #32]
    3476:	6323      	str	r3, [r4, #48]	; 0x30
    3478:	bd10      	pop	{r4, pc}
    347a:	bf00      	nop
    347c:	00003dc5 	.word	0x00003dc5
    3480:	00003de7 	.word	0x00003de7
    3484:	00003e1f 	.word	0x00003e1f
    3488:	00003e43 	.word	0x00003e43

0000348c <__sfmoreglue>:
    348c:	b570      	push	{r4, r5, r6, lr}
    348e:	1e4a      	subs	r2, r1, #1
    3490:	2568      	movs	r5, #104	; 0x68
    3492:	4355      	muls	r5, r2
    3494:	460e      	mov	r6, r1
    3496:	f105 0174 	add.w	r1, r5, #116	; 0x74
    349a:	f000 f951 	bl	3740 <_malloc_r>
    349e:	4604      	mov	r4, r0
    34a0:	b140      	cbz	r0, 34b4 <__sfmoreglue+0x28>
    34a2:	2100      	movs	r1, #0
    34a4:	e880 0042 	stmia.w	r0, {r1, r6}
    34a8:	300c      	adds	r0, #12
    34aa:	60a0      	str	r0, [r4, #8]
    34ac:	f105 0268 	add.w	r2, r5, #104	; 0x68
    34b0:	f7ff fd38 	bl	2f24 <memset>
    34b4:	4620      	mov	r0, r4
    34b6:	bd70      	pop	{r4, r5, r6, pc}

000034b8 <__sinit>:
    34b8:	6983      	ldr	r3, [r0, #24]
    34ba:	b510      	push	{r4, lr}
    34bc:	4604      	mov	r4, r0
    34be:	bb33      	cbnz	r3, 350e <__sinit+0x56>
    34c0:	6483      	str	r3, [r0, #72]	; 0x48
    34c2:	64c3      	str	r3, [r0, #76]	; 0x4c
    34c4:	6503      	str	r3, [r0, #80]	; 0x50
    34c6:	4b12      	ldr	r3, [pc, #72]	; (3510 <__sinit+0x58>)
    34c8:	4a12      	ldr	r2, [pc, #72]	; (3514 <__sinit+0x5c>)
    34ca:	681b      	ldr	r3, [r3, #0]
    34cc:	6282      	str	r2, [r0, #40]	; 0x28
    34ce:	4298      	cmp	r0, r3
    34d0:	bf04      	itt	eq
    34d2:	2301      	moveq	r3, #1
    34d4:	6183      	streq	r3, [r0, #24]
    34d6:	f000 f81f 	bl	3518 <__sfp>
    34da:	6060      	str	r0, [r4, #4]
    34dc:	4620      	mov	r0, r4
    34de:	f000 f81b 	bl	3518 <__sfp>
    34e2:	60a0      	str	r0, [r4, #8]
    34e4:	4620      	mov	r0, r4
    34e6:	f000 f817 	bl	3518 <__sfp>
    34ea:	2200      	movs	r2, #0
    34ec:	60e0      	str	r0, [r4, #12]
    34ee:	2104      	movs	r1, #4
    34f0:	6860      	ldr	r0, [r4, #4]
    34f2:	f7ff ffa7 	bl	3444 <std.isra.0>
    34f6:	2201      	movs	r2, #1
    34f8:	2109      	movs	r1, #9
    34fa:	68a0      	ldr	r0, [r4, #8]
    34fc:	f7ff ffa2 	bl	3444 <std.isra.0>
    3500:	2202      	movs	r2, #2
    3502:	2112      	movs	r1, #18
    3504:	68e0      	ldr	r0, [r4, #12]
    3506:	f7ff ff9d 	bl	3444 <std.isra.0>
    350a:	2301      	movs	r3, #1
    350c:	61a3      	str	r3, [r4, #24]
    350e:	bd10      	pop	{r4, pc}
    3510:	00005f18 	.word	0x00005f18
    3514:	00003439 	.word	0x00003439

00003518 <__sfp>:
    3518:	b5f8      	push	{r3, r4, r5, r6, r7, lr}
    351a:	4b1c      	ldr	r3, [pc, #112]	; (358c <__sfp+0x74>)
    351c:	681e      	ldr	r6, [r3, #0]
    351e:	69b3      	ldr	r3, [r6, #24]
    3520:	4607      	mov	r7, r0
    3522:	b913      	cbnz	r3, 352a <__sfp+0x12>
    3524:	4630      	mov	r0, r6
    3526:	f7ff ffc7 	bl	34b8 <__sinit>
    352a:	3648      	adds	r6, #72	; 0x48
    352c:	68b4      	ldr	r4, [r6, #8]
    352e:	6873      	ldr	r3, [r6, #4]
    3530:	3b01      	subs	r3, #1
    3532:	d503      	bpl.n	353c <__sfp+0x24>
    3534:	6833      	ldr	r3, [r6, #0]
    3536:	b133      	cbz	r3, 3546 <__sfp+0x2e>
    3538:	6836      	ldr	r6, [r6, #0]
    353a:	e7f7      	b.n	352c <__sfp+0x14>
    353c:	f9b4 500c 	ldrsh.w	r5, [r4, #12]
    3540:	b16d      	cbz	r5, 355e <__sfp+0x46>
    3542:	3468      	adds	r4, #104	; 0x68
    3544:	e7f4      	b.n	3530 <__sfp+0x18>
    3546:	2104      	movs	r1, #4
    3548:	4638      	mov	r0, r7
    354a:	f7ff ff9f 	bl	348c <__sfmoreglue>
    354e:	6030      	str	r0, [r6, #0]
    3550:	2800      	cmp	r0, #0
    3552:	d1f1      	bne.n	3538 <__sfp+0x20>
    3554:	230c      	movs	r3, #12
    3556:	603b      	str	r3, [r7, #0]
    3558:	4604      	mov	r4, r0
    355a:	4620      	mov	r0, r4
    355c:	bdf8      	pop	{r3, r4, r5, r6, r7, pc}
    355e:	f64f 73ff 	movw	r3, #65535	; 0xffff
    3562:	81e3      	strh	r3, [r4, #14]
    3564:	2301      	movs	r3, #1
    3566:	81a3      	strh	r3, [r4, #12]
    3568:	6665      	str	r5, [r4, #100]	; 0x64
    356a:	6025      	str	r5, [r4, #0]
    356c:	60a5      	str	r5, [r4, #8]
    356e:	6065      	str	r5, [r4, #4]
    3570:	6125      	str	r5, [r4, #16]
    3572:	6165      	str	r5, [r4, #20]
    3574:	61a5      	str	r5, [r4, #24]
    3576:	2208      	movs	r2, #8
    3578:	4629      	mov	r1, r5
    357a:	f104 005c 	add.w	r0, r4, #92	; 0x5c
    357e:	f7ff fcd1 	bl	2f24 <memset>
    3582:	6365      	str	r5, [r4, #52]	; 0x34
    3584:	63a5      	str	r5, [r4, #56]	; 0x38
    3586:	64a5      	str	r5, [r4, #72]	; 0x48
    3588:	64e5      	str	r5, [r4, #76]	; 0x4c
    358a:	e7e6      	b.n	355a <__sfp+0x42>
    358c:	00005f18 	.word	0x00005f18

00003590 <_fwalk_reent>:
    3590:	e92d 43f8 	stmdb	sp!, {r3, r4, r5, r6, r7, r8, r9, lr}
    3594:	4680      	mov	r8, r0
    3596:	4689      	mov	r9, r1
    3598:	f100 0448 	add.w	r4, r0, #72	; 0x48
    359c:	2600      	movs	r6, #0
    359e:	b914      	cbnz	r4, 35a6 <_fwalk_reent+0x16>
    35a0:	4630      	mov	r0, r6
    35a2:	e8bd 83f8 	ldmia.w	sp!, {r3, r4, r5, r6, r7, r8, r9, pc}
    35a6:	68a5      	ldr	r5, [r4, #8]
    35a8:	6867      	ldr	r7, [r4, #4]
    35aa:	3f01      	subs	r7, #1
    35ac:	d501      	bpl.n	35b2 <_fwalk_reent+0x22>
    35ae:	6824      	ldr	r4, [r4, #0]
    35b0:	e7f5      	b.n	359e <_fwalk_reent+0xe>
    35b2:	89ab      	ldrh	r3, [r5, #12]
    35b4:	2b01      	cmp	r3, #1
    35b6:	d907      	bls.n	35c8 <_fwalk_reent+0x38>
    35b8:	f9b5 300e 	ldrsh.w	r3, [r5, #14]
    35bc:	3301      	adds	r3, #1
    35be:	d003      	beq.n	35c8 <_fwalk_reent+0x38>
    35c0:	4629      	mov	r1, r5
    35c2:	4640      	mov	r0, r8
    35c4:	47c8      	blx	r9
    35c6:	4306      	orrs	r6, r0
    35c8:	3568      	adds	r5, #104	; 0x68
    35ca:	e7ee      	b.n	35aa <_fwalk_reent+0x1a>

000035cc <__swhatbuf_r>:
    35cc:	b570      	push	{r4, r5, r6, lr}
    35ce:	460e      	mov	r6, r1
    35d0:	f9b1 100e 	ldrsh.w	r1, [r1, #14]
    35d4:	2900      	cmp	r1, #0
    35d6:	b090      	sub	sp, #64	; 0x40
    35d8:	4614      	mov	r4, r2
    35da:	461d      	mov	r5, r3
    35dc:	da07      	bge.n	35ee <__swhatbuf_r+0x22>
    35de:	2300      	movs	r3, #0
    35e0:	602b      	str	r3, [r5, #0]
    35e2:	89b3      	ldrh	r3, [r6, #12]
    35e4:	061a      	lsls	r2, r3, #24
    35e6:	d410      	bmi.n	360a <__swhatbuf_r+0x3e>
    35e8:	f44f 6380 	mov.w	r3, #1024	; 0x400
    35ec:	e00e      	b.n	360c <__swhatbuf_r+0x40>
    35ee:	aa01      	add	r2, sp, #4
    35f0:	f000 fc4e 	bl	3e90 <_fstat_r>
    35f4:	2800      	cmp	r0, #0
    35f6:	dbf2      	blt.n	35de <__swhatbuf_r+0x12>
    35f8:	9a02      	ldr	r2, [sp, #8]
    35fa:	f402 4270 	and.w	r2, r2, #61440	; 0xf000
    35fe:	f5a2 5300 	sub.w	r3, r2, #8192	; 0x2000
    3602:	425a      	negs	r2, r3
    3604:	415a      	adcs	r2, r3
    3606:	602a      	str	r2, [r5, #0]
    3608:	e7ee      	b.n	35e8 <__swhatbuf_r+0x1c>
    360a:	2340      	movs	r3, #64	; 0x40
    360c:	2000      	movs	r0, #0
    360e:	6023      	str	r3, [r4, #0]
    3610:	b010      	add	sp, #64	; 0x40
    3612:	bd70      	pop	{r4, r5, r6, pc}

00003614 <__smakebuf_r>:
    3614:	898b      	ldrh	r3, [r1, #12]
    3616:	b573      	push	{r0, r1, r4, r5, r6, lr}
    3618:	079d      	lsls	r5, r3, #30
    361a:	4606      	mov	r6, r0
    361c:	460c      	mov	r4, r1
    361e:	d507      	bpl.n	3630 <__smakebuf_r+0x1c>
    3620:	f104 0347 	add.w	r3, r4, #71	; 0x47
    3624:	6023      	str	r3, [r4, #0]
    3626:	6123      	str	r3, [r4, #16]
    3628:	2301      	movs	r3, #1
    362a:	6163      	str	r3, [r4, #20]
    362c:	b002      	add	sp, #8
    362e:	bd70      	pop	{r4, r5, r6, pc}
    3630:	ab01      	add	r3, sp, #4
    3632:	466a      	mov	r2, sp
    3634:	f7ff ffca 	bl	35cc <__swhatbuf_r>
    3638:	9900      	ldr	r1, [sp, #0]
    363a:	4605      	mov	r5, r0
    363c:	4630      	mov	r0, r6
    363e:	f000 f87f 	bl	3740 <_malloc_r>
    3642:	b948      	cbnz	r0, 3658 <__smakebuf_r+0x44>
    3644:	f9b4 300c 	ldrsh.w	r3, [r4, #12]
    3648:	059a      	lsls	r2, r3, #22
    364a:	d4ef      	bmi.n	362c <__smakebuf_r+0x18>
    364c:	f023 0303 	bic.w	r3, r3, #3
    3650:	f043 0302 	orr.w	r3, r3, #2
    3654:	81a3      	strh	r3, [r4, #12]
    3656:	e7e3      	b.n	3620 <__smakebuf_r+0xc>
    3658:	4b0d      	ldr	r3, [pc, #52]	; (3690 <__smakebuf_r+0x7c>)
    365a:	62b3      	str	r3, [r6, #40]	; 0x28
    365c:	89a3      	ldrh	r3, [r4, #12]
    365e:	6020      	str	r0, [r4, #0]
    3660:	f043 0380 	orr.w	r3, r3, #128	; 0x80
    3664:	81a3      	strh	r3, [r4, #12]
    3666:	9b00      	ldr	r3, [sp, #0]
    3668:	6163      	str	r3, [r4, #20]
    366a:	9b01      	ldr	r3, [sp, #4]
    366c:	6120      	str	r0, [r4, #16]
    366e:	b15b      	cbz	r3, 3688 <__smakebuf_r+0x74>
    3670:	f9b4 100e 	ldrsh.w	r1, [r4, #14]
    3674:	4630      	mov	r0, r6
    3676:	f000 fc1d 	bl	3eb4 <_isatty_r>
    367a:	b128      	cbz	r0, 3688 <__smakebuf_r+0x74>
    367c:	89a3      	ldrh	r3, [r4, #12]
    367e:	f023 0303 	bic.w	r3, r3, #3
    3682:	f043 0301 	orr.w	r3, r3, #1
    3686:	81a3      	strh	r3, [r4, #12]
    3688:	89a3      	ldrh	r3, [r4, #12]
    368a:	431d      	orrs	r5, r3
    368c:	81a5      	strh	r5, [r4, #12]
    368e:	e7cd      	b.n	362c <__smakebuf_r+0x18>
    3690:	00003439 	.word	0x00003439

00003694 <malloc>:
    3694:	4b02      	ldr	r3, [pc, #8]	; (36a0 <malloc+0xc>)
    3696:	4601      	mov	r1, r0
    3698:	6818      	ldr	r0, [r3, #0]
    369a:	f000 b851 	b.w	3740 <_malloc_r>
    369e:	bf00      	nop
    36a0:	20000038 	.word	0x20000038

000036a4 <_free_r>:
    36a4:	b538      	push	{r3, r4, r5, lr}
    36a6:	4605      	mov	r5, r0
    36a8:	2900      	cmp	r1, #0
    36aa:	d045      	beq.n	3738 <_free_r+0x94>
    36ac:	f851 3c04 	ldr.w	r3, [r1, #-4]
    36b0:	1f0c      	subs	r4, r1, #4
    36b2:	2b00      	cmp	r3, #0
    36b4:	bfb8      	it	lt
    36b6:	18e4      	addlt	r4, r4, r3
    36b8:	f000 fc72 	bl	3fa0 <__malloc_lock>
    36bc:	4a1f      	ldr	r2, [pc, #124]	; (373c <_free_r+0x98>)
    36be:	6813      	ldr	r3, [r2, #0]
    36c0:	4610      	mov	r0, r2
    36c2:	b933      	cbnz	r3, 36d2 <_free_r+0x2e>
    36c4:	6063      	str	r3, [r4, #4]
    36c6:	6014      	str	r4, [r2, #0]
    36c8:	4628      	mov	r0, r5
    36ca:	e8bd 4038 	ldmia.w	sp!, {r3, r4, r5, lr}
    36ce:	f000 bc68 	b.w	3fa2 <__malloc_unlock>
    36d2:	42a3      	cmp	r3, r4
    36d4:	d90c      	bls.n	36f0 <_free_r+0x4c>
    36d6:	6821      	ldr	r1, [r4, #0]
    36d8:	1862      	adds	r2, r4, r1
    36da:	4293      	cmp	r3, r2
    36dc:	bf04      	itt	eq
    36de:	681a      	ldreq	r2, [r3, #0]
    36e0:	685b      	ldreq	r3, [r3, #4]
    36e2:	6063      	str	r3, [r4, #4]
    36e4:	bf04      	itt	eq
    36e6:	1852      	addeq	r2, r2, r1
    36e8:	6022      	streq	r2, [r4, #0]
    36ea:	6004      	str	r4, [r0, #0]
    36ec:	e7ec      	b.n	36c8 <_free_r+0x24>
    36ee:	4613      	mov	r3, r2
    36f0:	685a      	ldr	r2, [r3, #4]
    36f2:	b10a      	cbz	r2, 36f8 <_free_r+0x54>
    36f4:	42a2      	cmp	r2, r4
    36f6:	d9fa      	bls.n	36ee <_free_r+0x4a>
    36f8:	6819      	ldr	r1, [r3, #0]
    36fa:	1858      	adds	r0, r3, r1
    36fc:	42a0      	cmp	r0, r4
    36fe:	d10b      	bne.n	3718 <_free_r+0x74>
    3700:	6820      	ldr	r0, [r4, #0]
    3702:	4401      	add	r1, r0
    3704:	1858      	adds	r0, r3, r1
    3706:	4282      	cmp	r2, r0
    3708:	6019      	str	r1, [r3, #0]
    370a:	d1dd      	bne.n	36c8 <_free_r+0x24>
    370c:	6810      	ldr	r0, [r2, #0]
    370e:	6852      	ldr	r2, [r2, #4]
    3710:	605a      	str	r2, [r3, #4]
    3712:	4401      	add	r1, r0
    3714:	6019      	str	r1, [r3, #0]
    3716:	e7d7      	b.n	36c8 <_free_r+0x24>
    3718:	d902      	bls.n	3720 <_free_r+0x7c>
    371a:	230c      	movs	r3, #12
    371c:	602b      	str	r3, [r5, #0]
    371e:	e7d3      	b.n	36c8 <_free_r+0x24>
    3720:	6820      	ldr	r0, [r4, #0]
    3722:	1821      	adds	r1, r4, r0
    3724:	428a      	cmp	r2, r1
    3726:	bf04      	itt	eq
    3728:	6811      	ldreq	r1, [r2, #0]
    372a:	6852      	ldreq	r2, [r2, #4]
    372c:	6062      	str	r2, [r4, #4]
    372e:	bf04      	itt	eq
    3730:	1809      	addeq	r1, r1, r0
    3732:	6021      	streq	r1, [r4, #0]
    3734:	605c      	str	r4, [r3, #4]
    3736:	e7c7      	b.n	36c8 <_free_r+0x24>
    3738:	bd38      	pop	{r3, r4, r5, pc}
    373a:	bf00      	nop
    373c:	200003f8 	.word	0x200003f8

00003740 <_malloc_r>:
    3740:	b570      	push	{r4, r5, r6, lr}
    3742:	1ccd      	adds	r5, r1, #3
    3744:	f025 0503 	bic.w	r5, r5, #3
    3748:	3508      	adds	r5, #8
    374a:	2d0c      	cmp	r5, #12
    374c:	bf38      	it	cc
    374e:	250c      	movcc	r5, #12
    3750:	2d00      	cmp	r5, #0
    3752:	4606      	mov	r6, r0
    3754:	db01      	blt.n	375a <_malloc_r+0x1a>
    3756:	42a9      	cmp	r1, r5
    3758:	d903      	bls.n	3762 <_malloc_r+0x22>
    375a:	230c      	movs	r3, #12
    375c:	6033      	str	r3, [r6, #0]
    375e:	2000      	movs	r0, #0
    3760:	bd70      	pop	{r4, r5, r6, pc}
    3762:	f000 fc1d 	bl	3fa0 <__malloc_lock>
    3766:	4a23      	ldr	r2, [pc, #140]	; (37f4 <_malloc_r+0xb4>)
    3768:	6814      	ldr	r4, [r2, #0]
    376a:	4621      	mov	r1, r4
    376c:	b991      	cbnz	r1, 3794 <_malloc_r+0x54>
    376e:	4c22      	ldr	r4, [pc, #136]	; (37f8 <_malloc_r+0xb8>)
    3770:	6823      	ldr	r3, [r4, #0]
    3772:	b91b      	cbnz	r3, 377c <_malloc_r+0x3c>
    3774:	4630      	mov	r0, r6
    3776:	f000 fb15 	bl	3da4 <_sbrk_r>
    377a:	6020      	str	r0, [r4, #0]
    377c:	4629      	mov	r1, r5
    377e:	4630      	mov	r0, r6
    3780:	f000 fb10 	bl	3da4 <_sbrk_r>
    3784:	1c43      	adds	r3, r0, #1
    3786:	d126      	bne.n	37d6 <_malloc_r+0x96>
    3788:	230c      	movs	r3, #12
    378a:	6033      	str	r3, [r6, #0]
    378c:	4630      	mov	r0, r6
    378e:	f000 fc08 	bl	3fa2 <__malloc_unlock>
    3792:	e7e4      	b.n	375e <_malloc_r+0x1e>
    3794:	680b      	ldr	r3, [r1, #0]
    3796:	1b5b      	subs	r3, r3, r5
    3798:	d41a      	bmi.n	37d0 <_malloc_r+0x90>
    379a:	2b0b      	cmp	r3, #11
    379c:	d90f      	bls.n	37be <_malloc_r+0x7e>
    379e:	600b      	str	r3, [r1, #0]
    37a0:	50cd      	str	r5, [r1, r3]
    37a2:	18cc      	adds	r4, r1, r3
    37a4:	4630      	mov	r0, r6
    37a6:	f000 fbfc 	bl	3fa2 <__malloc_unlock>
    37aa:	f104 000b 	add.w	r0, r4, #11
    37ae:	1d23      	adds	r3, r4, #4
    37b0:	f020 0007 	bic.w	r0, r0, #7
    37b4:	1ac3      	subs	r3, r0, r3
    37b6:	d01b      	beq.n	37f0 <_malloc_r+0xb0>
    37b8:	425a      	negs	r2, r3
    37ba:	50e2      	str	r2, [r4, r3]
    37bc:	bd70      	pop	{r4, r5, r6, pc}
    37be:	428c      	cmp	r4, r1
    37c0:	bf0d      	iteet	eq
    37c2:	6863      	ldreq	r3, [r4, #4]
    37c4:	684b      	ldrne	r3, [r1, #4]
    37c6:	6063      	strne	r3, [r4, #4]
    37c8:	6013      	streq	r3, [r2, #0]
    37ca:	bf18      	it	ne
    37cc:	460c      	movne	r4, r1
    37ce:	e7e9      	b.n	37a4 <_malloc_r+0x64>
    37d0:	460c      	mov	r4, r1
    37d2:	6849      	ldr	r1, [r1, #4]
    37d4:	e7ca      	b.n	376c <_malloc_r+0x2c>
    37d6:	1cc4      	adds	r4, r0, #3
    37d8:	f024 0403 	bic.w	r4, r4, #3
    37dc:	42a0      	cmp	r0, r4
    37de:	d005      	beq.n	37ec <_malloc_r+0xac>
    37e0:	1a21      	subs	r1, r4, r0
    37e2:	4630      	mov	r0, r6
    37e4:	f000 fade 	bl	3da4 <_sbrk_r>
    37e8:	3001      	adds	r0, #1
    37ea:	d0cd      	beq.n	3788 <_malloc_r+0x48>
    37ec:	6025      	str	r5, [r4, #0]
    37ee:	e7d9      	b.n	37a4 <_malloc_r+0x64>
    37f0:	bd70      	pop	{r4, r5, r6, pc}
    37f2:	bf00      	nop
    37f4:	200003f8 	.word	0x200003f8
    37f8:	200003fc 	.word	0x200003fc

000037fc <__sfputc_r>:
    37fc:	6893      	ldr	r3, [r2, #8]
    37fe:	3b01      	subs	r3, #1
    3800:	2b00      	cmp	r3, #0
    3802:	b410      	push	{r4}
    3804:	6093      	str	r3, [r2, #8]
    3806:	da08      	bge.n	381a <__sfputc_r+0x1e>
    3808:	6994      	ldr	r4, [r2, #24]
    380a:	42a3      	cmp	r3, r4
    380c:	db02      	blt.n	3814 <__sfputc_r+0x18>
    380e:	b2cb      	uxtb	r3, r1
    3810:	2b0a      	cmp	r3, #10
    3812:	d102      	bne.n	381a <__sfputc_r+0x1e>
    3814:	bc10      	pop	{r4}
    3816:	f7ff bc9d 	b.w	3154 <__swbuf_r>
    381a:	6813      	ldr	r3, [r2, #0]
    381c:	1c58      	adds	r0, r3, #1
    381e:	6010      	str	r0, [r2, #0]
    3820:	7019      	strb	r1, [r3, #0]
    3822:	b2c8      	uxtb	r0, r1
    3824:	bc10      	pop	{r4}
    3826:	4770      	bx	lr

00003828 <__sfputs_r>:
    3828:	b5f8      	push	{r3, r4, r5, r6, r7, lr}
    382a:	4606      	mov	r6, r0
    382c:	460f      	mov	r7, r1
    382e:	4614      	mov	r4, r2
    3830:	18d5      	adds	r5, r2, r3
    3832:	42ac      	cmp	r4, r5
    3834:	d101      	bne.n	383a <__sfputs_r+0x12>
    3836:	2000      	movs	r0, #0
    3838:	e007      	b.n	384a <__sfputs_r+0x22>
    383a:	463a      	mov	r2, r7
    383c:	f814 1b01 	ldrb.w	r1, [r4], #1
    3840:	4630      	mov	r0, r6
    3842:	f7ff ffdb 	bl	37fc <__sfputc_r>
    3846:	1c43      	adds	r3, r0, #1
    3848:	d1f3      	bne.n	3832 <__sfputs_r+0xa>
    384a:	bdf8      	pop	{r3, r4, r5, r6, r7, pc}

0000384c <_vfiprintf_r>:
    384c:	e92d 4ff0 	stmdb	sp!, {r4, r5, r6, r7, r8, r9, sl, fp, lr}
    3850:	b09d      	sub	sp, #116	; 0x74
    3852:	460c      	mov	r4, r1
    3854:	4617      	mov	r7, r2
    3856:	9303      	str	r3, [sp, #12]
    3858:	4606      	mov	r6, r0
    385a:	b118      	cbz	r0, 3864 <_vfiprintf_r+0x18>
    385c:	6983      	ldr	r3, [r0, #24]
    385e:	b90b      	cbnz	r3, 3864 <_vfiprintf_r+0x18>
    3860:	f7ff fe2a 	bl	34b8 <__sinit>
    3864:	4b7c      	ldr	r3, [pc, #496]	; (3a58 <_vfiprintf_r+0x20c>)
    3866:	429c      	cmp	r4, r3
    3868:	d157      	bne.n	391a <_vfiprintf_r+0xce>
    386a:	6874      	ldr	r4, [r6, #4]
    386c:	89a3      	ldrh	r3, [r4, #12]
    386e:	0718      	lsls	r0, r3, #28
    3870:	d55d      	bpl.n	392e <_vfiprintf_r+0xe2>
    3872:	6923      	ldr	r3, [r4, #16]
    3874:	2b00      	cmp	r3, #0
    3876:	d05a      	beq.n	392e <_vfiprintf_r+0xe2>
    3878:	2300      	movs	r3, #0
    387a:	9309      	str	r3, [sp, #36]	; 0x24
    387c:	2320      	movs	r3, #32
    387e:	f88d 3029 	strb.w	r3, [sp, #41]	; 0x29
    3882:	2330      	movs	r3, #48	; 0x30
    3884:	f88d 302a 	strb.w	r3, [sp, #42]	; 0x2a
    3888:	f04f 0b01 	mov.w	fp, #1
    388c:	46b8      	mov	r8, r7
    388e:	4645      	mov	r5, r8
    3890:	f815 3b01 	ldrb.w	r3, [r5], #1
    3894:	2b00      	cmp	r3, #0
    3896:	d155      	bne.n	3944 <_vfiprintf_r+0xf8>
    3898:	ebb8 0a07 	subs.w	sl, r8, r7
    389c:	d00b      	beq.n	38b6 <_vfiprintf_r+0x6a>
    389e:	4653      	mov	r3, sl
    38a0:	463a      	mov	r2, r7
    38a2:	4621      	mov	r1, r4
    38a4:	4630      	mov	r0, r6
    38a6:	f7ff ffbf 	bl	3828 <__sfputs_r>
    38aa:	3001      	adds	r0, #1
    38ac:	f000 80c4 	beq.w	3a38 <_vfiprintf_r+0x1ec>
    38b0:	9b09      	ldr	r3, [sp, #36]	; 0x24
    38b2:	4453      	add	r3, sl
    38b4:	9309      	str	r3, [sp, #36]	; 0x24
    38b6:	f898 3000 	ldrb.w	r3, [r8]
    38ba:	2b00      	cmp	r3, #0
    38bc:	f000 80bc 	beq.w	3a38 <_vfiprintf_r+0x1ec>
    38c0:	2300      	movs	r3, #0
    38c2:	f04f 32ff 	mov.w	r2, #4294967295
    38c6:	9304      	str	r3, [sp, #16]
    38c8:	9307      	str	r3, [sp, #28]
    38ca:	9205      	str	r2, [sp, #20]
    38cc:	9306      	str	r3, [sp, #24]
    38ce:	f88d 3053 	strb.w	r3, [sp, #83]	; 0x53
    38d2:	931a      	str	r3, [sp, #104]	; 0x68
    38d4:	2205      	movs	r2, #5
    38d6:	7829      	ldrb	r1, [r5, #0]
    38d8:	4860      	ldr	r0, [pc, #384]	; (3a5c <_vfiprintf_r+0x210>)
    38da:	f000 fb11 	bl	3f00 <memchr>
    38de:	f105 0801 	add.w	r8, r5, #1
    38e2:	9b04      	ldr	r3, [sp, #16]
    38e4:	2800      	cmp	r0, #0
    38e6:	d131      	bne.n	394c <_vfiprintf_r+0x100>
    38e8:	06d9      	lsls	r1, r3, #27
    38ea:	bf44      	itt	mi
    38ec:	2220      	movmi	r2, #32
    38ee:	f88d 2053 	strbmi.w	r2, [sp, #83]	; 0x53
    38f2:	071a      	lsls	r2, r3, #28
    38f4:	bf44      	itt	mi
    38f6:	222b      	movmi	r2, #43	; 0x2b
    38f8:	f88d 2053 	strbmi.w	r2, [sp, #83]	; 0x53
    38fc:	782a      	ldrb	r2, [r5, #0]
    38fe:	2a2a      	cmp	r2, #42	; 0x2a
    3900:	d02c      	beq.n	395c <_vfiprintf_r+0x110>
    3902:	9a07      	ldr	r2, [sp, #28]
    3904:	2100      	movs	r1, #0
    3906:	200a      	movs	r0, #10
    3908:	46a8      	mov	r8, r5
    390a:	3501      	adds	r5, #1
    390c:	f898 3000 	ldrb.w	r3, [r8]
    3910:	3b30      	subs	r3, #48	; 0x30
    3912:	2b09      	cmp	r3, #9
    3914:	d96d      	bls.n	39f2 <_vfiprintf_r+0x1a6>
    3916:	b371      	cbz	r1, 3976 <_vfiprintf_r+0x12a>
    3918:	e026      	b.n	3968 <_vfiprintf_r+0x11c>
    391a:	4b51      	ldr	r3, [pc, #324]	; (3a60 <_vfiprintf_r+0x214>)
    391c:	429c      	cmp	r4, r3
    391e:	d101      	bne.n	3924 <_vfiprintf_r+0xd8>
    3920:	68b4      	ldr	r4, [r6, #8]
    3922:	e7a3      	b.n	386c <_vfiprintf_r+0x20>
    3924:	4b4f      	ldr	r3, [pc, #316]	; (3a64 <_vfiprintf_r+0x218>)
    3926:	429c      	cmp	r4, r3
    3928:	bf08      	it	eq
    392a:	68f4      	ldreq	r4, [r6, #12]
    392c:	e79e      	b.n	386c <_vfiprintf_r+0x20>
    392e:	4621      	mov	r1, r4
    3930:	4630      	mov	r0, r6
    3932:	f7ff fc61 	bl	31f8 <__swsetup_r>
    3936:	2800      	cmp	r0, #0
    3938:	d09e      	beq.n	3878 <_vfiprintf_r+0x2c>
    393a:	f04f 30ff 	mov.w	r0, #4294967295
    393e:	b01d      	add	sp, #116	; 0x74
    3940:	e8bd 8ff0 	ldmia.w	sp!, {r4, r5, r6, r7, r8, r9, sl, fp, pc}
    3944:	2b25      	cmp	r3, #37	; 0x25
    3946:	d0a7      	beq.n	3898 <_vfiprintf_r+0x4c>
    3948:	46a8      	mov	r8, r5
    394a:	e7a0      	b.n	388e <_vfiprintf_r+0x42>
    394c:	4a43      	ldr	r2, [pc, #268]	; (3a5c <_vfiprintf_r+0x210>)
    394e:	1a80      	subs	r0, r0, r2
    3950:	fa0b f000 	lsl.w	r0, fp, r0
    3954:	4318      	orrs	r0, r3
    3956:	9004      	str	r0, [sp, #16]
    3958:	4645      	mov	r5, r8
    395a:	e7bb      	b.n	38d4 <_vfiprintf_r+0x88>
    395c:	9a03      	ldr	r2, [sp, #12]
    395e:	1d11      	adds	r1, r2, #4
    3960:	6812      	ldr	r2, [r2, #0]
    3962:	9103      	str	r1, [sp, #12]
    3964:	2a00      	cmp	r2, #0
    3966:	db01      	blt.n	396c <_vfiprintf_r+0x120>
    3968:	9207      	str	r2, [sp, #28]
    396a:	e004      	b.n	3976 <_vfiprintf_r+0x12a>
    396c:	4252      	negs	r2, r2
    396e:	f043 0302 	orr.w	r3, r3, #2
    3972:	9207      	str	r2, [sp, #28]
    3974:	9304      	str	r3, [sp, #16]
    3976:	f898 3000 	ldrb.w	r3, [r8]
    397a:	2b2e      	cmp	r3, #46	; 0x2e
    397c:	d110      	bne.n	39a0 <_vfiprintf_r+0x154>
    397e:	f898 3001 	ldrb.w	r3, [r8, #1]
    3982:	2b2a      	cmp	r3, #42	; 0x2a
    3984:	f108 0101 	add.w	r1, r8, #1
    3988:	d137      	bne.n	39fa <_vfiprintf_r+0x1ae>
    398a:	9b03      	ldr	r3, [sp, #12]
    398c:	1d1a      	adds	r2, r3, #4
    398e:	681b      	ldr	r3, [r3, #0]
    3990:	9203      	str	r2, [sp, #12]
    3992:	2b00      	cmp	r3, #0
    3994:	bfb8      	it	lt
    3996:	f04f 33ff 	movlt.w	r3, #4294967295
    399a:	f108 0802 	add.w	r8, r8, #2
    399e:	9305      	str	r3, [sp, #20]
    39a0:	4d31      	ldr	r5, [pc, #196]	; (3a68 <_vfiprintf_r+0x21c>)
    39a2:	f898 1000 	ldrb.w	r1, [r8]
    39a6:	2203      	movs	r2, #3
    39a8:	4628      	mov	r0, r5
    39aa:	f000 faa9 	bl	3f00 <memchr>
    39ae:	b140      	cbz	r0, 39c2 <_vfiprintf_r+0x176>
    39b0:	2340      	movs	r3, #64	; 0x40
    39b2:	1b40      	subs	r0, r0, r5
    39b4:	fa03 f000 	lsl.w	r0, r3, r0
    39b8:	9b04      	ldr	r3, [sp, #16]
    39ba:	4303      	orrs	r3, r0
    39bc:	9304      	str	r3, [sp, #16]
    39be:	f108 0801 	add.w	r8, r8, #1
    39c2:	f898 1000 	ldrb.w	r1, [r8]
    39c6:	4829      	ldr	r0, [pc, #164]	; (3a6c <_vfiprintf_r+0x220>)
    39c8:	f88d 1028 	strb.w	r1, [sp, #40]	; 0x28
    39cc:	2206      	movs	r2, #6
    39ce:	f108 0701 	add.w	r7, r8, #1
    39d2:	f000 fa95 	bl	3f00 <memchr>
    39d6:	2800      	cmp	r0, #0
    39d8:	d034      	beq.n	3a44 <_vfiprintf_r+0x1f8>
    39da:	4b25      	ldr	r3, [pc, #148]	; (3a70 <_vfiprintf_r+0x224>)
    39dc:	bb03      	cbnz	r3, 3a20 <_vfiprintf_r+0x1d4>
    39de:	9b03      	ldr	r3, [sp, #12]
    39e0:	3307      	adds	r3, #7
    39e2:	f023 0307 	bic.w	r3, r3, #7
    39e6:	3308      	adds	r3, #8
    39e8:	9303      	str	r3, [sp, #12]
    39ea:	9b09      	ldr	r3, [sp, #36]	; 0x24
    39ec:	444b      	add	r3, r9
    39ee:	9309      	str	r3, [sp, #36]	; 0x24
    39f0:	e74c      	b.n	388c <_vfiprintf_r+0x40>
    39f2:	fb00 3202 	mla	r2, r0, r2, r3
    39f6:	2101      	movs	r1, #1
    39f8:	e786      	b.n	3908 <_vfiprintf_r+0xbc>
    39fa:	2300      	movs	r3, #0
    39fc:	9305      	str	r3, [sp, #20]
    39fe:	4618      	mov	r0, r3
    3a00:	250a      	movs	r5, #10
    3a02:	4688      	mov	r8, r1
    3a04:	3101      	adds	r1, #1
    3a06:	f898 2000 	ldrb.w	r2, [r8]
    3a0a:	3a30      	subs	r2, #48	; 0x30
    3a0c:	2a09      	cmp	r2, #9
    3a0e:	d903      	bls.n	3a18 <_vfiprintf_r+0x1cc>
    3a10:	2b00      	cmp	r3, #0
    3a12:	d0c5      	beq.n	39a0 <_vfiprintf_r+0x154>
    3a14:	9005      	str	r0, [sp, #20]
    3a16:	e7c3      	b.n	39a0 <_vfiprintf_r+0x154>
    3a18:	fb05 2000 	mla	r0, r5, r0, r2
    3a1c:	2301      	movs	r3, #1
    3a1e:	e7f0      	b.n	3a02 <_vfiprintf_r+0x1b6>
    3a20:	ab03      	add	r3, sp, #12
    3a22:	9300      	str	r3, [sp, #0]
    3a24:	4622      	mov	r2, r4
    3a26:	4b13      	ldr	r3, [pc, #76]	; (3a74 <_vfiprintf_r+0x228>)
    3a28:	a904      	add	r1, sp, #16
    3a2a:	4630      	mov	r0, r6
    3a2c:	f3af 8000 	nop.w
    3a30:	f1b0 3fff 	cmp.w	r0, #4294967295
    3a34:	4681      	mov	r9, r0
    3a36:	d1d8      	bne.n	39ea <_vfiprintf_r+0x19e>
    3a38:	89a3      	ldrh	r3, [r4, #12]
    3a3a:	065b      	lsls	r3, r3, #25
    3a3c:	f53f af7d 	bmi.w	393a <_vfiprintf_r+0xee>
    3a40:	9809      	ldr	r0, [sp, #36]	; 0x24
    3a42:	e77c      	b.n	393e <_vfiprintf_r+0xf2>
    3a44:	ab03      	add	r3, sp, #12
    3a46:	9300      	str	r3, [sp, #0]
    3a48:	4622      	mov	r2, r4
    3a4a:	4b0a      	ldr	r3, [pc, #40]	; (3a74 <_vfiprintf_r+0x228>)
    3a4c:	a904      	add	r1, sp, #16
    3a4e:	4630      	mov	r0, r6
    3a50:	f000 f888 	bl	3b64 <_printf_i>
    3a54:	e7ec      	b.n	3a30 <_vfiprintf_r+0x1e4>
    3a56:	bf00      	nop
    3a58:	00005f3c 	.word	0x00005f3c
    3a5c:	00005f7c 	.word	0x00005f7c
    3a60:	00005f5c 	.word	0x00005f5c
    3a64:	00005f1c 	.word	0x00005f1c
    3a68:	00005f82 	.word	0x00005f82
    3a6c:	00005f86 	.word	0x00005f86
    3a70:	00000000 	.word	0x00000000
    3a74:	00003829 	.word	0x00003829

00003a78 <_printf_common>:
    3a78:	e92d 47f0 	stmdb	sp!, {r4, r5, r6, r7, r8, r9, sl, lr}
    3a7c:	4691      	mov	r9, r2
    3a7e:	461f      	mov	r7, r3
    3a80:	688a      	ldr	r2, [r1, #8]
    3a82:	690b      	ldr	r3, [r1, #16]
    3a84:	f8dd 8020 	ldr.w	r8, [sp, #32]
    3a88:	4293      	cmp	r3, r2
    3a8a:	bfb8      	it	lt
    3a8c:	4613      	movlt	r3, r2
    3a8e:	f8c9 3000 	str.w	r3, [r9]
    3a92:	f891 2043 	ldrb.w	r2, [r1, #67]	; 0x43
    3a96:	4606      	mov	r6, r0
    3a98:	460c      	mov	r4, r1
    3a9a:	b112      	cbz	r2, 3aa2 <_printf_common+0x2a>
    3a9c:	3301      	adds	r3, #1
    3a9e:	f8c9 3000 	str.w	r3, [r9]
    3aa2:	6823      	ldr	r3, [r4, #0]
    3aa4:	0699      	lsls	r1, r3, #26
    3aa6:	bf42      	ittt	mi
    3aa8:	f8d9 3000 	ldrmi.w	r3, [r9]
    3aac:	3302      	addmi	r3, #2
    3aae:	f8c9 3000 	strmi.w	r3, [r9]
    3ab2:	6825      	ldr	r5, [r4, #0]
    3ab4:	f015 0506 	ands.w	r5, r5, #6
    3ab8:	d107      	bne.n	3aca <_printf_common+0x52>
    3aba:	f104 0a19 	add.w	sl, r4, #25
    3abe:	68e3      	ldr	r3, [r4, #12]
    3ac0:	f8d9 2000 	ldr.w	r2, [r9]
    3ac4:	1a9b      	subs	r3, r3, r2
    3ac6:	429d      	cmp	r5, r3
    3ac8:	db29      	blt.n	3b1e <_printf_common+0xa6>
    3aca:	f894 3043 	ldrb.w	r3, [r4, #67]	; 0x43
    3ace:	6822      	ldr	r2, [r4, #0]
    3ad0:	3300      	adds	r3, #0
    3ad2:	bf18      	it	ne
    3ad4:	2301      	movne	r3, #1
    3ad6:	0692      	lsls	r2, r2, #26
    3ad8:	d42e      	bmi.n	3b38 <_printf_common+0xc0>
    3ada:	f104 0243 	add.w	r2, r4, #67	; 0x43
    3ade:	4639      	mov	r1, r7
    3ae0:	4630      	mov	r0, r6
    3ae2:	47c0      	blx	r8
    3ae4:	3001      	adds	r0, #1
    3ae6:	d021      	beq.n	3b2c <_printf_common+0xb4>
    3ae8:	6823      	ldr	r3, [r4, #0]
    3aea:	68e5      	ldr	r5, [r4, #12]
    3aec:	f8d9 2000 	ldr.w	r2, [r9]
    3af0:	f003 0306 	and.w	r3, r3, #6
    3af4:	2b04      	cmp	r3, #4
    3af6:	bf08      	it	eq
    3af8:	1aad      	subeq	r5, r5, r2
    3afa:	68a3      	ldr	r3, [r4, #8]
    3afc:	6922      	ldr	r2, [r4, #16]
    3afe:	bf0c      	ite	eq
    3b00:	ea25 75e5 	biceq.w	r5, r5, r5, asr #31
    3b04:	2500      	movne	r5, #0
    3b06:	4293      	cmp	r3, r2
    3b08:	bfc4      	itt	gt
    3b0a:	1a9b      	subgt	r3, r3, r2
    3b0c:	18ed      	addgt	r5, r5, r3
    3b0e:	f04f 0900 	mov.w	r9, #0
    3b12:	341a      	adds	r4, #26
    3b14:	454d      	cmp	r5, r9
    3b16:	d11b      	bne.n	3b50 <_printf_common+0xd8>
    3b18:	2000      	movs	r0, #0
    3b1a:	e8bd 87f0 	ldmia.w	sp!, {r4, r5, r6, r7, r8, r9, sl, pc}
    3b1e:	2301      	movs	r3, #1
    3b20:	4652      	mov	r2, sl
    3b22:	4639      	mov	r1, r7
    3b24:	4630      	mov	r0, r6
    3b26:	47c0      	blx	r8
    3b28:	3001      	adds	r0, #1
    3b2a:	d103      	bne.n	3b34 <_printf_common+0xbc>
    3b2c:	f04f 30ff 	mov.w	r0, #4294967295
    3b30:	e8bd 87f0 	ldmia.w	sp!, {r4, r5, r6, r7, r8, r9, sl, pc}
    3b34:	3501      	adds	r5, #1
    3b36:	e7c2      	b.n	3abe <_printf_common+0x46>
    3b38:	18e1      	adds	r1, r4, r3
    3b3a:	1c5a      	adds	r2, r3, #1
    3b3c:	2030      	movs	r0, #48	; 0x30
    3b3e:	f881 0043 	strb.w	r0, [r1, #67]	; 0x43
    3b42:	4422      	add	r2, r4
    3b44:	f894 1045 	ldrb.w	r1, [r4, #69]	; 0x45
    3b48:	f882 1043 	strb.w	r1, [r2, #67]	; 0x43
    3b4c:	3302      	adds	r3, #2
    3b4e:	e7c4      	b.n	3ada <_printf_common+0x62>
    3b50:	2301      	movs	r3, #1
    3b52:	4622      	mov	r2, r4
    3b54:	4639      	mov	r1, r7
    3b56:	4630      	mov	r0, r6
    3b58:	47c0      	blx	r8
    3b5a:	3001      	adds	r0, #1
    3b5c:	d0e6      	beq.n	3b2c <_printf_common+0xb4>
    3b5e:	f109 0901 	add.w	r9, r9, #1
    3b62:	e7d7      	b.n	3b14 <_printf_common+0x9c>

00003b64 <_printf_i>:
    3b64:	e92d 43f0 	stmdb	sp!, {r4, r5, r6, r7, r8, r9, lr}
    3b68:	4617      	mov	r7, r2
    3b6a:	7e0a      	ldrb	r2, [r1, #24]
    3b6c:	b085      	sub	sp, #20
    3b6e:	2a6e      	cmp	r2, #110	; 0x6e
    3b70:	4698      	mov	r8, r3
    3b72:	4606      	mov	r6, r0
    3b74:	460c      	mov	r4, r1
    3b76:	9b0c      	ldr	r3, [sp, #48]	; 0x30
    3b78:	f101 0e43 	add.w	lr, r1, #67	; 0x43
    3b7c:	f000 80bc 	beq.w	3cf8 <_printf_i+0x194>
    3b80:	d81a      	bhi.n	3bb8 <_printf_i+0x54>
    3b82:	2a63      	cmp	r2, #99	; 0x63
    3b84:	d02e      	beq.n	3be4 <_printf_i+0x80>
    3b86:	d80a      	bhi.n	3b9e <_printf_i+0x3a>
    3b88:	2a00      	cmp	r2, #0
    3b8a:	f000 80c8 	beq.w	3d1e <_printf_i+0x1ba>
    3b8e:	2a58      	cmp	r2, #88	; 0x58
    3b90:	f000 808a 	beq.w	3ca8 <_printf_i+0x144>
    3b94:	f104 0542 	add.w	r5, r4, #66	; 0x42
    3b98:	f884 2042 	strb.w	r2, [r4, #66]	; 0x42
    3b9c:	e02a      	b.n	3bf4 <_printf_i+0x90>
    3b9e:	2a64      	cmp	r2, #100	; 0x64
    3ba0:	d001      	beq.n	3ba6 <_printf_i+0x42>
    3ba2:	2a69      	cmp	r2, #105	; 0x69
    3ba4:	d1f6      	bne.n	3b94 <_printf_i+0x30>
    3ba6:	6821      	ldr	r1, [r4, #0]
    3ba8:	681a      	ldr	r2, [r3, #0]
    3baa:	f011 0f80 	tst.w	r1, #128	; 0x80
    3bae:	d023      	beq.n	3bf8 <_printf_i+0x94>
    3bb0:	1d11      	adds	r1, r2, #4
    3bb2:	6019      	str	r1, [r3, #0]
    3bb4:	6813      	ldr	r3, [r2, #0]
    3bb6:	e027      	b.n	3c08 <_printf_i+0xa4>
    3bb8:	2a73      	cmp	r2, #115	; 0x73
    3bba:	f000 80b4 	beq.w	3d26 <_printf_i+0x1c2>
    3bbe:	d808      	bhi.n	3bd2 <_printf_i+0x6e>
    3bc0:	2a6f      	cmp	r2, #111	; 0x6f
    3bc2:	d02a      	beq.n	3c1a <_printf_i+0xb6>
    3bc4:	2a70      	cmp	r2, #112	; 0x70
    3bc6:	d1e5      	bne.n	3b94 <_printf_i+0x30>
    3bc8:	680a      	ldr	r2, [r1, #0]
    3bca:	f042 0220 	orr.w	r2, r2, #32
    3bce:	600a      	str	r2, [r1, #0]
    3bd0:	e003      	b.n	3bda <_printf_i+0x76>
    3bd2:	2a75      	cmp	r2, #117	; 0x75
    3bd4:	d021      	beq.n	3c1a <_printf_i+0xb6>
    3bd6:	2a78      	cmp	r2, #120	; 0x78
    3bd8:	d1dc      	bne.n	3b94 <_printf_i+0x30>
    3bda:	2278      	movs	r2, #120	; 0x78
    3bdc:	f884 2045 	strb.w	r2, [r4, #69]	; 0x45
    3be0:	496e      	ldr	r1, [pc, #440]	; (3d9c <_printf_i+0x238>)
    3be2:	e064      	b.n	3cae <_printf_i+0x14a>
    3be4:	681a      	ldr	r2, [r3, #0]
    3be6:	f101 0542 	add.w	r5, r1, #66	; 0x42
    3bea:	1d11      	adds	r1, r2, #4
    3bec:	6019      	str	r1, [r3, #0]
    3bee:	6813      	ldr	r3, [r2, #0]
    3bf0:	f884 3042 	strb.w	r3, [r4, #66]	; 0x42
    3bf4:	2301      	movs	r3, #1
    3bf6:	e0a3      	b.n	3d40 <_printf_i+0x1dc>
    3bf8:	f011 0f40 	tst.w	r1, #64	; 0x40
    3bfc:	f102 0104 	add.w	r1, r2, #4
    3c00:	6019      	str	r1, [r3, #0]
    3c02:	d0d7      	beq.n	3bb4 <_printf_i+0x50>
    3c04:	f9b2 3000 	ldrsh.w	r3, [r2]
    3c08:	2b00      	cmp	r3, #0
    3c0a:	da03      	bge.n	3c14 <_printf_i+0xb0>
    3c0c:	222d      	movs	r2, #45	; 0x2d
    3c0e:	425b      	negs	r3, r3
    3c10:	f884 2043 	strb.w	r2, [r4, #67]	; 0x43
    3c14:	4962      	ldr	r1, [pc, #392]	; (3da0 <_printf_i+0x23c>)
    3c16:	220a      	movs	r2, #10
    3c18:	e017      	b.n	3c4a <_printf_i+0xe6>
    3c1a:	6820      	ldr	r0, [r4, #0]
    3c1c:	6819      	ldr	r1, [r3, #0]
    3c1e:	f010 0f80 	tst.w	r0, #128	; 0x80
    3c22:	d003      	beq.n	3c2c <_printf_i+0xc8>
    3c24:	1d08      	adds	r0, r1, #4
    3c26:	6018      	str	r0, [r3, #0]
    3c28:	680b      	ldr	r3, [r1, #0]
    3c2a:	e006      	b.n	3c3a <_printf_i+0xd6>
    3c2c:	f010 0f40 	tst.w	r0, #64	; 0x40
    3c30:	f101 0004 	add.w	r0, r1, #4
    3c34:	6018      	str	r0, [r3, #0]
    3c36:	d0f7      	beq.n	3c28 <_printf_i+0xc4>
    3c38:	880b      	ldrh	r3, [r1, #0]
    3c3a:	4959      	ldr	r1, [pc, #356]	; (3da0 <_printf_i+0x23c>)
    3c3c:	2a6f      	cmp	r2, #111	; 0x6f
    3c3e:	bf14      	ite	ne
    3c40:	220a      	movne	r2, #10
    3c42:	2208      	moveq	r2, #8
    3c44:	2000      	movs	r0, #0
    3c46:	f884 0043 	strb.w	r0, [r4, #67]	; 0x43
    3c4a:	6865      	ldr	r5, [r4, #4]
    3c4c:	60a5      	str	r5, [r4, #8]
    3c4e:	2d00      	cmp	r5, #0
    3c50:	f2c0 809c 	blt.w	3d8c <_printf_i+0x228>
    3c54:	6820      	ldr	r0, [r4, #0]
    3c56:	f020 0004 	bic.w	r0, r0, #4
    3c5a:	6020      	str	r0, [r4, #0]
    3c5c:	2b00      	cmp	r3, #0
    3c5e:	d13f      	bne.n	3ce0 <_printf_i+0x17c>
    3c60:	2d00      	cmp	r5, #0
    3c62:	f040 8095 	bne.w	3d90 <_printf_i+0x22c>
    3c66:	4675      	mov	r5, lr
    3c68:	2a08      	cmp	r2, #8
    3c6a:	d10b      	bne.n	3c84 <_printf_i+0x120>
    3c6c:	6823      	ldr	r3, [r4, #0]
    3c6e:	07da      	lsls	r2, r3, #31
    3c70:	d508      	bpl.n	3c84 <_printf_i+0x120>
    3c72:	6923      	ldr	r3, [r4, #16]
    3c74:	6862      	ldr	r2, [r4, #4]
    3c76:	429a      	cmp	r2, r3
    3c78:	bfde      	ittt	le
    3c7a:	2330      	movle	r3, #48	; 0x30
    3c7c:	f805 3c01 	strble.w	r3, [r5, #-1]
    3c80:	f105 35ff 	addle.w	r5, r5, #4294967295
    3c84:	ebae 0305 	sub.w	r3, lr, r5
    3c88:	6123      	str	r3, [r4, #16]
    3c8a:	f8cd 8000 	str.w	r8, [sp]
    3c8e:	463b      	mov	r3, r7
    3c90:	aa03      	add	r2, sp, #12
    3c92:	4621      	mov	r1, r4
    3c94:	4630      	mov	r0, r6
    3c96:	f7ff feef 	bl	3a78 <_printf_common>
    3c9a:	3001      	adds	r0, #1
    3c9c:	d155      	bne.n	3d4a <_printf_i+0x1e6>
    3c9e:	f04f 30ff 	mov.w	r0, #4294967295
    3ca2:	b005      	add	sp, #20
    3ca4:	e8bd 83f0 	ldmia.w	sp!, {r4, r5, r6, r7, r8, r9, pc}
    3ca8:	f881 2045 	strb.w	r2, [r1, #69]	; 0x45
    3cac:	493c      	ldr	r1, [pc, #240]	; (3da0 <_printf_i+0x23c>)
    3cae:	6822      	ldr	r2, [r4, #0]
    3cb0:	6818      	ldr	r0, [r3, #0]
    3cb2:	f012 0f80 	tst.w	r2, #128	; 0x80
    3cb6:	f100 0504 	add.w	r5, r0, #4
    3cba:	601d      	str	r5, [r3, #0]
    3cbc:	d001      	beq.n	3cc2 <_printf_i+0x15e>
    3cbe:	6803      	ldr	r3, [r0, #0]
    3cc0:	e002      	b.n	3cc8 <_printf_i+0x164>
    3cc2:	0655      	lsls	r5, r2, #25
    3cc4:	d5fb      	bpl.n	3cbe <_printf_i+0x15a>
    3cc6:	8803      	ldrh	r3, [r0, #0]
    3cc8:	07d0      	lsls	r0, r2, #31
    3cca:	bf44      	itt	mi
    3ccc:	f042 0220 	orrmi.w	r2, r2, #32
    3cd0:	6022      	strmi	r2, [r4, #0]
    3cd2:	b91b      	cbnz	r3, 3cdc <_printf_i+0x178>
    3cd4:	6822      	ldr	r2, [r4, #0]
    3cd6:	f022 0220 	bic.w	r2, r2, #32
    3cda:	6022      	str	r2, [r4, #0]
    3cdc:	2210      	movs	r2, #16
    3cde:	e7b1      	b.n	3c44 <_printf_i+0xe0>
    3ce0:	4675      	mov	r5, lr
    3ce2:	fbb3 f0f2 	udiv	r0, r3, r2
    3ce6:	fb02 3310 	mls	r3, r2, r0, r3
    3cea:	5ccb      	ldrb	r3, [r1, r3]
    3cec:	f805 3d01 	strb.w	r3, [r5, #-1]!
    3cf0:	4603      	mov	r3, r0
    3cf2:	2800      	cmp	r0, #0
    3cf4:	d1f5      	bne.n	3ce2 <_printf_i+0x17e>
    3cf6:	e7b7      	b.n	3c68 <_printf_i+0x104>
    3cf8:	6808      	ldr	r0, [r1, #0]
    3cfa:	681a      	ldr	r2, [r3, #0]
    3cfc:	6949      	ldr	r1, [r1, #20]
    3cfe:	f010 0f80 	tst.w	r0, #128	; 0x80
    3d02:	d004      	beq.n	3d0e <_printf_i+0x1aa>
    3d04:	1d10      	adds	r0, r2, #4
    3d06:	6018      	str	r0, [r3, #0]
    3d08:	6813      	ldr	r3, [r2, #0]
    3d0a:	6019      	str	r1, [r3, #0]
    3d0c:	e007      	b.n	3d1e <_printf_i+0x1ba>
    3d0e:	f010 0f40 	tst.w	r0, #64	; 0x40
    3d12:	f102 0004 	add.w	r0, r2, #4
    3d16:	6018      	str	r0, [r3, #0]
    3d18:	6813      	ldr	r3, [r2, #0]
    3d1a:	d0f6      	beq.n	3d0a <_printf_i+0x1a6>
    3d1c:	8019      	strh	r1, [r3, #0]
    3d1e:	2300      	movs	r3, #0
    3d20:	6123      	str	r3, [r4, #16]
    3d22:	4675      	mov	r5, lr
    3d24:	e7b1      	b.n	3c8a <_printf_i+0x126>
    3d26:	681a      	ldr	r2, [r3, #0]
    3d28:	1d11      	adds	r1, r2, #4
    3d2a:	6019      	str	r1, [r3, #0]
    3d2c:	6815      	ldr	r5, [r2, #0]
    3d2e:	6862      	ldr	r2, [r4, #4]
    3d30:	2100      	movs	r1, #0
    3d32:	4628      	mov	r0, r5
    3d34:	f000 f8e4 	bl	3f00 <memchr>
    3d38:	b108      	cbz	r0, 3d3e <_printf_i+0x1da>
    3d3a:	1b40      	subs	r0, r0, r5
    3d3c:	6060      	str	r0, [r4, #4]
    3d3e:	6863      	ldr	r3, [r4, #4]
    3d40:	6123      	str	r3, [r4, #16]
    3d42:	2300      	movs	r3, #0
    3d44:	f884 3043 	strb.w	r3, [r4, #67]	; 0x43
    3d48:	e79f      	b.n	3c8a <_printf_i+0x126>
    3d4a:	6923      	ldr	r3, [r4, #16]
    3d4c:	462a      	mov	r2, r5
    3d4e:	4639      	mov	r1, r7
    3d50:	4630      	mov	r0, r6
    3d52:	47c0      	blx	r8
    3d54:	3001      	adds	r0, #1
    3d56:	d0a2      	beq.n	3c9e <_printf_i+0x13a>
    3d58:	6823      	ldr	r3, [r4, #0]
    3d5a:	079b      	lsls	r3, r3, #30
    3d5c:	d507      	bpl.n	3d6e <_printf_i+0x20a>
    3d5e:	2500      	movs	r5, #0
    3d60:	f104 0919 	add.w	r9, r4, #25
    3d64:	68e3      	ldr	r3, [r4, #12]
    3d66:	9a03      	ldr	r2, [sp, #12]
    3d68:	1a9b      	subs	r3, r3, r2
    3d6a:	429d      	cmp	r5, r3
    3d6c:	db05      	blt.n	3d7a <_printf_i+0x216>
    3d6e:	68e0      	ldr	r0, [r4, #12]
    3d70:	9b03      	ldr	r3, [sp, #12]
    3d72:	4298      	cmp	r0, r3
    3d74:	bfb8      	it	lt
    3d76:	4618      	movlt	r0, r3
    3d78:	e793      	b.n	3ca2 <_printf_i+0x13e>
    3d7a:	2301      	movs	r3, #1
    3d7c:	464a      	mov	r2, r9
    3d7e:	4639      	mov	r1, r7
    3d80:	4630      	mov	r0, r6
    3d82:	47c0      	blx	r8
    3d84:	3001      	adds	r0, #1
    3d86:	d08a      	beq.n	3c9e <_printf_i+0x13a>
    3d88:	3501      	adds	r5, #1
    3d8a:	e7eb      	b.n	3d64 <_printf_i+0x200>
    3d8c:	2b00      	cmp	r3, #0
    3d8e:	d1a7      	bne.n	3ce0 <_printf_i+0x17c>
    3d90:	780b      	ldrb	r3, [r1, #0]
    3d92:	f884 3042 	strb.w	r3, [r4, #66]	; 0x42
    3d96:	f104 0542 	add.w	r5, r4, #66	; 0x42
    3d9a:	e765      	b.n	3c68 <_printf_i+0x104>
    3d9c:	00005f9e 	.word	0x00005f9e
    3da0:	00005f8d 	.word	0x00005f8d

00003da4 <_sbrk_r>:
    3da4:	b538      	push	{r3, r4, r5, lr}
    3da6:	4c06      	ldr	r4, [pc, #24]	; (3dc0 <_sbrk_r+0x1c>)
    3da8:	2300      	movs	r3, #0
    3daa:	4605      	mov	r5, r0
    3dac:	4608      	mov	r0, r1
    3dae:	6023      	str	r3, [r4, #0]
    3db0:	f7fc fd76 	bl	8a0 <_sbrk>
    3db4:	1c43      	adds	r3, r0, #1
    3db6:	d102      	bne.n	3dbe <_sbrk_r+0x1a>
    3db8:	6823      	ldr	r3, [r4, #0]
    3dba:	b103      	cbz	r3, 3dbe <_sbrk_r+0x1a>
    3dbc:	602b      	str	r3, [r5, #0]
    3dbe:	bd38      	pop	{r3, r4, r5, pc}
    3dc0:	2000316c 	.word	0x2000316c

00003dc4 <__sread>:
    3dc4:	b510      	push	{r4, lr}
    3dc6:	460c      	mov	r4, r1
    3dc8:	f9b1 100e 	ldrsh.w	r1, [r1, #14]
    3dcc:	f000 f8ea 	bl	3fa4 <_read_r>
    3dd0:	2800      	cmp	r0, #0
    3dd2:	bfab      	itete	ge
    3dd4:	6d63      	ldrge	r3, [r4, #84]	; 0x54
    3dd6:	89a3      	ldrhlt	r3, [r4, #12]
    3dd8:	181b      	addge	r3, r3, r0
    3dda:	f423 5380 	biclt.w	r3, r3, #4096	; 0x1000
    3dde:	bfac      	ite	ge
    3de0:	6563      	strge	r3, [r4, #84]	; 0x54
    3de2:	81a3      	strhlt	r3, [r4, #12]
    3de4:	bd10      	pop	{r4, pc}

00003de6 <__swrite>:
    3de6:	e92d 41f0 	stmdb	sp!, {r4, r5, r6, r7, r8, lr}
    3dea:	461f      	mov	r7, r3
    3dec:	898b      	ldrh	r3, [r1, #12]
    3dee:	05db      	lsls	r3, r3, #23
    3df0:	4605      	mov	r5, r0
    3df2:	460c      	mov	r4, r1
    3df4:	4616      	mov	r6, r2
    3df6:	d505      	bpl.n	3e04 <__swrite+0x1e>
    3df8:	2302      	movs	r3, #2
    3dfa:	2200      	movs	r2, #0
    3dfc:	f9b1 100e 	ldrsh.w	r1, [r1, #14]
    3e00:	f000 f868 	bl	3ed4 <_lseek_r>
    3e04:	89a3      	ldrh	r3, [r4, #12]
    3e06:	f9b4 100e 	ldrsh.w	r1, [r4, #14]
    3e0a:	f423 5380 	bic.w	r3, r3, #4096	; 0x1000
    3e0e:	81a3      	strh	r3, [r4, #12]
    3e10:	4632      	mov	r2, r6
    3e12:	463b      	mov	r3, r7
    3e14:	4628      	mov	r0, r5
    3e16:	e8bd 41f0 	ldmia.w	sp!, {r4, r5, r6, r7, r8, lr}
    3e1a:	f000 b817 	b.w	3e4c <_write_r>

00003e1e <__sseek>:
    3e1e:	b510      	push	{r4, lr}
    3e20:	460c      	mov	r4, r1
    3e22:	f9b1 100e 	ldrsh.w	r1, [r1, #14]
    3e26:	f000 f855 	bl	3ed4 <_lseek_r>
    3e2a:	1c43      	adds	r3, r0, #1
    3e2c:	89a3      	ldrh	r3, [r4, #12]
    3e2e:	bf15      	itete	ne
    3e30:	6560      	strne	r0, [r4, #84]	; 0x54
    3e32:	f423 5380 	biceq.w	r3, r3, #4096	; 0x1000
    3e36:	f443 5380 	orrne.w	r3, r3, #4096	; 0x1000
    3e3a:	81a3      	strheq	r3, [r4, #12]
    3e3c:	bf18      	it	ne
    3e3e:	81a3      	strhne	r3, [r4, #12]
    3e40:	bd10      	pop	{r4, pc}

00003e42 <__sclose>:
    3e42:	f9b1 100e 	ldrsh.w	r1, [r1, #14]
    3e46:	f000 b813 	b.w	3e70 <_close_r>
	...

00003e4c <_write_r>:
    3e4c:	b538      	push	{r3, r4, r5, lr}
    3e4e:	4c07      	ldr	r4, [pc, #28]	; (3e6c <_write_r+0x20>)
    3e50:	4605      	mov	r5, r0
    3e52:	4608      	mov	r0, r1
    3e54:	4611      	mov	r1, r2
    3e56:	2200      	movs	r2, #0
    3e58:	6022      	str	r2, [r4, #0]
    3e5a:	461a      	mov	r2, r3
    3e5c:	f7fe f8aa 	bl	1fb4 <_write>
    3e60:	1c43      	adds	r3, r0, #1
    3e62:	d102      	bne.n	3e6a <_write_r+0x1e>
    3e64:	6823      	ldr	r3, [r4, #0]
    3e66:	b103      	cbz	r3, 3e6a <_write_r+0x1e>
    3e68:	602b      	str	r3, [r5, #0]
    3e6a:	bd38      	pop	{r3, r4, r5, pc}
    3e6c:	2000316c 	.word	0x2000316c

00003e70 <_close_r>:
    3e70:	b538      	push	{r3, r4, r5, lr}
    3e72:	4c06      	ldr	r4, [pc, #24]	; (3e8c <_close_r+0x1c>)
    3e74:	2300      	movs	r3, #0
    3e76:	4605      	mov	r5, r0
    3e78:	4608      	mov	r0, r1
    3e7a:	6023      	str	r3, [r4, #0]
    3e7c:	f7fc fd1e 	bl	8bc <_close>
    3e80:	1c43      	adds	r3, r0, #1
    3e82:	d102      	bne.n	3e8a <_close_r+0x1a>
    3e84:	6823      	ldr	r3, [r4, #0]
    3e86:	b103      	cbz	r3, 3e8a <_close_r+0x1a>
    3e88:	602b      	str	r3, [r5, #0]
    3e8a:	bd38      	pop	{r3, r4, r5, pc}
    3e8c:	2000316c 	.word	0x2000316c

00003e90 <_fstat_r>:
    3e90:	b538      	push	{r3, r4, r5, lr}
    3e92:	4c07      	ldr	r4, [pc, #28]	; (3eb0 <_fstat_r+0x20>)
    3e94:	2300      	movs	r3, #0
    3e96:	4605      	mov	r5, r0
    3e98:	4608      	mov	r0, r1
    3e9a:	4611      	mov	r1, r2
    3e9c:	6023      	str	r3, [r4, #0]
    3e9e:	f7fc fd10 	bl	8c2 <_fstat>
    3ea2:	1c43      	adds	r3, r0, #1
    3ea4:	d102      	bne.n	3eac <_fstat_r+0x1c>
    3ea6:	6823      	ldr	r3, [r4, #0]
    3ea8:	b103      	cbz	r3, 3eac <_fstat_r+0x1c>
    3eaa:	602b      	str	r3, [r5, #0]
    3eac:	bd38      	pop	{r3, r4, r5, pc}
    3eae:	bf00      	nop
    3eb0:	2000316c 	.word	0x2000316c

00003eb4 <_isatty_r>:
    3eb4:	b538      	push	{r3, r4, r5, lr}
    3eb6:	4c06      	ldr	r4, [pc, #24]	; (3ed0 <_isatty_r+0x1c>)
    3eb8:	2300      	movs	r3, #0
    3eba:	4605      	mov	r5, r0
    3ebc:	4608      	mov	r0, r1
    3ebe:	6023      	str	r3, [r4, #0]
    3ec0:	f7fc fd04 	bl	8cc <_isatty>
    3ec4:	1c43      	adds	r3, r0, #1
    3ec6:	d102      	bne.n	3ece <_isatty_r+0x1a>
    3ec8:	6823      	ldr	r3, [r4, #0]
    3eca:	b103      	cbz	r3, 3ece <_isatty_r+0x1a>
    3ecc:	602b      	str	r3, [r5, #0]
    3ece:	bd38      	pop	{r3, r4, r5, pc}
    3ed0:	2000316c 	.word	0x2000316c

00003ed4 <_lseek_r>:
    3ed4:	b538      	push	{r3, r4, r5, lr}
    3ed6:	4c07      	ldr	r4, [pc, #28]	; (3ef4 <_lseek_r+0x20>)
    3ed8:	4605      	mov	r5, r0
    3eda:	4608      	mov	r0, r1
    3edc:	4611      	mov	r1, r2
    3ede:	2200      	movs	r2, #0
    3ee0:	6022      	str	r2, [r4, #0]
    3ee2:	461a      	mov	r2, r3
    3ee4:	f7fc fcf4 	bl	8d0 <_lseek>
    3ee8:	1c43      	adds	r3, r0, #1
    3eea:	d102      	bne.n	3ef2 <_lseek_r+0x1e>
    3eec:	6823      	ldr	r3, [r4, #0]
    3eee:	b103      	cbz	r3, 3ef2 <_lseek_r+0x1e>
    3ef0:	602b      	str	r3, [r5, #0]
    3ef2:	bd38      	pop	{r3, r4, r5, pc}
    3ef4:	2000316c 	.word	0x2000316c
	...

00003f00 <memchr>:
    3f00:	f001 01ff 	and.w	r1, r1, #255	; 0xff
    3f04:	2a10      	cmp	r2, #16
    3f06:	db2b      	blt.n	3f60 <memchr+0x60>
    3f08:	f010 0f07 	tst.w	r0, #7
    3f0c:	d008      	beq.n	3f20 <memchr+0x20>
    3f0e:	f810 3b01 	ldrb.w	r3, [r0], #1
    3f12:	3a01      	subs	r2, #1
    3f14:	428b      	cmp	r3, r1
    3f16:	d02d      	beq.n	3f74 <memchr+0x74>
    3f18:	f010 0f07 	tst.w	r0, #7
    3f1c:	b342      	cbz	r2, 3f70 <memchr+0x70>
    3f1e:	d1f6      	bne.n	3f0e <memchr+0xe>
    3f20:	b4f0      	push	{r4, r5, r6, r7}
    3f22:	ea41 2101 	orr.w	r1, r1, r1, lsl #8
    3f26:	ea41 4101 	orr.w	r1, r1, r1, lsl #16
    3f2a:	f022 0407 	bic.w	r4, r2, #7
    3f2e:	f07f 0700 	mvns.w	r7, #0
    3f32:	2300      	movs	r3, #0
    3f34:	e8f0 5602 	ldrd	r5, r6, [r0], #8
    3f38:	3c08      	subs	r4, #8
    3f3a:	ea85 0501 	eor.w	r5, r5, r1
    3f3e:	ea86 0601 	eor.w	r6, r6, r1
    3f42:	fa85 f547 	uadd8	r5, r5, r7
    3f46:	faa3 f587 	sel	r5, r3, r7
    3f4a:	fa86 f647 	uadd8	r6, r6, r7
    3f4e:	faa5 f687 	sel	r6, r5, r7
    3f52:	b98e      	cbnz	r6, 3f78 <memchr+0x78>
    3f54:	d1ee      	bne.n	3f34 <memchr+0x34>
    3f56:	bcf0      	pop	{r4, r5, r6, r7}
    3f58:	f001 01ff 	and.w	r1, r1, #255	; 0xff
    3f5c:	f002 0207 	and.w	r2, r2, #7
    3f60:	b132      	cbz	r2, 3f70 <memchr+0x70>
    3f62:	f810 3b01 	ldrb.w	r3, [r0], #1
    3f66:	3a01      	subs	r2, #1
    3f68:	ea83 0301 	eor.w	r3, r3, r1
    3f6c:	b113      	cbz	r3, 3f74 <memchr+0x74>
    3f6e:	d1f8      	bne.n	3f62 <memchr+0x62>
    3f70:	2000      	movs	r0, #0
    3f72:	4770      	bx	lr
    3f74:	3801      	subs	r0, #1
    3f76:	4770      	bx	lr
    3f78:	2d00      	cmp	r5, #0
    3f7a:	bf06      	itte	eq
    3f7c:	4635      	moveq	r5, r6
    3f7e:	3803      	subeq	r0, #3
    3f80:	3807      	subne	r0, #7
    3f82:	f015 0f01 	tst.w	r5, #1
    3f86:	d107      	bne.n	3f98 <memchr+0x98>
    3f88:	3001      	adds	r0, #1
    3f8a:	f415 7f80 	tst.w	r5, #256	; 0x100
    3f8e:	bf02      	ittt	eq
    3f90:	3001      	addeq	r0, #1
    3f92:	f415 3fc0 	tsteq.w	r5, #98304	; 0x18000
    3f96:	3001      	addeq	r0, #1
    3f98:	bcf0      	pop	{r4, r5, r6, r7}
    3f9a:	3801      	subs	r0, #1
    3f9c:	4770      	bx	lr
    3f9e:	bf00      	nop

00003fa0 <__malloc_lock>:
    3fa0:	4770      	bx	lr

00003fa2 <__malloc_unlock>:
    3fa2:	4770      	bx	lr

00003fa4 <_read_r>:
    3fa4:	b538      	push	{r3, r4, r5, lr}
    3fa6:	4c07      	ldr	r4, [pc, #28]	; (3fc4 <_read_r+0x20>)
    3fa8:	4605      	mov	r5, r0
    3faa:	4608      	mov	r0, r1
    3fac:	4611      	mov	r1, r2
    3fae:	2200      	movs	r2, #0
    3fb0:	6022      	str	r2, [r4, #0]
    3fb2:	461a      	mov	r2, r3
    3fb4:	f7fd ffee 	bl	1f94 <_read>
    3fb8:	1c43      	adds	r3, r0, #1
    3fba:	d102      	bne.n	3fc2 <_read_r+0x1e>
    3fbc:	6823      	ldr	r3, [r4, #0]
    3fbe:	b103      	cbz	r3, 3fc2 <_read_r+0x1e>
    3fc0:	602b      	str	r3, [r5, #0]
    3fc2:	bd38      	pop	{r3, r4, r5, pc}
    3fc4:	2000316c 	.word	0x2000316c
    3fc8:	6c6c6548 	.word	0x6c6c6548
    3fcc:	6f57206f 	.word	0x6f57206f
    3fd0:	21646c72 	.word	0x21646c72
    3fd4:	00000000 	.word	0x00000000
    3fd8:	40003000 	.word	0x40003000
    3fdc:	40003400 	.word	0x40003400
    3fe0:	41012000 	.word	0x41012000
    3fe4:	41014000 	.word	0x41014000
    3fe8:	43000000 	.word	0x43000000
    3fec:	43000400 	.word	0x43000400
    3ff0:	43000800 	.word	0x43000800
    3ff4:	43000c00 	.word	0x43000c00

00003ff8 <_i2cms>:
	...

00004010 <_usarts>:
    4010:	00000000 40100004 00030000 00700002     .......@......p.
    4020:	0000ff2e 00000000 00000001 40100004     ...............@
    4030:	00030000 00700002 0000ffac 00000000     ......p.........
    4040:	00000002 40100004 00030000 00700002     .......@......p.
    4050:	0000ffac 00000000 524f5453 00454741     ........STORAGE.

00004060 <CodePage437>:
	...
    4398:	01000000 06186080 18608001 60800106     .....`....`....`
    43a8:	80010000 00000060 00000000 66986106     ....`........a.f
    43b8:	98618619 00000000 00000000 00000000     ..a.............
    43c8:	00000000 98610600 fb8f1966 8f1966fe     ......a.f....f..
    43d8:	1966fefb 00986186 00000000 80010000     ..f..a..........
    43e8:	891f7e60 1f7e6082 7e649081 6080811f     `~...`~...d~...`
    43f8:	00000000 04000000 29a60823 1820c106     ........#..).. .
    4408:	98200304 324c1165 00000008 00000000     .. .e.L2........
    4418:	84e08107 10420821 5a081e78 87208216     ....!.B.x..Z.. .
    4428:	0000f6d9 00000000 30c00000 00030618     ...........0....
    4438:	000000c0 00000000 00000000 00000000     ................
    4448:	40000000 03020810 0c30c000 08c00003     ...@......0.....
    4458:	10400002 00000000 01000000 02084000     ..@..........@..
    4468:	06186000 18608001 00010208 00000040     .`....`.....@...
    4478:	00000000 42000000 90408210 40c23fff     .......B..@..?.@
    4488:	80104290 00000000 00000000 00000000     .B..............
    4498:	80000208 e0bfff20 02082080 00000000     .... .... ......
	...
    44b8:	18000000 c0000306 00001040 00000000     ........@.......
    44c8:	00000000 ff000000 0000e0bf 00000000     ................
	...
    44ec:	030e3800 0000e080 00000000 08200000     .8............ .
    44fc:	80000104 02041020 10408000 00000208     .... .....@.....
    450c:	00000000 e0030000 cc1863f8 b0c1061b     .........c......
    451c:	63061b6c f8e0c318 00000000 00000000     l..c............
    452c:	1b3c70c0 0c30c004 30c00003 e107030c     .p<...0....0....
    453c:	000000f8 00000000 c1f8e107 061860b0     .............`..
    454c:	0187030e 0f30c0c0 0000fefb 00000000     ......0.........
    455c:	fefb0f00 60c00003 80030e30 b0810618     .......`0.......
    456c:	00f8e167 00000000 40000000 03070c30     g..........@0...
    457c:	31649040 04fefb0f 10400001 00000000     @.d1......@.....
    458c:	0f000000 30c0fefb c1f8e30f 061860b0     .......0.....`..
    459c:	e167a081 000000f8 00000000 60f8e003     ..g............`
    45ac:	00030c18 1b8c3ffe 67b0c106 0000f8e1     .....?.....g....
    45bc:	00000000 fefb0f00 20608001 00010408     ..........` ....
    45cc:	0c302080 00c00003 00000000 e0030000     . 0.............
    45dc:	6cb0c1f8 0f3e061b c1061b8c f8e063b0     ...l..>......c..
    45ec:	00000000 07000000 b0c1f8e1 7d0e3b6c     ............l;.}
    45fc:	0618609f e1c70003 000000f0 00000000     .`..............
    460c:	38000000 e080030e 00000000 030e3800     ...8.........8..
    461c:	0000e080 00000000 00000000 80030e38     ............8...
    462c:	000000e0 0e380000 40c00003 00000010     ......8....@....
    463c:	30000000 03030c0c 30c0c000 0cc00003     ...0.......0....
    464c:	0c300003 00000000 00000000 00000000     ..0.............
    465c:	00fefb0f fefb0f00 00000000 00000000     ................
    466c:	00000000 3000030c 30c0000c c0c00003     .......0...0....
    467c:	0c0c3030 00000003 00000000 f8e10700     00..............
    468c:	6060b0c1 01061818 00006080 00608001     ..``.....`....`.
    469c:	00000000 e1070000 6cb0c1f8 b4d33edb     ...........l.>..
    46ac:	c036fbec f8e10730 00000000 00000000     ..6.0...........
    46bc:	0d367080 c18c3186 fefb6fb0 1b6cb0c1     .p6..1...o....l.
    46cc:	00000006 00000000 61f8e30f 86196698     ...........a.f..
    46dc:	19861f7e 6f986186 0000f8e3 00000000     ~....a.o........
    46ec:	f8e00300 036c9861 0c30c000 98610003     ....a.l...0...a.
    46fc:	00f8e063 00000000 c30f0000 861966f0     c............f..
    470c:	98618631 668c1966 f0c38f19 00000000     1.a.f..f........
    471c:	0f000000 30c0fefb fc00030c 00030c3f     .......0....?...
    472c:	fb0f30c0 000000fe 00000000 c0fefb0f     .0..............
    473c:	00030c30 030c3ffc 0c30c000 00000003     0....?....0.....
    474c:	00000000 f8e00300 036c9861 0c30c000     ........a.l...0.
    475c:	98611e7b 00f8e063 00000000 1b0c0000     {.a.c...........
    476c:	6cb0c106 bfff061b c1061bec 061b6cb0     ...l.........l..
    477c:	00000000 07000000 0618f8e1 18608001     ..............`.
    478c:	60800106 e1070618 000000f8 00000000     ...`............
    479c:	067ef801 18608001 60800106 8731c618     ..~...`....`..1.
    47ac:	0000f0c1 00000000 061b0c00 838d31c6     .............1..
    47bc:	0d38e060 31c66083 00061b8c 00000000     `.8..`.1........
    47cc:	030c0000 0c30c000 30c00003 c000030c     ......0....0....
    47dc:	fefb0f30 00000000 0c000000 bde38e1b     0...............
    47ec:	c976dbed 061b6cb2 1b6cb0c1 00000006     ..v..l....l.....
    47fc:	00000000 e1861b0c 661b6dbc 5b6cb3c9     .........m.f..l[
    480c:	ecb0c31e 0000061b 00000000 f8e00300     ................
    481c:	1b6cb0e3 6cb0c106 b8c1061b 00f8e0e3     ..l....l........
    482c:	00000000 e30f0000 6cb0c1f8 3ffe061b     ...........l...?
    483c:	c000038c 00030c30 00000000 07000000     ....0...........
    484c:	b0c1f8e1 c1061b6c 36db6cb0 d98731c6     ....l....l.6.1..
    485c:	000000f6 00000000 c1f8e30f 061b6cb0     .............l..
    486c:	638c3ffe cc30c318 0000061b 00000000     .?.c..0.........
    487c:	f8e10700 036cb0c1 801f7e00 b0c10618     ......l..~......
    488c:	00f8e167 00000000 fb0f0000 000208fe     g...............
    489c:	02082080 08208000 20800002 00000000     . .... .... ....
    48ac:	0c000000 b0c1061b c1061b6c 061b6cb0     ........l....l..
    48bc:	e063b0c1 000000f8 00000000 c1061b0c     ..c.............
    48cc:	8c3166b0 60c31863 810d36d8 000020c0     .f1.c..`.6... ..
    48dc:	00000000 061b0c00 1b6cb0c1 6db2c906     ..........l....m
    48ec:	b5d576db 008c796f 00000000 1b0c0000     .v..oy..........
    48fc:	c3186306 060cf860 63d8e003 061bcc18     .c..`......c....
    490c:	00000000 0c000000 1863061b 1cd860c3     ..........c..`..
    491c:	20c00107 80000208 00000020 00000000     ... .... .......
    492c:	03fefb0f 1060c000 0103060c 0f30c0c0     ......`.......0.
    493c:	0000fefb 00000000 f8e00300 00030c30     ............0...
    494c:	030c30c0 0c30c000 00f8e003 00000000     .0....0.........
    495c:	01060000 010c3080 030c6080 03186000     .....0...`...`..
    496c:	0618c000 00000000 07000000 030cf0c1     ................
    497c:	0c30c000 30c00003 c107030c 000000f0     ..0....0........
    498c:	00000000 36708000 8c31860d 0060b0c1     ......p6..1...`.
	...
    49b8:	00fefb0f 00000000 80030000 00030ce0     ................
    49c8:	00001860 00000000 00000000 00000000     `...............
	...
    49e0:	01fcf003 fef86380 f823b0c0 000000fe     .....c....#.....
    49f0:	00000000 c000030c fcf30d30 0b6cb8e1     ........0.....l.
    4a00:	6fb8e102 00007cf3 00000000 00000000     ...o.|..........
    4a10:	e1070000 6cb0c1f8 30c00003 00fef907     .......l...0....
    4a20:	00000000 18000000 67800106 b0c3f6d9     ...........g....
    4a30:	c3061bec f6d9e7b0 00000000 00000000     ................
    4a40:	00000000 c1f8e107 fefb6fb0 f10730c0     .........o...0..
    4a50:	000000fc 00000000 3138e000 c000638c     ..........81.c..
    4a60:	00033ffc 030c30c0 0000c000 00000000     .?...0..........
    4a70:	00000000 d9070000 8731c6f6 30c0f0c1     ..........1....0
    4a80:	c3f8e107 f8e1e7b0 030c0000 0d30c000     ..............0.
    4a90:	b8e178e3 c1061b6c 061b6cb0 00000000     .x..l....l......
    4aa0:	01000000 00006080 18e08003 60800106     .....`.........`
    4ab0:	e1070618 000000f8 00000000 00186000     .............`..
    4ac0:	18600000 60800106 8c010618 31c61863     ..`....`....c..1
    4ad0:	00f0c187 00030c00 638c30c0 0f36cc30     .........0.c0.6.
    4ae0:	33ccc083 000c330c 00000000 c0030000     ...3.3..........
    4af0:	00030cf0 030c30c0 0c30c000 f8e00303     .....0....0.....
	...
    4b0c:	e70c330c 669b6dbf 1b6cb0c1 00000006     .3...m.f..l.....
	...
    4b24:	f8e20b00 1b6cb8e1 6cb0c106 0000061b     ......l....l....
	...
    4b3c:	e1070000 cc30c3f8 30c30c33 00f8e1c7     ......0.3..0....
	...
    4b54:	0b000000 b0c1f8e2 be061b6c 0002882f     ........l.../...
    4b64:	02082080 00000000 00000000 c1fae803     . ..............
    4b74:	061b6cb0 08a08f3e 20800002 00000208     .l..>...... ....
    4b84:	00000000 7ce20800 036cbcf1 0c30c000     .......|..l...0.
    4b94:	00000003 00000000 00000000 e1070000     ................
    4ba4:	0730c0f8 8001f8e1 00f8e36f 00000000     ..0.....o.......
    4bb4:	00030000 0f0c30c0 0c30f8e3 33c00003     .....0....0....3
    4bc4:	30c0c00c 00000000 00000000 00000000     ...0............
    4bd4:	c30c330c 0c33cc30 d9c730c3 000000f6     .3..0.3..0......
	...
    4bec:	02020000 30e6b8c1 01073ed8 000020c0     .......0.>... ..
	...
    4c04:	1b0c0000 6cb0c106 b5d5769b 008c3166     .......l.v..f1..
	...
    4c1c:	08000000 1b441823 6ce08003 08620c11     ....#.D....l..b.
	...
    4c38:	c618630c 18638c31 60801f7e 873bc618     .c..1.c.~..`..;.
    4c48:	0000f0c1 00000000 fefb0f00 c0c00003     ................
    4c58:	0f0c3030 0000fefb 00000000 1e780000     00............x.
    4c68:	40000208 000e3810 02081040 001e7800     ...@.8..@....x..
    4c78:	00000000 80010000 01061860 06186080     ........`....`..
    4c88:	18608001 60800106 00000000 0f000000     ..`....`........
    4c98:	0208c003 0cc00003 c0000303 030f0208     ................
    4ca8:	000000c0 00000000 d9c61907 1c736cb3     .............ls.
	...
    4ce0:	e0030000 6c9861f8 30c00003 6100030c     .....a.l...0...a
    4cf0:	f8e06398 00000608 00000000 00669801     .c............f.
    4d00:	c30c330c 0c33cc30 d9c730c3 000000f6     .3..0.3..0......
    4d10:	00000000 0c180000 f8e10700 fb6fb0c1     ..............o.
    4d20:	0730c0fe 0000fcf1 00000000 10000000     ..0.............
    4d30:	f003000a 638001fc b0c0fef8 00fef823     .......c....#...
	...
    4d48:	030033cc 8001fcf0 c0fef863 fef823b0     .3......c....#..
	...
    4d60:	000c6000 01fcf003 fef86380 f823b0c0     .`.......c....#.
    4d70:	000000fe 03000000 0c482001 fcf00300     ......... H.....
    4d80:	f8638001 23b0c0fe 0000fef8 00000000     ..c....#........
    4d90:	00000000 e1070000 6cb0c1f8 30c00003     ...........l...0
    4da0:	04fef907 00000003 00000000 07001420     ............ ...
    4db0:	b0c1f8e1 c0fefb6f fcf10730 00000000     ....o...0.......
    4dc0:	00000000 00669801 c1f8e107 fefb6fb0     ......f......o..
    4dd0:	f10730c0 000000fc 00000000 18c00000     .0..............
    4de0:	f8e10700 fb6fb0c1 0730c0fe 0000fcf1     ......o...0.....
    4df0:	00000000 98610600 80030000 010618e0     ......a.........
    4e00:	06186080 00f8e107 00000000 00000000     .`..............
    4e10:	03002840 0618e080 18608001 f8e10706     @(........`.....
	...
    4e28:	0018c000 18e08003 60800106 e1070618     ...........`....
    4e38:	000000f8 18630000 367080c0 8c31860d     ......c...p6..1.
    4e48:	fb6fb0c1 6cb0c1fe 0000061b 1c000000     ..o....l........
    4e58:	70c08108 31860d36 6fb0c18c b0c1fefb     ...p6..1...o....
    4e68:	00061b6c 00000000 fb0f0606 0c30c0fe     l.............0.
    4e78:	3ffc0003 c000030c fefb0f30 00000000     ...?....0.......
	...
    4e90:	1dfe7907 fedb2786 f90733cc 000000ee     .y...'...3......
    4ea0:	00000000 367ef800 9861860d e3efb1c7     ......~6..a.....
    4eb0:	8c31c6f8 00001e7b 00000000 20000000     ..1.{.......... 
    4ec0:	e1070014 cc30c3f8 30c30c33 00f8e1c7     ......0.3..0....
    4ed0:	00000000 01000000 07006698 30c3f8e1     .........f.....0
    4ee0:	c30c33cc f8e1c730 00000000 00000000     .3..0...........
    4ef0:	0018c000 c3f8e107 0c33cc30 e1c730c3     ........0.3..0..
    4f00:	000000f8 00000000 14200000 0c330c00     .......... ...3.
    4f10:	33cc30c3 c730c30c 0000f6d9 00000000     .0.3..0.........
    4f20:	60000000 330c000c cc30c30c 30c30c33     ...`...3..0.3..0
    4f30:	00f6d9c7 00000000 01000000 0c006698     .............f..
    4f40:	31c61863 7e18638c 1860801f c1873bc6     c..1.c.~..`..;..
    4f50:	800d36f0 383ef800 c1061bec 061b6cb0     .6....>8.....l..
    4f60:	e0e3b8c1 000000f8 0c330000 c10603c0     ..........3.....
    4f70:	061b6cb0 1b6cb0c1 63b0c106 0000f8e0     .l....l....c....
    4f80:	00000000 20800002 1b8c1f7e 0c32c826     ....... ~...&.2.
    4f90:	1f7e069b 08208080 00000000 c0010000     ..~... .........
    4fa0:	461873f8 3e608001 6080810f fefb0f18     .s.F..`>...`....
    4fb0:	00000000 0c000000 08630419 1c506083     ..........c..`P.
    4fc0:	20e00302 80800f08 00000020 00000000     ... .... .......
    4fd0:	c1f8e30f f81b6cb0 830d30fe 0d36d878     .....l...0..x.6.
    4fe0:	000038e3 00000000 3ce00000 98638e3f     .8.........<?.c.
    4ff0:	833ffee0 1c70c000 60800106 00000018     ..?...p....`....
    5000:	00000000 03000c18 8001fcf0 c0fef863     ............c...
    5010:	fef823b0 00000000 00000000 000060c0     .#...........`..
    5020:	18e08003 60800106 e1070618 000000f8     .......`........
    5030:	00000000 18300000 f8e10700 33cc30c3     ......0......0.3
    5040:	c730c30c 0000f8e1 00000000 30000000     ..0............0
    5050:	330c0018 cc30c30c 30c30c33 00f6d9c7     ...3..0.3..0....
	...
    5068:	0b001998 b8e1f8e2 c1061b6c 061b6cb0     ........l....l..
    5078:	00000000 8c0c4c00 b8e1061b c9461b6d     .....L......m.F.
    5088:	165b6cb2 1becb0c3 00000006 00000000     .l[.............
    5098:	1e08c003 00e08308 000080ff 00000000     ................
	...
    50b0:	d8c00100 c0810d22 0080ff00 00000000     ...."...........
	...
    50cc:	00030c00 030c0000 3030c000 061b0c0c     ..........00....
    50dc:	00c00f3f 00000000 00000000 ff000000     ?...............
    50ec:	0003ecbf 00000000 00000000 00000000     ................
	...
    5104:	18e0bfff 00000006 00000000 00000000     ................
    5114:	30c00003 c000030c e0bfff00 0c1f3800     ...0.........8..
    5124:	183060c0 0000c00f c0000300 00030c30     .`0.........0...
    5134:	bfff00c0 668001e0 fc618619 60800106     .......f..a....`
    5144:	00000000 06180000 18000000 60800106     ...............`
    5154:	80010618 00061860 00000000 00000000     ....`...........
    5164:	90200100 80042448 00001290 00000000     .. .H$..........
	...
    517c:	40020000 20010948 00244890 00000000     ...@H.. .H$.....
    518c:	00000000 48024092 09004900 80240024     .....@.H.I..$.$.
    519c:	92009004 00480240 24090049 42529200     ....@.H.I..$..RB
    51ac:	0949494a 24242529 929094a4 4a425292     JII.)%$$.....RBJ
    51bc:	29094949 ad6d2425 b6b6b5bd dbdad6f6     II.)%$m.........
    51cc:	6f6b5bdb bdad6d6d f6b6b6b5 08dbdad6     .[komm..........
    51dc:	20800002 80000208 00020820 02082080     ... .... .... ..
    51ec:	08208000 20800002 80000208 00020820     .. .... .... ...
    51fc:	3e082080 08208000 20800002 80000208     . .>.. .... ....
    520c:	00020820 02082080 f8208000 20800f02      .... .... .... 
    521c:	80000208 00020820 05142080 14504001     .... .... ...@P.
    522c:	50400105 40013d14 01051450 05145040     ..@P.=.@P...@P..
    523c:	00504001 00000000 00000000 013f0000     .@P...........?.
    524c:	05145040 14504001 50400105 00000000     @P...@P...@P....
    525c:	00000000 02f80000 0820800f 20800002     .......... .... 
    526c:	80000208 01051420 05145040 f4504001     .... ...@P...@P.
    527c:	50400f01 40010514 01051450 05145040     ..@P...@P...@P..
    528c:	14504001 50400105 40010514 01051450     .@P...@P...@P...
    529c:	05145040 00504001 00000000 00000000     @P...@P.........
    52ac:	0f01fc00 05145040 14504001 50400105     ....@P...@P...@P
    52bc:	40010514 01051450 01f45040 0000c00f     ...@P...@P......
	...
    52d4:	01051400 05145040 14504001 0000003f     ....@P...@P.?...
	...
    52ec:	02080000 08208000 20800002 800f02f8     ...... .... ....
	...
    5310:	003e0000 02082080 08208000 20800002     ..>.. .... .... 
    5320:	80000208 00020820 03082080 000000f0     .... .... ......
	...
    5338:	00020800 02082080 08208000 0000f03f     ..... .... .?...
	...
    535c:	80f03f00 00020820 02082080 08208000     .?.. .... .... .
    536c:	20800002 80000208 f0030820 02082080     ... .... .... ..
    537c:	08208000 20800002 00000000 00000000     .. .... ........
    538c:	3f000000 000000f0 00000000 00000000     ...?............
    539c:	00020800 02082080 08208000 2080f03f     ..... .... .?.. 
    53ac:	80000208 00020820 02082080 08208000     .... .... .... .
    53bc:	20800002 fc00c20f 00020820 02082080     ... .... .... ..
    53cc:	14208000 50400105 40010514 f1051450     .. ...@P...@P...
    53dc:	05145040 14504001 50400105 40010514     @P...@P...@P...@
    53ec:	01051450 c4175040 0000fc01 00000000     P...@P..........
	...
    5408:	1f000000 507c01c4 40010514 01051450     ......|P...@P...
    5418:	05145040 14504001 50400105 fc0fc0f7     @P...@P...@P....
	...
    543c:	0fc0ff00 0514507c 14504001 50400105     ....|P...@P...@P
    544c:	40010514 01051450 c4175040 14507c01     ...@P...@P...|P.
    545c:	50400105 40010514 00000050 00000000     ..@P...@P.......
    546c:	ff000000 00fc0fc0 00000000 00000000     ................
    547c:	05140000 14504001 50400105 7c0fc0f7     .....@P...@P...|
    548c:	01051450 05145040 08504001 20800002     P...@P...@P.... 
    549c:	80000208 0fc0ff20 000000fc 00000000     .... ...........
    54ac:	00000000 40010514 01051450 3f145040     .......@P...@P.?
    54bc:	000000f0 00000000 00000000 00000000     ................
    54cc:	00000000 ff000000 20fc0fc0 80000208     ........... ....
    54dc:	00020820 00002080 00000000 00000000      .... ..........
    54ec:	40f13f00 01051450 05145040 14504001     .?.@P...@P...@P.
    54fc:	50400105 40010514 f0071450 00000000     ..@P...@P.......
	...
    5514:	80000208 00020820 c20f2080 0000fc00     .... .... ......
	...
    5534:	0f000000 20fc00c2 80000208 00020820     ....... .... ...
    5544:	00002080 00000000 00000000 40f10700     . .............@
    5554:	01051450 05145040 14504001 50400105     P...@P...@P...@P
    5564:	40010514 f13f1450 05145040 14504001     ...@P.?.@P...@P.
    5574:	50400105 80000208 00020820 c2ff2080     ..@P.... .... ..
    5584:	0820fc0f 20800002 80000208 00020820     .. .... .... ...
    5594:	02082080 08208000 0000003e 00000000     . .... .>.......
	...
    55b4:	80f00300 00020820 02082080 ff208000     .... .... .... .
    55c4:	ffffffff ffffffff ffffffff ffffffff     ................
    55d4:	ffffffff ffffffff 00000000 00000000     ................
    55e4:	3f000000 ffffffff ffffffff ffffffff     ...?............
    55f4:	0f3ef8ff 3ef8e083 f8e0830f e0830f3e     ..>....>....>...
    5604:	830f3ef8 0f3ef8e0 c30fe083 0f3ffcf0     .>....>.......?.
    5614:	3ffcf0c3 fcf0c30f f0c30f3f c30f3ffc     ...?....?....?..
    5624:	ff3ffcf0 ffffffff ffffffff f0ffffff     ..?.............
	...
    5648:	8f380000 c208234c e2d08330 00000000     ..8.L#..0.......
    5658:	00000000 193c0000 7c982186 8c61061f     ......<..!.|..a.
    5668:	63c61861 000000f8 00000000 ff000000     a..c............
    5678:	8c31c61f 01061863 06186080 0000c003     ..1.c....`......
	...
    5694:	c69fff00 18638c31 008e33c6 00000000     ....1.c..3......
    56a4:	fb0f0000 06b080fe 0618c000 c0800103     ................
    56b4:	fefb2f20 00000000 00000000 00000000      /..............
    56c4:	c3fef907 0c33cc30 e1c730c3 000000f8     ....0.3..0......
	...
    56dc:	0c330c00 33cc30c3 cf30c30c 30c0f6db     ..3..0.3..0....0
    56ec:	0000000c 00000000 e30c0000 618e7bbc     .............{.a
    56fc:	06186080 00608001 00000000 00000000     .`....`.........
    570c:	c33f0000 30c3f8c1 c30c33cc f0e0c730     ..?....0.3..0...
    571c:	000000ff 03000000 1863f8e0 ff061bcc     ..........c.....
    572c:	061becbf e0c31863 000000f8 00000000     ....c...........
    573c:	e3fce103 061b6cb0 1b6cb0c1 c698e38e     .....l....l.....
    574c:	00008e33 00000000 fef80300 e1070318     3...............
    575c:	cc30c3f8 30c30c33 00f8e1c7 00000000     ..0.3..0........
    576c:	00000000 02000000 a2885421 88228a28     ........!T..(.".
    577c:	00204295 00000000 00000000 07000000     .B .............
    578c:	860e7367 628a28a3 7367b8b0 00000070     gs...(.b..gsp...
    579c:	00000000 60f8e003 00030c18 030c3ffc     .......`.....?..
    57ac:	03186000 0000f8e0 00000000 00000000     .`..............
    57bc:	1b8c0f3e 6cb0c106 b0c1061b c1061b6c     >......l....l...
    57cc:	000060b0 00000000 0f000000 0000fefb     .`..............
    57dc:	00fefb0f fefb0f00 00000000 00000000     ................
    57ec:	02080000 ff208000 2080e0bf 03000208     ...... .... ....
    57fc:	000000fe 00000000 3000030c 30c0000c     ...........0...0
    580c:	c0c00003 0c0c3030 3f000003 0000f0cf     ....00.....?....
    581c:	0c300000 0003030c 0330c0c0 030cc000     ..0.......0.....
    582c:	000c3000 00f0cf3f 88600307 00020820     .0..?.....`. ...
    583c:	02082080 08208000 20800002 80000208     . .... .... ....
    584c:	00020820 02082080 08208000 20800002      .... .... .... 
    585c:	80000208 09240820 00008001 18000000     .... .$.........
    586c:	00000006 00e0bfff 00061800 00000000     ................
	...
    5884:	8a0f1c00 0f1c073e 00073e8a 00000000     ....>....>......
	...
    589c:	01092460 00000080 00000000 00000000     `$..............
	...
    58c0:	80030e38 00000000 00000000 00000000     8...............
	...
    58d8:	01000000 00006080 00000000 0f000000     .....`..........
    58e8:	40000104 0d020820 0c504001 00800002     ...@ ....@P.....
    58f8:	00000000 f0c30b00 638c31c6 00000018     .........1.c....
	...
    5914:	83070000 03070cf0 3fe0c081 00000000     ...........?....
	...
    5938:	c30f3ffc 0f3ffcf0 0000f0c3 00000000     .?....?.........
	...

00005960 <mulciber.66635>:
    5960:	03020100 02010004 00020100 01000201     ................
    5970:	02010002 00020100 01000201 01000002     ................
    5980:	02010000 00020100 01000201 03020100     ................
    5990:	00000004 01000100 01000302 02010002     ................
    59a0:	00000403 f0f00000                                ......

000059a6 <belial.66634>:
    59a6:	f0f0f0f0 b0b0b0f0 b1b6b6b6 b7b7b1b1     ................
    59b6:	b2b2b2b7 bfb8b8b8 b9b3b3b3 b5b5b9b9     ................
    59c6:	babac2b5 bcbcbcba bebdbdbd f0f0f0be     ................
    59d6:	b1b1f0f0 b8b7b7b6 bcb8b8b8 c9c9bcbc     ................
    59e6:	35c9c9c9 aa55363a                                ...5:6

000059ec <lucifer.66636>:
    59ec:	0852aa55 0d0d0d01 0d343434 34340d0d     U.R.....444...44
    59fc:	00000034 01242424 340f0f0f 08083434     4...$$$....444..
    5a0c:	24240308 00780024 00007800 52aa5589     ..$$$.x..x...U.R
    5a1c:	00cc0008 01707005 02030303 02d00000     .....pp.........
    5a2c:	00505050 2d000055                                PPP.U.

00005a32 <beelzebub.66637>:
    5a32:	2e002d00 44003200 88005300 f300b600     .-...2.D.S......
    5a42:	64012201 d4019201 08020702 5f023402     .".d.........4._
    5a52:	94027802 bb02a602 db02ca02 f902e802     .x..............
    5a62:	7f031f03 69726553 4f206c61 3639204b     ....Serial OK 96
    5a72:	38203030 0d0a314e 000a0000 0014000a     00 8N1..........
    5a82:	00140014 017c0000 017c000a 0186000a     ......|...|.....
    5a92:	00000014 000a0014 01860122 01900014     ........".......
    5aa2:	000a0122 00140122 017c012c 01860122     "..."...,.|."...
    5ab2:	0014012c 017c012c 00000136 0032001e     ,...,.|.6.....2.
    5ac2:	00000028 00320032 0050003c 0118001e     (...2.2.<.P.....
    5ad2:	00460028 00500028 005000be 011800be     (.F.(.P...P.....
    5ae2:	011800c8 01220028 000000be 00320046     ....(.".....F.2.
    5af2:	00000050 0032005a 00000064 0032006e     P...Z.2.d...n.2.
    5b02:	00000078 00320082 0000008c 00320096     x.....2.......2.
    5b12:	000000a0 003200aa 000000b4 003200be     ......2.......2.
    5b22:	012c00c8 017200c8 001e00d2 017200dc     ..,...r.......r.
    5b32:	001e00e6 017200f0 001e00fa 01720104     ......r.......r.
    5b42:	005a010e 012c0118 50b40122 82aa82be     ..Z...,."..P....
    5b52:	3c8c8cbe 3cd26496 968264dc a08ca08c     ...<.d.<.d......
    5b62:	96dcaadc 3c78a0e6 466e50f0 3c965a78     ......x<.PnFxZ.<
    5b72:	3cc8aaaa a0d2a0dc 7254aae6 20736e61     ...<......Trans 
    5b82:	68676972 61207374 68206572 6e616d75     rights are human
    5b92:	67697220 00737468 355e3331 31202b20      rights.13^5 + 1
    5ba2:	20355e36 3731203d 5200355e 63697465     6^5 = 17^5.Retic
    5bb2:	74616c75 20676e69 696c7053 0073656e     ulating Splines.
    5bc2:	6c6f6976 65636e65 726f772e 5300736b     violence.works.S
    5bd2:	202b2069 4b004250 206c6c69 6c6c6942     i + PB.Kill Bill
    5be2:	616e6f69 73657269 6e612820 72542064     ionaires (and Tr
    5bf2:	696c6c69 69616e6f 00296572 65746e49     illionaire).Inte
    5c02:	74736572 206e6920 68636574 6f6c6f6e     rest in technolo
    5c12:	69207967 6f6e2073 20612074 73726570     gy is not a pers
    5c22:	6c616e6f 00797469 50203031 544e4952     onality.10 PRINT
    5c32:	52484320 30322824 2b352e35 28444e52      CHR$(205.5+RND(
    5c42:	3b292931 47203a20 204f544f 4e003031     1)); : GOTO 10.N
    5c52:	6f67206f 202e7364 6d206f4e 65747361     o gods. No maste
    5c62:	202e7372 65206f4e 72657478 206c616e     rs. No external 
    5c72:	7262696c 65697261 4b002e73 206c6c69     libraries..Kill 
    5c82:	697a614e 69540073 6e616e61 206e656d     Nazis.Tiananmen 
    5c92:	61757153 31206572 00393839 72656d41     Square 1989.Amer
    5ca2:	20616369 20736177 6e756f66 20646564     ica was founded 
    5cb2:	73206e6f 6576616c 54007972 65726568     on slavery.There
    5cc2:	20736920 796c6e6f 70616320 6c617469      is only capital
    5cd2:	646e6120 62616c20 4500726f 756f636e      and labor.Encou
    5ce2:	65676172 4d595320 5254454d 63204349     rage SYMMETRIC c
    5cf2:	7373616c 72617720 65726166 676f5600     lass warfare.Vog
    5d02:	50206e6f 7274656f 20410079 6563694e     on Poetry.A Nice
    5d12:	59545420 696e5500 70652078 2068636f      TTY.Unix epoch 
    5d22:	756e696d 78302073 64204646 00737961     minus 0xFF days.
    5d32:	3d202069 35783020 35373366 20666439     i  = 0x5f3759df 
    5d42:	2028202d 3e3e2069 29203120 7053003b     - ( i >> 1 );.Sp
    5d52:	206b6165 74757274 6f742068 776f7020     eak truth to pow
    5d62:	203b7265 206d2749 65727573 65687420     er; I'm sure the
    5d72:	6c6c2779 73696c20 206e6574 73696874     y'll listen this
    5d82:	6d697420 44002e65 6f636665 2073276e      time..Defcon's 
    5d92:	636e6163 64656c65 30322820 00293032     canceled (2020).
    5da2:	73746152 7473656e 6f4e203a 6e696874     Ratsnest: Nothin
    5db2:	6f542067 216f4420 20744900 20736168     g To Do!.It has 
    5dc2:	6b203936 2e737965 63654200 65737561     69 keys..Because
    5dd2:	2d545620 20303234 20736177 65726c61      VT-420 was alre
    5de2:	20796461 656b6174 6f43006e 6572706d     ady taken.Compre
    5df2:	6f697373 6c61206e 69726f67 206d6874     ssion algorithm 
    5e02:	65736162 6e6f2064 50424220 39312820     based on BBP (19
    5e12:	00293739 63616554 65682068 68746c61     97).Teach health
    5e22:	736e6920 6e617275 70206563 69766f72      insurance provi
    5e32:	73726564 206f7420 65646f63 7247002e     ders to code..Gr
    5e42:	20646e61 746e6543 206c6172 6b636148     and Central Hack
    5e52:	65685420 616c5020 0074656e 69466957      The Planet.WiFi
    5e62:	20736920 20746f6e 65726977 7373656c      is not wireless
    5e72:	68744520 656e7265 44002174 796d6d75      Ethernet!.Dummy
    5e82:	69687420 63206363 6e65696c 20410074      thicc client.A 
    5e92:	6563694e 59545420 6e41202e 204b4f20     Nice TTY. An OK 
    5ea2:	706d6f43 72657475 5355002e 656c6554     Computer..USTele
    5eb2:	646c6964 63696e6f 6f530073 6164696c     dildonics.Solida
    5ec2:	79746972 20736920 20746f6e 656e2061     rity is not a ne
    5ed2:	72662077 77656d61 006b726f 61657242     w framework.Brea
    5ee2:	616f6264 6e696472 73492067 746f4e20     dboarding Is Not
    5ef2:	43204120 656d6972 66664f00 20796220      A Crime.Off by 
    5f02:	20656e6f 6f727265 61207372 63206572     one errors are c
    5f12:	6f6d6d6f 003c006e                                ommon.

00005f18 <_global_impure_ptr>:
    5f18:	2000003c                                <.. 

00005f1c <__sf_fake_stderr>:
	...

00005f3c <__sf_fake_stdin>:
	...

00005f5c <__sf_fake_stdout>:
	...
    5f7c:	2b302d23 6c680020 6665004c 47464567     #-0+ .hlL.efgEFG
    5f8c:	32313000 36353433 41393837 45444342     .0123456789ABCDE
    5f9c:	31300046 35343332 39383736 64636261     F.0123456789abcd
    5fac:	00006665                                ef..

00005fb0 <_init>:
    5fb0:	b5f8      	push	{r3, r4, r5, r6, r7, lr}
    5fb2:	bf00      	nop
    5fb4:	bcf8      	pop	{r3, r4, r5, r6, r7}
    5fb6:	bc08      	pop	{r3}
    5fb8:	469e      	mov	lr, r3
    5fba:	4770      	bx	lr

00005fbc <__init_array_start>:
    5fbc:	00000289 	.word	0x00000289

00005fc0 <_fini>:
    5fc0:	b5f8      	push	{r3, r4, r5, r6, r7, lr}
    5fc2:	bf00      	nop
    5fc4:	bcf8      	pop	{r3, r4, r5, r6, r7}
    5fc6:	bc08      	pop	{r3}
    5fc8:	469e      	mov	lr, r3
    5fca:	4770      	bx	lr

00005fcc <__fini_array_start>:
    5fcc:	00000265 	.word	0x00000265
