
VT69-Baremetal.elf:     file format elf32-littlearm

Sections:
Idx Name          Size      VMA       LMA       File off  Algn
  0 .text         00005eb4  00000000  00000000  00010000  2**6
                  CONTENTS, ALLOC, LOAD, READONLY, CODE
  1 .ARM.exidx    00000008  00005eb4  00005eb4  00015eb4  2**2
                  CONTENTS, ALLOC, LOAD, READONLY, DATA
  2 .relocate     000009b0  20000000  00005ebc  00020000  2**3
                  CONTENTS, ALLOC, LOAD, DATA
  3 .bkupram      00000000  47000000  47000000  000209b0  2**0
                  CONTENTS
  4 .qspi         00000000  04000000  04000000  000209b0  2**0
                  CONTENTS
  5 .bss          0000007c  200009b0  0000686c  000209b0  2**2
                  ALLOC
  6 .stack        0000c004  20000a2c  000068e8  000209b0  2**0
                  ALLOC
  7 .ARM.attributes 0000002a  00000000  00000000  000209b0  2**0
                  CONTENTS, READONLY
  8 .comment      00000059  00000000  00000000  000209da  2**0
                  CONTENTS, READONLY
  9 .debug_info   00007b5c  00000000  00000000  00020a33  2**0
                  CONTENTS, READONLY, DEBUGGING
 10 .debug_abbrev 000007cd  00000000  00000000  0002858f  2**0
                  CONTENTS, READONLY, DEBUGGING
 11 .debug_loc    00000472  00000000  00000000  00028d5c  2**0
                  CONTENTS, READONLY, DEBUGGING
 12 .debug_aranges 00000118  00000000  00000000  000291ce  2**0
                  CONTENTS, READONLY, DEBUGGING
 13 .debug_ranges 000000d8  00000000  00000000  000292e6  2**0
                  CONTENTS, READONLY, DEBUGGING
 14 .debug_macro  00021f39  00000000  00000000  000293be  2**0
                  CONTENTS, READONLY, DEBUGGING
 15 .debug_line   00001fc1  00000000  00000000  0004b2f7  2**0
                  CONTENTS, READONLY, DEBUGGING
 16 .debug_str    000d6c47  00000000  00000000  0004d2b8  2**0
                  CONTENTS, READONLY, DEBUGGING
 17 .debug_frame  000014ac  00000000  00000000  00123f00  2**2
                  CONTENTS, READONLY, DEBUGGING

Disassembly of section .text:

00000000 <exception_table>:
 *         Initialize the System and update the SystemCoreClock variable.
 */
void SystemInit(void)
{
        // Keep the default device state after reset
        SystemCoreClock = __SYSTEM_CLOCK;
       0:	30 ca 00 20 d5 02 00 00 d1 02 00 00 d1 02 00 00     0.. ............
      10:	d1 02 00 00 d1 02 00 00 d1 02 00 00 00 00 00 00     ................
	...
      2c:	d1 02 00 00 d1 02 00 00 00 00 00 00 d1 02 00 00     ................
      3c:	d1 02 00 00 d1 02 00 00 d1 02 00 00 d1 02 00 00     ................
      4c:	d1 02 00 00 d1 02 00 00 d1 02 00 00 d1 02 00 00     ................
      5c:	d1 02 00 00 d1 02 00 00 d1 02 00 00 d1 02 00 00     ................
      6c:	d1 02 00 00 d1 02 00 00 d1 02 00 00 d1 02 00 00     ................
      7c:	d1 02 00 00 d1 02 00 00 d1 02 00 00 d1 02 00 00     ................
      8c:	d1 02 00 00 d1 02 00 00 d1 02 00 00 d1 02 00 00     ................
      9c:	d1 02 00 00 d1 02 00 00 d1 02 00 00 d1 02 00 00     ................
      ac:	d1 02 00 00 d1 02 00 00 d1 02 00 00 d1 02 00 00     ................
      bc:	d1 02 00 00 d1 02 00 00 d1 02 00 00 d1 02 00 00     ................
      cc:	d1 02 00 00 d1 02 00 00 d1 02 00 00 d1 02 00 00     ................
      dc:	d1 02 00 00 d1 02 00 00 d1 02 00 00 00 00 00 00     ................
	...
      f4:	d1 02 00 00 d1 02 00 00 d1 02 00 00 d1 02 00 00     ................
     104:	d1 02 00 00 d1 02 00 00 d1 02 00 00 d1 02 00 00     ................
     114:	d1 02 00 00 00 00 00 00 00 00 00 00 00 00 00 00     ................
     124:	00 00 00 00 d1 02 00 00 d1 02 00 00 d1 02 00 00     ................
     134:	d1 02 00 00 d1 02 00 00 d1 02 00 00 d1 02 00 00     ................
     144:	d1 02 00 00 d1 02 00 00 d1 02 00 00 d1 02 00 00     ................
     154:	d1 02 00 00 d1 02 00 00 d1 02 00 00 d1 02 00 00     ................
     164:	d1 02 00 00 d1 02 00 00 d1 02 00 00 d1 02 00 00     ................
     174:	d1 02 00 00 00 00 00 00 00 00 00 00 d1 02 00 00     ................
     184:	d1 02 00 00 d1 02 00 00 d1 02 00 00 00 00 00 00     ................
     194:	d1 02 00 00 d1 02 00 00 d1 02 00 00 d1 02 00 00     ................
     1a4:	d1 02 00 00 d1 02 00 00 d1 02 00 00 d1 02 00 00     ................
     1b4:	d1 02 00 00 d1 02 00 00 d1 02 00 00 d1 02 00 00     ................
     1c4:	d1 02 00 00 d1 02 00 00 d1 02 00 00 d1 02 00 00     ................
     1d4:	d1 02 00 00 d1 02 00 00 d1 02 00 00 d1 02 00 00     ................
     1e4:	d1 02 00 00 d1 02 00 00 d1 02 00 00 d1 02 00 00     ................
     1f4:	d1 02 00 00 d1 02 00 00 d1 02 00 00 d1 02 00 00     ................
     204:	d1 02 00 00 d1 02 00 00 d1 02 00 00 d1 02 00 00     ................
     214:	d1 02 00 00 d1 02 00 00 d1 02 00 00 d1 02 00 00     ................
     224:	d1 02 00 00 d1 02 00 00 d1 02 00 00 d1 02 00 00     ................
     234:	d1 02 00 00 d1 02 00 00 d1 02 00 00 d1 02 00 00     ................
     244:	d1 02 00 00 d1 02 00 00 d1 02 00 00 d1 02 00 00     ................
     254:	d1 02 00 00 d1 02 00 00 d1 02 00 00 d1 02 00 00     ................

00000264 <__do_global_dtors_aux>:
     264:	b510      	push	{r4, lr}
     266:	4c05      	ldr	r4, [pc, #20]	; (27c <__do_global_dtors_aux+0x18>)
     268:	7823      	ldrb	r3, [r4, #0]
     26a:	b933      	cbnz	r3, 27a <__do_global_dtors_aux+0x16>
     26c:	4b04      	ldr	r3, [pc, #16]	; (280 <__do_global_dtors_aux+0x1c>)
     26e:	b113      	cbz	r3, 276 <__do_global_dtors_aux+0x12>
     270:	4804      	ldr	r0, [pc, #16]	; (284 <__do_global_dtors_aux+0x20>)
     272:	f3af 8000 	nop.w
     276:	2301      	movs	r3, #1
     278:	7023      	strb	r3, [r4, #0]
     27a:	bd10      	pop	{r4, pc}
     27c:	200009b0 	.word	0x200009b0
     280:	00000000 	.word	0x00000000
     284:	00005ebc 	.word	0x00005ebc

00000288 <frame_dummy>:
     288:	4b0c      	ldr	r3, [pc, #48]	; (2bc <frame_dummy+0x34>)
     28a:	b143      	cbz	r3, 29e <frame_dummy+0x16>
     28c:	480c      	ldr	r0, [pc, #48]	; (2c0 <frame_dummy+0x38>)
     28e:	490d      	ldr	r1, [pc, #52]	; (2c4 <frame_dummy+0x3c>)
     290:	b510      	push	{r4, lr}
     292:	f3af 8000 	nop.w
     296:	480c      	ldr	r0, [pc, #48]	; (2c8 <frame_dummy+0x40>)
     298:	6803      	ldr	r3, [r0, #0]
     29a:	b923      	cbnz	r3, 2a6 <frame_dummy+0x1e>
     29c:	bd10      	pop	{r4, pc}
     29e:	480a      	ldr	r0, [pc, #40]	; (2c8 <frame_dummy+0x40>)
     2a0:	6803      	ldr	r3, [r0, #0]
     2a2:	b933      	cbnz	r3, 2b2 <frame_dummy+0x2a>
     2a4:	4770      	bx	lr
     2a6:	4b09      	ldr	r3, [pc, #36]	; (2cc <frame_dummy+0x44>)
     2a8:	2b00      	cmp	r3, #0
     2aa:	d0f7      	beq.n	29c <frame_dummy+0x14>
     2ac:	e8bd 4010 	ldmia.w	sp!, {r4, lr}
     2b0:	4718      	bx	r3
     2b2:	4b06      	ldr	r3, [pc, #24]	; (2cc <frame_dummy+0x44>)
     2b4:	2b00      	cmp	r3, #0
     2b6:	d0f5      	beq.n	2a4 <frame_dummy+0x1c>
     2b8:	4718      	bx	r3
     2ba:	bf00      	nop
     2bc:	00000000 	.word	0x00000000
     2c0:	00005ebc 	.word	0x00005ebc
     2c4:	200009b4 	.word	0x200009b4
     2c8:	00005ebc 	.word	0x00005ebc
     2cc:	00000000 	.word	0x00000000

000002d0 <Dummy_Handler>:

/**
 * \brief Default interrupt handler for unused IRQs.
 */
void Dummy_Handler(void)
{
     2d0:	e7fe      	b.n	2d0 <Dummy_Handler>
	...

000002d4 <Reset_Handler>:
{
     2d4:	b508      	push	{r3, lr}
        if (pSrc != pDest) {
     2d6:	4b10      	ldr	r3, [pc, #64]	; (318 <Reset_Handler+0x44>)
     2d8:	4a10      	ldr	r2, [pc, #64]	; (31c <Reset_Handler+0x48>)
     2da:	429a      	cmp	r2, r3
     2dc:	d009      	beq.n	2f2 <Reset_Handler+0x1e>
     2de:	4b0e      	ldr	r3, [pc, #56]	; (318 <Reset_Handler+0x44>)
     2e0:	4a0e      	ldr	r2, [pc, #56]	; (31c <Reset_Handler+0x48>)
     2e2:	e003      	b.n	2ec <Reset_Handler+0x18>
                        *pDest++ = *pSrc++;
     2e4:	6811      	ldr	r1, [r2, #0]
     2e6:	6019      	str	r1, [r3, #0]
     2e8:	3304      	adds	r3, #4
     2ea:	3204      	adds	r2, #4
                for (; pDest < &_erelocate;) {
     2ec:	490c      	ldr	r1, [pc, #48]	; (320 <Reset_Handler+0x4c>)
     2ee:	428b      	cmp	r3, r1
     2f0:	d3f8      	bcc.n	2e4 <Reset_Handler+0x10>
                        *pDest++ = *pSrc++;
     2f2:	4b0c      	ldr	r3, [pc, #48]	; (324 <Reset_Handler+0x50>)
     2f4:	e002      	b.n	2fc <Reset_Handler+0x28>
                *pDest++ = 0;
     2f6:	2200      	movs	r2, #0
     2f8:	601a      	str	r2, [r3, #0]
     2fa:	3304      	adds	r3, #4
        for (pDest = &_szero; pDest < &_ezero;) {
     2fc:	4a0a      	ldr	r2, [pc, #40]	; (328 <Reset_Handler+0x54>)
     2fe:	4293      	cmp	r3, r2
     300:	d3f9      	bcc.n	2f6 <Reset_Handler+0x22>
        SCB->VTOR = ((uint32_t) pSrc & SCB_VTOR_TBLOFF_Msk);
     302:	4a0a      	ldr	r2, [pc, #40]	; (32c <Reset_Handler+0x58>)
     304:	4b0a      	ldr	r3, [pc, #40]	; (330 <Reset_Handler+0x5c>)
     306:	f023 037f 	bic.w	r3, r3, #127	; 0x7f
     30a:	6093      	str	r3, [r2, #8]
        __libc_init_array();
     30c:	4b09      	ldr	r3, [pc, #36]	; (334 <Reset_Handler+0x60>)
     30e:	4798      	blx	r3
        main();
     310:	4b09      	ldr	r3, [pc, #36]	; (338 <Reset_Handler+0x64>)
     312:	4798      	blx	r3
     314:	e7fe      	b.n	314 <Reset_Handler+0x40>
     316:	bf00      	nop
     318:	20000000 	.word	0x20000000
     31c:	00005ebc 	.word	0x00005ebc
     320:	200009b0 	.word	0x200009b0
     324:	200009b0 	.word	0x200009b0
     328:	20000a2c 	.word	0x20000a2c
     32c:	e000ed00 	.word	0xe000ed00
     330:	00000000 	.word	0x00000000
     334:	00000639 	.word	0x00000639
     338:	00000565 	.word	0x00000565

0000033c <initGPIO>:
}

void initGPIO(void)
{
	// set UART RX input
	PORT->Group[GPIO_PORTA].WRCONFIG.reg =
     33c:	4b03      	ldr	r3, [pc, #12]	; (34c <initGPIO+0x10>)
     33e:	4a04      	ldr	r2, [pc, #16]	; (350 <initGPIO+0x14>)
     340:	629a      	str	r2, [r3, #40]	; 0x28
	| PORT_WRCONFIG_PMUXEN
	| PORT_WRCONFIG_WRPINCFG
	| ((1 << 9) & 0xffff);

	// set UART TX output
	PORT->Group[GPIO_PORTA].WRCONFIG.reg =
     342:	f5a2 7280 	sub.w	r2, r2, #256	; 0x100
     346:	629a      	str	r2, [r3, #40]	; 0x28
     348:	4770      	bx	lr
     34a:	bf00      	nop
     34c:	41008000 	.word	0x41008000
     350:	52010200 	.word	0x52010200

00000354 <initUSART>:
}

void initUSART(void)
{
	//unmask SERCOM0 in MCLK to enable clock to user interface
	MCLK->APBAMASK.bit.SERCOM0_ = 1;
     354:	4a19      	ldr	r2, [pc, #100]	; (3bc <initUSART+0x68>)
     356:	6953      	ldr	r3, [r2, #20]
     358:	f443 5380 	orr.w	r3, r3, #4096	; 0x1000
     35c:	6153      	str	r3, [r2, #20]
	
	//connect GCLK3 with SERCOM0_SLOW running at 32khz
	//connect GLCK0 with SERCOM0_CORE running at 120MHz
	GCLK->PCHCTRL[SERCOM0_GCLK_ID_CORE].reg = GCLK_PCHCTRL_GEN_GCLK0 | GCLK_PCHCTRL_CHEN;
     35e:	4b18      	ldr	r3, [pc, #96]	; (3c0 <initUSART+0x6c>)
     360:	2240      	movs	r2, #64	; 0x40
     362:	f8c3 209c 	str.w	r2, [r3, #156]	; 0x9c
	GCLK->PCHCTRL[SERCOM0_GCLK_ID_SLOW].reg = GCLK_PCHCTRL_GEN_GCLK3 | GCLK_PCHCTRL_CHEN;
     366:	2243      	movs	r2, #67	; 0x43
     368:	f8c3 208c 	str.w	r2, [r3, #140]	; 0x8c
	
	//do a software reset of the module (write-synchronized)
	SERCOM0->USART.CTRLA.reg = SERCOM_USART_CTRLA_SWRST;
     36c:	2201      	movs	r2, #1
     36e:	f503 53a0 	add.w	r3, r3, #5120	; 0x1400
     372:	601a      	str	r2, [r3, #0]
	while(SERCOM0->USART.SYNCBUSY.bit.SWRST || SERCOM0->USART.CTRLA.bit.SWRST);
     374:	4b13      	ldr	r3, [pc, #76]	; (3c4 <initUSART+0x70>)
     376:	69db      	ldr	r3, [r3, #28]
     378:	f013 0f01 	tst.w	r3, #1
     37c:	d1fa      	bne.n	374 <initUSART+0x20>
     37e:	4b11      	ldr	r3, [pc, #68]	; (3c4 <initUSART+0x70>)
     380:	681b      	ldr	r3, [r3, #0]
     382:	f013 0f01 	tst.w	r3, #1
     386:	d1f5      	bne.n	374 <initUSART+0x20>
	
	//configure USART mode and bit order
	SERCOM0->USART.CTRLA.reg = 
     388:	4b0e      	ldr	r3, [pc, #56]	; (3c4 <initUSART+0x70>)
     38a:	4a0f      	ldr	r2, [pc, #60]	; (3c8 <initUSART+0x74>)
     38c:	601a      	str	r2, [r3, #0]
		|	SERCOM_USART_CTRLA_DORD;		//LSB first
		
	
		
	//enable transmitter and receiver
	SERCOM0->USART.CTRLB.reg = 
     38e:	f44f 3240 	mov.w	r2, #196608	; 0x30000
     392:	605a      	str	r2, [r3, #4]
			SERCOM_USART_CTRLB_TXEN
		|	SERCOM_USART_CTRLB_RXEN;
	while(SERCOM0->USART.SYNCBUSY.bit.CTRLB);
     394:	4b0b      	ldr	r3, [pc, #44]	; (3c4 <initUSART+0x70>)
     396:	69db      	ldr	r3, [r3, #28]
     398:	f013 0f04 	tst.w	r3, #4
     39c:	d1fa      	bne.n	394 <initUSART+0x40>
	
	//setup baud rate
	SERCOM0->USART.BAUD.reg = CONF_SERCOM_0_USART_BAUD_RATE_REGISTER_VAL;
     39e:	4b09      	ldr	r3, [pc, #36]	; (3c4 <initUSART+0x70>)
     3a0:	f64f 42b9 	movw	r2, #64697	; 0xfcb9
     3a4:	819a      	strh	r2, [r3, #12]
	
	//enable USART
	SERCOM0->USART.CTRLA.reg |= SERCOM_USART_CTRLA_ENABLE;
     3a6:	681a      	ldr	r2, [r3, #0]
     3a8:	f042 0202 	orr.w	r2, r2, #2
     3ac:	601a      	str	r2, [r3, #0]
	while(SERCOM0->USART.SYNCBUSY.bit.ENABLE);
     3ae:	4b05      	ldr	r3, [pc, #20]	; (3c4 <initUSART+0x70>)
     3b0:	69db      	ldr	r3, [r3, #28]
     3b2:	f013 0f02 	tst.w	r3, #2
     3b6:	d1fa      	bne.n	3ae <initUSART+0x5a>

}
     3b8:	4770      	bx	lr
     3ba:	bf00      	nop
     3bc:	40000800 	.word	0x40000800
     3c0:	40001c00 	.word	0x40001c00
     3c4:	40003000 	.word	0x40003000
     3c8:	40100004 	.word	0x40100004

000003cc <SERCOM0_write>:

int32_t SERCOM0_write(const char *const buf, const uint32_t length) {
     3cc:	b410      	push	{r4}
	uint32_t offset = 0;
	
	while(!(SERCOM0->USART.INTFLAG.bit.DRE));
     3ce:	4b0c      	ldr	r3, [pc, #48]	; (400 <SERCOM0_write+0x34>)
     3d0:	7e1b      	ldrb	r3, [r3, #24]
     3d2:	f013 0f01 	tst.w	r3, #1
     3d6:	d0fa      	beq.n	3ce <SERCOM0_write+0x2>
     3d8:	2200      	movs	r2, #0
	
	do {
		SERCOM0->USART.DATA.reg = buf[offset];
     3da:	5c84      	ldrb	r4, [r0, r2]
     3dc:	4b08      	ldr	r3, [pc, #32]	; (400 <SERCOM0_write+0x34>)
     3de:	629c      	str	r4, [r3, #40]	; 0x28
		while(!(SERCOM0->USART.INTFLAG.bit.DRE));
     3e0:	4b07      	ldr	r3, [pc, #28]	; (400 <SERCOM0_write+0x34>)
     3e2:	7e1b      	ldrb	r3, [r3, #24]
     3e4:	f013 0f01 	tst.w	r3, #1
     3e8:	d0fa      	beq.n	3e0 <SERCOM0_write+0x14>
	} while (++offset < length);
     3ea:	3201      	adds	r2, #1
     3ec:	428a      	cmp	r2, r1
     3ee:	d3f4      	bcc.n	3da <SERCOM0_write+0xe>
	
	while(!(SERCOM0->USART.INTFLAG.bit.TXC));
     3f0:	4b03      	ldr	r3, [pc, #12]	; (400 <SERCOM0_write+0x34>)
     3f2:	7e1b      	ldrb	r3, [r3, #24]
     3f4:	f013 0f02 	tst.w	r3, #2
     3f8:	d0fa      	beq.n	3f0 <SERCOM0_write+0x24>
	
	return (int32_t)offset;
}
     3fa:	4610      	mov	r0, r2
     3fc:	bc10      	pop	{r4}
     3fe:	4770      	bx	lr
     400:	40003000 	.word	0x40003000

00000404 <SERCOM0_read>:

int32_t SERCOM0_read(char *const buf, const uint32_t length) {
	uint32_t offset = 0;
     404:	2200      	movs	r2, #0
	
	do {
		while(!(SERCOM0->USART.INTFLAG.bit.RXC));
     406:	4b06      	ldr	r3, [pc, #24]	; (420 <SERCOM0_read+0x1c>)
     408:	7e1b      	ldrb	r3, [r3, #24]
     40a:	f013 0f04 	tst.w	r3, #4
     40e:	d0fa      	beq.n	406 <SERCOM0_read+0x2>
		buf[offset] = SERCOM0->USART.DATA.reg;
     410:	4b03      	ldr	r3, [pc, #12]	; (420 <SERCOM0_read+0x1c>)
     412:	6a9b      	ldr	r3, [r3, #40]	; 0x28
     414:	5483      	strb	r3, [r0, r2]
	} while (++offset < length);
     416:	3201      	adds	r2, #1
     418:	428a      	cmp	r2, r1
     41a:	d3f4      	bcc.n	406 <SERCOM0_read+0x2>

	return (int32_t)offset;
}
     41c:	4610      	mov	r0, r2
     41e:	4770      	bx	lr
     420:	40003000 	.word	0x40003000

00000424 <initClocks>:
}

void initClocks(void)
{
	//Set wait states
	NVMCTRL->CTRLA.bit.RWS = 5;
     424:	4b49      	ldr	r3, [pc, #292]	; (54c <initClocks+0x128>)
     426:	881a      	ldrh	r2, [r3, #0]
     428:	2105      	movs	r1, #5
     42a:	f361 220b 	bfi	r2, r1, #8, #4
     42e:	801a      	strh	r2, [r3, #0]
	
	//Gclk reset
	GCLK->CTRLA.bit.SWRST;
     430:	4b47      	ldr	r3, [pc, #284]	; (550 <initClocks+0x12c>)
     432:	781b      	ldrb	r3, [r3, #0]
	
	//OSCILLATOR CONTROL
	//Setup XOSC
	OSC32KCTRL->XOSC32K.bit.CGM = 01;
     434:	4b47      	ldr	r3, [pc, #284]	; (554 <initClocks+0x130>)
     436:	8a9a      	ldrh	r2, [r3, #20]
     438:	2101      	movs	r1, #1
     43a:	f361 324e 	bfi	r2, r1, #13, #2
     43e:	829a      	strh	r2, [r3, #20]
	OSC32KCTRL->XOSC32K.bit.XTALEN = 1;
     440:	8a99      	ldrh	r1, [r3, #20]
     442:	f041 0204 	orr.w	r2, r1, #4
     446:	829a      	strh	r2, [r3, #20]
	OSC32KCTRL->XOSC32K.bit.EN32K = 1;
     448:	8a99      	ldrh	r1, [r3, #20]
     44a:	f041 0208 	orr.w	r2, r1, #8
     44e:	829a      	strh	r2, [r3, #20]
	OSC32KCTRL->XOSC32K.bit.ONDEMAND = 0;
     450:	8a9a      	ldrh	r2, [r3, #20]
     452:	f36f 12c7 	bfc	r2, #7, #1
     456:	829a      	strh	r2, [r3, #20]
	OSC32KCTRL->XOSC32K.bit.RUNSTDBY = 1;
     458:	8a99      	ldrh	r1, [r3, #20]
     45a:	f041 0240 	orr.w	r2, r1, #64	; 0x40
     45e:	829a      	strh	r2, [r3, #20]
	OSC32KCTRL->XOSC32K.bit.STARTUP = 6;
     460:	8a9a      	ldrh	r2, [r3, #20]
     462:	2106      	movs	r1, #6
     464:	f361 220a 	bfi	r2, r1, #8, #3
     468:	829a      	strh	r2, [r3, #20]
	OSC32KCTRL->XOSC32K.bit.ENABLE = 1;
     46a:	8a99      	ldrh	r1, [r3, #20]
     46c:	f041 0202 	orr.w	r2, r1, #2
     470:	829a      	strh	r2, [r3, #20]
	
	OSC32KCTRL->CFDCTRL.bit.CFDPRESC = 0;
     472:	7d9a      	ldrb	r2, [r3, #22]
     474:	f36f 0282 	bfc	r2, #2, #1
     478:	759a      	strb	r2, [r3, #22]
	OSC32KCTRL->CFDCTRL.bit.SWBACK = 0;
     47a:	7d9a      	ldrb	r2, [r3, #22]
     47c:	f36f 0241 	bfc	r2, #1, #1
     480:	759a      	strb	r2, [r3, #22]
	OSC32KCTRL->CFDCTRL.bit.CFDEN = 0;
     482:	7d9a      	ldrb	r2, [r3, #22]
     484:	f36f 0200 	bfc	r2, #0, #1
     488:	759a      	strb	r2, [r3, #22]
	
	OSC32KCTRL->EVCTRL.bit.CFDEO = 0;
     48a:	7dda      	ldrb	r2, [r3, #23]
     48c:	f36f 0200 	bfc	r2, #0, #1
     490:	75da      	strb	r2, [r3, #23]
	
	// make sure osc32kcrtl is ready
	while (!OSC32KCTRL->INTFLAG.bit.XOSC32KRDY)
     492:	4b30      	ldr	r3, [pc, #192]	; (554 <initClocks+0x130>)
     494:	689b      	ldr	r3, [r3, #8]
     496:	f013 0f01 	tst.w	r3, #1
     49a:	d0fa      	beq.n	492 <initClocks+0x6e>
		;
		
	//Enable DPLL
	OSCCTRL->Dpll[0].DPLLCTRLA.bit.ENABLE = 0;
     49c:	4a2e      	ldr	r2, [pc, #184]	; (558 <initClocks+0x134>)
     49e:	f892 3030 	ldrb.w	r3, [r2, #48]	; 0x30
     4a2:	f36f 0341 	bfc	r3, #1, #1
     4a6:	f882 3030 	strb.w	r3, [r2, #48]	; 0x30
	while (OSCCTRL->Dpll[0].DPLLSYNCBUSY.bit.ENABLE)
     4aa:	4b2b      	ldr	r3, [pc, #172]	; (558 <initClocks+0x134>)
     4ac:	6bdb      	ldr	r3, [r3, #60]	; 0x3c
     4ae:	f013 0f02 	tst.w	r3, #2
     4b2:	d1fa      	bne.n	4aa <initClocks+0x86>
		;
		
	OSCCTRL->Dpll[0].DPLLRATIO.reg = (12<<16) + 0xe4d;  
     4b4:	4a29      	ldr	r2, [pc, #164]	; (55c <initClocks+0x138>)
     4b6:	4b28      	ldr	r3, [pc, #160]	; (558 <initClocks+0x134>)
     4b8:	635a      	str	r2, [r3, #52]	; 0x34
	while (OSCCTRL->Dpll[0].DPLLSYNCBUSY.bit.DPLLRATIO)
     4ba:	4b27      	ldr	r3, [pc, #156]	; (558 <initClocks+0x134>)
     4bc:	6bdb      	ldr	r3, [r3, #60]	; 0x3c
     4be:	f013 0f04 	tst.w	r3, #4
     4c2:	d1fa      	bne.n	4ba <initClocks+0x96>
		;
	
	OSCCTRL->Dpll[0].DPLLCTRLB.bit.DIV = 1;
     4c4:	4b24      	ldr	r3, [pc, #144]	; (558 <initClocks+0x134>)
     4c6:	6b9a      	ldr	r2, [r3, #56]	; 0x38
     4c8:	2101      	movs	r1, #1
     4ca:	f361 421a 	bfi	r2, r1, #16, #11
     4ce:	639a      	str	r2, [r3, #56]	; 0x38
	OSCCTRL->Dpll[0].DPLLCTRLB.bit.DCOEN = 0;
     4d0:	6b9a      	ldr	r2, [r3, #56]	; 0x38
     4d2:	f36f 32cf 	bfc	r2, #15, #1
     4d6:	639a      	str	r2, [r3, #56]	; 0x38
	OSCCTRL->Dpll[0].DPLLCTRLB.bit.LBYPASS = 1;
     4d8:	6b9a      	ldr	r2, [r3, #56]	; 0x38
     4da:	f442 6200 	orr.w	r2, r2, #2048	; 0x800
     4de:	639a      	str	r2, [r3, #56]	; 0x38
	OSCCTRL->Dpll[0].DPLLCTRLB.bit.LTIME = 0;
     4e0:	6b9a      	ldr	r2, [r3, #56]	; 0x38
     4e2:	f36f 220a 	bfc	r2, #8, #3
     4e6:	639a      	str	r2, [r3, #56]	; 0x38
	OSCCTRL->Dpll[0].DPLLCTRLB.bit.REFCLK = 1;
     4e8:	6b9a      	ldr	r2, [r3, #56]	; 0x38
     4ea:	f361 1247 	bfi	r2, r1, #5, #3
     4ee:	639a      	str	r2, [r3, #56]	; 0x38
	OSCCTRL->Dpll[0].DPLLCTRLB.bit.WUF = 1;	
     4f0:	6b9a      	ldr	r2, [r3, #56]	; 0x38
     4f2:	f042 0210 	orr.w	r2, r2, #16
     4f6:	639a      	str	r2, [r3, #56]	; 0x38
		
	OSCCTRL->Dpll[0].DPLLCTRLA.bit.ONDEMAND = 0;
     4f8:	f893 2030 	ldrb.w	r2, [r3, #48]	; 0x30
     4fc:	f36f 12c7 	bfc	r2, #7, #1
     500:	f883 2030 	strb.w	r2, [r3, #48]	; 0x30
	OSCCTRL->Dpll[0].DPLLCTRLA.bit.RUNSTDBY = 1;
     504:	f893 2030 	ldrb.w	r2, [r3, #48]	; 0x30
     508:	f042 0240 	orr.w	r2, r2, #64	; 0x40
     50c:	f883 2030 	strb.w	r2, [r3, #48]	; 0x30
	OSCCTRL->Dpll[0].DPLLCTRLA.bit.ENABLE = 1;
     510:	f893 2030 	ldrb.w	r2, [r3, #48]	; 0x30
     514:	f042 0202 	orr.w	r2, r2, #2
     518:	f883 2030 	strb.w	r2, [r3, #48]	; 0x30
	
	
	//Per errata 2.13.1
	while(!(OSCCTRL->Dpll[0].DPLLSTATUS.bit.CLKRDY == 1))
     51c:	4b0e      	ldr	r3, [pc, #56]	; (558 <initClocks+0x134>)
     51e:	6c1b      	ldr	r3, [r3, #64]	; 0x40
     520:	f013 0f02 	tst.w	r3, #2
     524:	d0fa      	beq.n	51c <initClocks+0xf8>
		;
	
	
	GCLK->GENCTRL[0].reg = (0 << 16) | (0x21 << 8) | 7; // dpll0 = 7, enabled and standby = 0x21, divide by 1
     526:	f242 1207 	movw	r2, #8455	; 0x2107
     52a:	4b09      	ldr	r3, [pc, #36]	; (550 <initClocks+0x12c>)
     52c:	621a      	str	r2, [r3, #32]
	while (GCLK->SYNCBUSY.bit.GENCTRL0)
     52e:	4b08      	ldr	r3, [pc, #32]	; (550 <initClocks+0x12c>)
     530:	685b      	ldr	r3, [r3, #4]
     532:	f013 0f04 	tst.w	r3, #4
     536:	d1fa      	bne.n	52e <initClocks+0x10a>
		;
		
	GCLK->GENCTRL[1].reg = (100 << 16) | (0x21 << 8) | 7; // dpll0 = 7, enabled and standby = 0x21, divide by 100
     538:	4a09      	ldr	r2, [pc, #36]	; (560 <initClocks+0x13c>)
     53a:	4b05      	ldr	r3, [pc, #20]	; (550 <initClocks+0x12c>)
     53c:	625a      	str	r2, [r3, #36]	; 0x24
	while (GCLK->SYNCBUSY.bit.GENCTRL1)
     53e:	4b04      	ldr	r3, [pc, #16]	; (550 <initClocks+0x12c>)
     540:	685b      	ldr	r3, [r3, #4]
     542:	f013 0f08 	tst.w	r3, #8
     546:	d1fa      	bne.n	53e <initClocks+0x11a>
		;
	

	
}
     548:	4770      	bx	lr
     54a:	bf00      	nop
     54c:	41004000 	.word	0x41004000
     550:	40001c00 	.word	0x40001c00
     554:	40001400 	.word	0x40001400
     558:	40001000 	.word	0x40001000
     55c:	000c0e4d 	.word	0x000c0e4d
     560:	00642107 	.word	0x00642107

00000564 <main>:
{
     564:	b538      	push	{r3, r4, r5, lr}
	uint32_t megahurtz = SystemCoreClock;
     566:	4b09      	ldr	r3, [pc, #36]	; (58c <main+0x28>)
     568:	681d      	ldr	r5, [r3, #0]
	initClocks();
     56a:	4b09      	ldr	r3, [pc, #36]	; (590 <main+0x2c>)
     56c:	4798      	blx	r3
	initUSART();
     56e:	4b09      	ldr	r3, [pc, #36]	; (594 <main+0x30>)
     570:	4798      	blx	r3
	initGPIO();
     572:	4b09      	ldr	r3, [pc, #36]	; (598 <main+0x34>)
     574:	4798      	blx	r3
	SERCOM0_write(buffer, 5);
     576:	2105      	movs	r1, #5
     578:	4808      	ldr	r0, [pc, #32]	; (59c <main+0x38>)
     57a:	4b09      	ldr	r3, [pc, #36]	; (5a0 <main+0x3c>)
     57c:	4798      	blx	r3
	printf("this works");
     57e:	4809      	ldr	r0, [pc, #36]	; (5a4 <main+0x40>)
     580:	4c09      	ldr	r4, [pc, #36]	; (5a8 <main+0x44>)
     582:	47a0      	blx	r4
	printf("%l",megahurtz);
     584:	4629      	mov	r1, r5
     586:	4809      	ldr	r0, [pc, #36]	; (5ac <main+0x48>)
     588:	47a0      	blx	r4
     58a:	e7fe      	b.n	58a <main+0x26>
     58c:	20000000 	.word	0x20000000
     590:	00000425 	.word	0x00000425
     594:	00000355 	.word	0x00000355
     598:	0000033d 	.word	0x0000033d
     59c:	00005bf0 	.word	0x00005bf0
     5a0:	000003cd 	.word	0x000003cd
     5a4:	00005bf8 	.word	0x00005bf8
     5a8:	00000725 	.word	0x00000725
     5ac:	00005c04 	.word	0x00005c04

000005b0 <_read>:
}

int _read(int file, char *ptr, int len) {
	int n = 0;

	if (file != 0) {
     5b0:	b958      	cbnz	r0, 5ca <_read+0x1a>
int _read(int file, char *ptr, int len) {
     5b2:	b508      	push	{r3, lr}
     5b4:	460b      	mov	r3, r1
     5b6:	4611      	mov	r1, r2
     5b8:	4618      	mov	r0, r3
		return -1;
	}

	n = SERCOM0_read((char *)ptr, len);
     5ba:	4b05      	ldr	r3, [pc, #20]	; (5d0 <_read+0x20>)
     5bc:	4798      	blx	r3
	if (n < 0) {
     5be:	2800      	cmp	r0, #0
     5c0:	db00      	blt.n	5c4 <_read+0x14>
		return -1;
	}

	return n;
}
     5c2:	bd08      	pop	{r3, pc}
		return -1;
     5c4:	f04f 30ff 	mov.w	r0, #4294967295
     5c8:	bd08      	pop	{r3, pc}
		return -1;
     5ca:	f04f 30ff 	mov.w	r0, #4294967295
     5ce:	4770      	bx	lr
     5d0:	00000405 	.word	0x00000405

000005d4 <_write>:

int _write(int file, char *ptr, int len) {
	int n = 0;

	if ((file != 1) && (file != 2) && (file != 3)) {
     5d4:	3801      	subs	r0, #1
     5d6:	2802      	cmp	r0, #2
     5d8:	d80b      	bhi.n	5f2 <_write+0x1e>
int _write(int file, char *ptr, int len) {
     5da:	b508      	push	{r3, lr}
     5dc:	460b      	mov	r3, r1
     5de:	4611      	mov	r1, r2
     5e0:	4618      	mov	r0, r3
		return -1;
	}

	n = SERCOM0_write((const char *)ptr, len);
     5e2:	4b05      	ldr	r3, [pc, #20]	; (5f8 <_write+0x24>)
     5e4:	4798      	blx	r3
	if (n < 0) {
     5e6:	2800      	cmp	r0, #0
     5e8:	db00      	blt.n	5ec <_write+0x18>
		return -1;
	}

	return n;
}
     5ea:	bd08      	pop	{r3, pc}
		return -1;
     5ec:	f04f 30ff 	mov.w	r0, #4294967295
     5f0:	bd08      	pop	{r3, pc}
		return -1;
     5f2:	f04f 30ff 	mov.w	r0, #4294967295
     5f6:	4770      	bx	lr
     5f8:	000003cd 	.word	0x000003cd

000005fc <_sbrk>:

/**
 * \brief Replacement of C library of _sbrk
 */
caddr_t _sbrk(int incr)
{
     5fc:	4603      	mov	r3, r0
	static unsigned char *heap = NULL;
	unsigned char *       prev_heap;

	if (heap == NULL) {
     5fe:	4a06      	ldr	r2, [pc, #24]	; (618 <_sbrk+0x1c>)
     600:	6812      	ldr	r2, [r2, #0]
     602:	b122      	cbz	r2, 60e <_sbrk+0x12>
		heap = (unsigned char *)&_end;
	}
	prev_heap = heap;
     604:	4a04      	ldr	r2, [pc, #16]	; (618 <_sbrk+0x1c>)
     606:	6810      	ldr	r0, [r2, #0]

	heap += incr;
     608:	4403      	add	r3, r0
     60a:	6013      	str	r3, [r2, #0]

	return (caddr_t)prev_heap;
}
     60c:	4770      	bx	lr
		heap = (unsigned char *)&_end;
     60e:	4903      	ldr	r1, [pc, #12]	; (61c <_sbrk+0x20>)
     610:	4a01      	ldr	r2, [pc, #4]	; (618 <_sbrk+0x1c>)
     612:	6011      	str	r1, [r2, #0]
     614:	e7f6      	b.n	604 <_sbrk+0x8>
     616:	bf00      	nop
     618:	200009cc 	.word	0x200009cc
     61c:	2000ca30 	.word	0x2000ca30

00000620 <_close>:
 */
int _close(int file)
{
	(void)file;
	return -1;
}
     620:	f04f 30ff 	mov.w	r0, #4294967295
     624:	4770      	bx	lr

00000626 <_fstat>:
 * \brief Replacement of C library of _fstat
 */
int _fstat(int file, struct stat *st)
{
	(void)file;
	st->st_mode = S_IFCHR;
     626:	f44f 5300 	mov.w	r3, #8192	; 0x2000
     62a:	604b      	str	r3, [r1, #4]

	return 0;
}
     62c:	2000      	movs	r0, #0
     62e:	4770      	bx	lr

00000630 <_isatty>:
 */
int _isatty(int file)
{
	(void)file;
	return 1;
}
     630:	2001      	movs	r0, #1
     632:	4770      	bx	lr

00000634 <_lseek>:
 */
int _lseek(int file, int ptr, int dir)
{
	(void)file, (void)ptr, (void)dir;
	return 0;
}
     634:	2000      	movs	r0, #0
     636:	4770      	bx	lr

00000638 <__libc_init_array>:
     638:	b570      	push	{r4, r5, r6, lr}
     63a:	4e0f      	ldr	r6, [pc, #60]	; (678 <__libc_init_array+0x40>)
     63c:	4d0f      	ldr	r5, [pc, #60]	; (67c <__libc_init_array+0x44>)
     63e:	1b76      	subs	r6, r6, r5
     640:	10b6      	asrs	r6, r6, #2
     642:	bf18      	it	ne
     644:	2400      	movne	r4, #0
     646:	d005      	beq.n	654 <__libc_init_array+0x1c>
     648:	3401      	adds	r4, #1
     64a:	f855 3b04 	ldr.w	r3, [r5], #4
     64e:	4798      	blx	r3
     650:	42a6      	cmp	r6, r4
     652:	d1f9      	bne.n	648 <__libc_init_array+0x10>
     654:	4e0a      	ldr	r6, [pc, #40]	; (680 <__libc_init_array+0x48>)
     656:	4d0b      	ldr	r5, [pc, #44]	; (684 <__libc_init_array+0x4c>)
     658:	1b76      	subs	r6, r6, r5
     65a:	f005 fc19 	bl	5e90 <_init>
     65e:	10b6      	asrs	r6, r6, #2
     660:	bf18      	it	ne
     662:	2400      	movne	r4, #0
     664:	d006      	beq.n	674 <__libc_init_array+0x3c>
     666:	3401      	adds	r4, #1
     668:	f855 3b04 	ldr.w	r3, [r5], #4
     66c:	4798      	blx	r3
     66e:	42a6      	cmp	r6, r4
     670:	d1f9      	bne.n	666 <__libc_init_array+0x2e>
     672:	bd70      	pop	{r4, r5, r6, pc}
     674:	bd70      	pop	{r4, r5, r6, pc}
     676:	bf00      	nop
     678:	00005e9c 	.word	0x00005e9c
     67c:	00005e9c 	.word	0x00005e9c
     680:	00005ea4 	.word	0x00005ea4
     684:	00005e9c 	.word	0x00005e9c

00000688 <memset>:
     688:	b470      	push	{r4, r5, r6}
     68a:	0786      	lsls	r6, r0, #30
     68c:	d046      	beq.n	71c <memset+0x94>
     68e:	1e54      	subs	r4, r2, #1
     690:	2a00      	cmp	r2, #0
     692:	d041      	beq.n	718 <memset+0x90>
     694:	b2ca      	uxtb	r2, r1
     696:	4603      	mov	r3, r0
     698:	e002      	b.n	6a0 <memset+0x18>
     69a:	f114 34ff 	adds.w	r4, r4, #4294967295
     69e:	d33b      	bcc.n	718 <memset+0x90>
     6a0:	f803 2b01 	strb.w	r2, [r3], #1
     6a4:	079d      	lsls	r5, r3, #30
     6a6:	d1f8      	bne.n	69a <memset+0x12>
     6a8:	2c03      	cmp	r4, #3
     6aa:	d92e      	bls.n	70a <memset+0x82>
     6ac:	b2cd      	uxtb	r5, r1
     6ae:	ea45 2505 	orr.w	r5, r5, r5, lsl #8
     6b2:	2c0f      	cmp	r4, #15
     6b4:	ea45 4505 	orr.w	r5, r5, r5, lsl #16
     6b8:	d919      	bls.n	6ee <memset+0x66>
     6ba:	f103 0210 	add.w	r2, r3, #16
     6be:	4626      	mov	r6, r4
     6c0:	3e10      	subs	r6, #16
     6c2:	2e0f      	cmp	r6, #15
     6c4:	f842 5c10 	str.w	r5, [r2, #-16]
     6c8:	f842 5c0c 	str.w	r5, [r2, #-12]
     6cc:	f842 5c08 	str.w	r5, [r2, #-8]
     6d0:	f842 5c04 	str.w	r5, [r2, #-4]
     6d4:	f102 0210 	add.w	r2, r2, #16
     6d8:	d8f2      	bhi.n	6c0 <memset+0x38>
     6da:	f1a4 0210 	sub.w	r2, r4, #16
     6de:	f022 020f 	bic.w	r2, r2, #15
     6e2:	f004 040f 	and.w	r4, r4, #15
     6e6:	3210      	adds	r2, #16
     6e8:	2c03      	cmp	r4, #3
     6ea:	4413      	add	r3, r2
     6ec:	d90d      	bls.n	70a <memset+0x82>
     6ee:	461e      	mov	r6, r3
     6f0:	4622      	mov	r2, r4
     6f2:	3a04      	subs	r2, #4
     6f4:	2a03      	cmp	r2, #3
     6f6:	f846 5b04 	str.w	r5, [r6], #4
     6fa:	d8fa      	bhi.n	6f2 <memset+0x6a>
     6fc:	1f22      	subs	r2, r4, #4
     6fe:	f022 0203 	bic.w	r2, r2, #3
     702:	3204      	adds	r2, #4
     704:	4413      	add	r3, r2
     706:	f004 0403 	and.w	r4, r4, #3
     70a:	b12c      	cbz	r4, 718 <memset+0x90>
     70c:	b2c9      	uxtb	r1, r1
     70e:	441c      	add	r4, r3
     710:	f803 1b01 	strb.w	r1, [r3], #1
     714:	429c      	cmp	r4, r3
     716:	d1fb      	bne.n	710 <memset+0x88>
     718:	bc70      	pop	{r4, r5, r6}
     71a:	4770      	bx	lr
     71c:	4614      	mov	r4, r2
     71e:	4603      	mov	r3, r0
     720:	e7c2      	b.n	6a8 <memset+0x20>
     722:	bf00      	nop

00000724 <printf>:
     724:	b40f      	push	{r0, r1, r2, r3}
     726:	b500      	push	{lr}
     728:	4907      	ldr	r1, [pc, #28]	; (748 <printf+0x24>)
     72a:	b083      	sub	sp, #12
     72c:	ab04      	add	r3, sp, #16
     72e:	6808      	ldr	r0, [r1, #0]
     730:	f853 2b04 	ldr.w	r2, [r3], #4
     734:	6881      	ldr	r1, [r0, #8]
     736:	9301      	str	r3, [sp, #4]
     738:	f000 f808 	bl	74c <_vfprintf_r>
     73c:	b003      	add	sp, #12
     73e:	f85d eb04 	ldr.w	lr, [sp], #4
     742:	b004      	add	sp, #16
     744:	4770      	bx	lr
     746:	bf00      	nop
     748:	20000004 	.word	0x20000004

0000074c <_vfprintf_r>:
     74c:	e92d 4ff0 	stmdb	sp!, {r4, r5, r6, r7, r8, r9, sl, fp, lr}
     750:	b0c1      	sub	sp, #260	; 0x104
     752:	461d      	mov	r5, r3
     754:	468a      	mov	sl, r1
     756:	4691      	mov	r9, r2
     758:	4604      	mov	r4, r0
     75a:	9008      	str	r0, [sp, #32]
     75c:	f002 fdc0 	bl	32e0 <_localeconv_r>
     760:	6803      	ldr	r3, [r0, #0]
     762:	9315      	str	r3, [sp, #84]	; 0x54
     764:	4618      	mov	r0, r3
     766:	f003 fd4b 	bl	4200 <strlen>
     76a:	950e      	str	r5, [sp, #56]	; 0x38
     76c:	9014      	str	r0, [sp, #80]	; 0x50
     76e:	b11c      	cbz	r4, 778 <_vfprintf_r+0x2c>
     770:	6ba3      	ldr	r3, [r4, #56]	; 0x38
     772:	2b00      	cmp	r3, #0
     774:	f000 825f 	beq.w	c36 <_vfprintf_r+0x4ea>
     778:	f8da 3064 	ldr.w	r3, [sl, #100]	; 0x64
     77c:	f9ba 200c 	ldrsh.w	r2, [sl, #12]
     780:	f013 0f01 	tst.w	r3, #1
     784:	b293      	uxth	r3, r2
     786:	d102      	bne.n	78e <_vfprintf_r+0x42>
     788:	0599      	lsls	r1, r3, #22
     78a:	f140 8275 	bpl.w	c78 <_vfprintf_r+0x52c>
     78e:	049f      	lsls	r7, r3, #18
     790:	d40a      	bmi.n	7a8 <_vfprintf_r+0x5c>
     792:	f8da 1064 	ldr.w	r1, [sl, #100]	; 0x64
     796:	f442 5300 	orr.w	r3, r2, #8192	; 0x2000
     79a:	f421 5100 	bic.w	r1, r1, #8192	; 0x2000
     79e:	f8aa 300c 	strh.w	r3, [sl, #12]
     7a2:	f8ca 1064 	str.w	r1, [sl, #100]	; 0x64
     7a6:	b29b      	uxth	r3, r3
     7a8:	071e      	lsls	r6, r3, #28
     7aa:	f140 8223 	bpl.w	bf4 <_vfprintf_r+0x4a8>
     7ae:	f8da 2010 	ldr.w	r2, [sl, #16]
     7b2:	2a00      	cmp	r2, #0
     7b4:	f000 821e 	beq.w	bf4 <_vfprintf_r+0x4a8>
     7b8:	f003 021a 	and.w	r2, r3, #26
     7bc:	2a0a      	cmp	r2, #10
     7be:	f000 823e 	beq.w	c3e <_vfprintf_r+0x4f2>
     7c2:	2300      	movs	r3, #0
     7c4:	4618      	mov	r0, r3
     7c6:	9311      	str	r3, [sp, #68]	; 0x44
     7c8:	9313      	str	r3, [sp, #76]	; 0x4c
     7ca:	9312      	str	r3, [sp, #72]	; 0x48
     7cc:	9325      	str	r3, [sp, #148]	; 0x94
     7ce:	9324      	str	r3, [sp, #144]	; 0x90
     7d0:	9318      	str	r3, [sp, #96]	; 0x60
     7d2:	9319      	str	r3, [sp, #100]	; 0x64
     7d4:	930b      	str	r3, [sp, #44]	; 0x2c
     7d6:	ab30      	add	r3, sp, #192	; 0xc0
     7d8:	9323      	str	r3, [sp, #140]	; 0x8c
     7da:	4698      	mov	r8, r3
     7dc:	9016      	str	r0, [sp, #88]	; 0x58
     7de:	9017      	str	r0, [sp, #92]	; 0x5c
     7e0:	f8cd a028 	str.w	sl, [sp, #40]	; 0x28
     7e4:	f899 3000 	ldrb.w	r3, [r9]
     7e8:	464c      	mov	r4, r9
     7ea:	b1eb      	cbz	r3, 828 <_vfprintf_r+0xdc>
     7ec:	2b25      	cmp	r3, #37	; 0x25
     7ee:	d102      	bne.n	7f6 <_vfprintf_r+0xaa>
     7f0:	e01a      	b.n	828 <_vfprintf_r+0xdc>
     7f2:	2b25      	cmp	r3, #37	; 0x25
     7f4:	d003      	beq.n	7fe <_vfprintf_r+0xb2>
     7f6:	f814 3f01 	ldrb.w	r3, [r4, #1]!
     7fa:	2b00      	cmp	r3, #0
     7fc:	d1f9      	bne.n	7f2 <_vfprintf_r+0xa6>
     7fe:	eba4 0509 	sub.w	r5, r4, r9
     802:	b18d      	cbz	r5, 828 <_vfprintf_r+0xdc>
     804:	9b24      	ldr	r3, [sp, #144]	; 0x90
     806:	9a25      	ldr	r2, [sp, #148]	; 0x94
     808:	f8c8 9000 	str.w	r9, [r8]
     80c:	3301      	adds	r3, #1
     80e:	442a      	add	r2, r5
     810:	2b07      	cmp	r3, #7
     812:	f8c8 5004 	str.w	r5, [r8, #4]
     816:	9225      	str	r2, [sp, #148]	; 0x94
     818:	9324      	str	r3, [sp, #144]	; 0x90
     81a:	f300 8201 	bgt.w	c20 <_vfprintf_r+0x4d4>
     81e:	f108 0808 	add.w	r8, r8, #8
     822:	9b0b      	ldr	r3, [sp, #44]	; 0x2c
     824:	442b      	add	r3, r5
     826:	930b      	str	r3, [sp, #44]	; 0x2c
     828:	7823      	ldrb	r3, [r4, #0]
     82a:	2b00      	cmp	r3, #0
     82c:	f000 83f0 	beq.w	1010 <_vfprintf_r+0x8c4>
     830:	2300      	movs	r3, #0
     832:	461a      	mov	r2, r3
     834:	f88d 306f 	strb.w	r3, [sp, #111]	; 0x6f
     838:	4619      	mov	r1, r3
     83a:	930c      	str	r3, [sp, #48]	; 0x30
     83c:	469b      	mov	fp, r3
     83e:	7866      	ldrb	r6, [r4, #1]
     840:	f04f 33ff 	mov.w	r3, #4294967295
     844:	f104 0901 	add.w	r9, r4, #1
     848:	9309      	str	r3, [sp, #36]	; 0x24
     84a:	f109 0901 	add.w	r9, r9, #1
     84e:	f1a6 0320 	sub.w	r3, r6, #32
     852:	2b58      	cmp	r3, #88	; 0x58
     854:	f200 83bf 	bhi.w	fd6 <_vfprintf_r+0x88a>
     858:	e8df f013 	tbh	[pc, r3, lsl #1]
     85c:	03bd02e0 	.word	0x03bd02e0
     860:	034f03bd 	.word	0x034f03bd
     864:	03bd03bd 	.word	0x03bd03bd
     868:	03bd03bd 	.word	0x03bd03bd
     86c:	03bd03bd 	.word	0x03bd03bd
     870:	03080354 	.word	0x03080354
     874:	021a03bd 	.word	0x021a03bd
     878:	03bd02e8 	.word	0x03bd02e8
     87c:	033a0303 	.word	0x033a0303
     880:	033a033a 	.word	0x033a033a
     884:	033a033a 	.word	0x033a033a
     888:	033a033a 	.word	0x033a033a
     88c:	033a033a 	.word	0x033a033a
     890:	03bd03bd 	.word	0x03bd03bd
     894:	03bd03bd 	.word	0x03bd03bd
     898:	03bd03bd 	.word	0x03bd03bd
     89c:	03bd03bd 	.word	0x03bd03bd
     8a0:	03bd03bd 	.word	0x03bd03bd
     8a4:	03620349 	.word	0x03620349
     8a8:	036203bd 	.word	0x036203bd
     8ac:	03bd03bd 	.word	0x03bd03bd
     8b0:	03bd03bd 	.word	0x03bd03bd
     8b4:	03bd03a2 	.word	0x03bd03a2
     8b8:	006f03bd 	.word	0x006f03bd
     8bc:	03bd03bd 	.word	0x03bd03bd
     8c0:	03bd03bd 	.word	0x03bd03bd
     8c4:	005903bd 	.word	0x005903bd
     8c8:	03bd03bd 	.word	0x03bd03bd
     8cc:	03bd031e 	.word	0x03bd031e
     8d0:	03bd03bd 	.word	0x03bd03bd
     8d4:	03bd03bd 	.word	0x03bd03bd
     8d8:	03bd03bd 	.word	0x03bd03bd
     8dc:	03bd03bd 	.word	0x03bd03bd
     8e0:	032403bd 	.word	0x032403bd
     8e4:	03620273 	.word	0x03620273
     8e8:	03620362 	.word	0x03620362
     8ec:	027302b7 	.word	0x027302b7
     8f0:	03bd03bd 	.word	0x03bd03bd
     8f4:	03bd02bc 	.word	0x03bd02bc
     8f8:	007102c9 	.word	0x007102c9
     8fc:	0247030d 	.word	0x0247030d
     900:	025203bd 	.word	0x025203bd
     904:	005b03bd 	.word	0x005b03bd
     908:	03bd03bd 	.word	0x03bd03bd
     90c:	021f      	.short	0x021f
     90e:	f04b 0b10 	orr.w	fp, fp, #16
     912:	f01b 0f20 	tst.w	fp, #32
     916:	f040 8353 	bne.w	fc0 <_vfprintf_r+0x874>
     91a:	9a0e      	ldr	r2, [sp, #56]	; 0x38
     91c:	f01b 0f10 	tst.w	fp, #16
     920:	4613      	mov	r3, r2
     922:	f040 85b4 	bne.w	148e <_vfprintf_r+0xd42>
     926:	f01b 0f40 	tst.w	fp, #64	; 0x40
     92a:	f000 85b0 	beq.w	148e <_vfprintf_r+0xd42>
     92e:	8814      	ldrh	r4, [r2, #0]
     930:	3204      	adds	r2, #4
     932:	2500      	movs	r5, #0
     934:	2301      	movs	r3, #1
     936:	920e      	str	r2, [sp, #56]	; 0x38
     938:	e014      	b.n	964 <_vfprintf_r+0x218>
     93a:	f04b 0b10 	orr.w	fp, fp, #16
     93e:	f01b 0320 	ands.w	r3, fp, #32
     942:	f040 8332 	bne.w	faa <_vfprintf_r+0x85e>
     946:	f01b 0210 	ands.w	r2, fp, #16
     94a:	f040 8589 	bne.w	1460 <_vfprintf_r+0xd14>
     94e:	f01b 0340 	ands.w	r3, fp, #64	; 0x40
     952:	f000 8585 	beq.w	1460 <_vfprintf_r+0xd14>
     956:	990e      	ldr	r1, [sp, #56]	; 0x38
     958:	4613      	mov	r3, r2
     95a:	460a      	mov	r2, r1
     95c:	3204      	adds	r2, #4
     95e:	880c      	ldrh	r4, [r1, #0]
     960:	920e      	str	r2, [sp, #56]	; 0x38
     962:	2500      	movs	r5, #0
     964:	f04f 0a00 	mov.w	sl, #0
     968:	f88d a06f 	strb.w	sl, [sp, #111]	; 0x6f
     96c:	9909      	ldr	r1, [sp, #36]	; 0x24
     96e:	1c4a      	adds	r2, r1, #1
     970:	f000 820b 	beq.w	d8a <_vfprintf_r+0x63e>
     974:	f02b 0280 	bic.w	r2, fp, #128	; 0x80
     978:	9206      	str	r2, [sp, #24]
     97a:	ea54 0205 	orrs.w	r2, r4, r5
     97e:	f040 820a 	bne.w	d96 <_vfprintf_r+0x64a>
     982:	2900      	cmp	r1, #0
     984:	f040 846f 	bne.w	1266 <_vfprintf_r+0xb1a>
     988:	2b00      	cmp	r3, #0
     98a:	f040 852d 	bne.w	13e8 <_vfprintf_r+0xc9c>
     98e:	f01b 0301 	ands.w	r3, fp, #1
     992:	930d      	str	r3, [sp, #52]	; 0x34
     994:	f000 8668 	beq.w	1668 <_vfprintf_r+0xf1c>
     998:	af40      	add	r7, sp, #256	; 0x100
     99a:	2330      	movs	r3, #48	; 0x30
     99c:	f807 3d41 	strb.w	r3, [r7, #-65]!
     9a0:	9b09      	ldr	r3, [sp, #36]	; 0x24
     9a2:	9a0d      	ldr	r2, [sp, #52]	; 0x34
     9a4:	4293      	cmp	r3, r2
     9a6:	bfb8      	it	lt
     9a8:	4613      	movlt	r3, r2
     9aa:	9307      	str	r3, [sp, #28]
     9ac:	2300      	movs	r3, #0
     9ae:	9310      	str	r3, [sp, #64]	; 0x40
     9b0:	f1ba 0f00 	cmp.w	sl, #0
     9b4:	d002      	beq.n	9bc <_vfprintf_r+0x270>
     9b6:	9b07      	ldr	r3, [sp, #28]
     9b8:	3301      	adds	r3, #1
     9ba:	9307      	str	r3, [sp, #28]
     9bc:	9b06      	ldr	r3, [sp, #24]
     9be:	f013 0302 	ands.w	r3, r3, #2
     9c2:	930f      	str	r3, [sp, #60]	; 0x3c
     9c4:	d002      	beq.n	9cc <_vfprintf_r+0x280>
     9c6:	9b07      	ldr	r3, [sp, #28]
     9c8:	3302      	adds	r3, #2
     9ca:	9307      	str	r3, [sp, #28]
     9cc:	9b06      	ldr	r3, [sp, #24]
     9ce:	f013 0584 	ands.w	r5, r3, #132	; 0x84
     9d2:	f040 831b 	bne.w	100c <_vfprintf_r+0x8c0>
     9d6:	9b0c      	ldr	r3, [sp, #48]	; 0x30
     9d8:	9a07      	ldr	r2, [sp, #28]
     9da:	eba3 0b02 	sub.w	fp, r3, r2
     9de:	f1bb 0f00 	cmp.w	fp, #0
     9e2:	f340 8313 	ble.w	100c <_vfprintf_r+0x8c0>
     9e6:	f1bb 0f10 	cmp.w	fp, #16
     9ea:	9925      	ldr	r1, [sp, #148]	; 0x94
     9ec:	9a24      	ldr	r2, [sp, #144]	; 0x90
     9ee:	dd28      	ble.n	a42 <_vfprintf_r+0x2f6>
     9f0:	4643      	mov	r3, r8
     9f2:	2410      	movs	r4, #16
     9f4:	46a8      	mov	r8, r5
     9f6:	f8dd a020 	ldr.w	sl, [sp, #32]
     9fa:	9d0a      	ldr	r5, [sp, #40]	; 0x28
     9fc:	e006      	b.n	a0c <_vfprintf_r+0x2c0>
     9fe:	f1ab 0b10 	sub.w	fp, fp, #16
     a02:	f1bb 0f10 	cmp.w	fp, #16
     a06:	f103 0308 	add.w	r3, r3, #8
     a0a:	dd18      	ble.n	a3e <_vfprintf_r+0x2f2>
     a0c:	3201      	adds	r2, #1
     a0e:	48b9      	ldr	r0, [pc, #740]	; (cf4 <_vfprintf_r+0x5a8>)
     a10:	9224      	str	r2, [sp, #144]	; 0x90
     a12:	3110      	adds	r1, #16
     a14:	2a07      	cmp	r2, #7
     a16:	9125      	str	r1, [sp, #148]	; 0x94
     a18:	e883 0011 	stmia.w	r3, {r0, r4}
     a1c:	ddef      	ble.n	9fe <_vfprintf_r+0x2b2>
     a1e:	aa23      	add	r2, sp, #140	; 0x8c
     a20:	4629      	mov	r1, r5
     a22:	4650      	mov	r0, sl
     a24:	f003 fc9a 	bl	435c <__sprint_r>
     a28:	2800      	cmp	r0, #0
     a2a:	f040 836a 	bne.w	1102 <_vfprintf_r+0x9b6>
     a2e:	f1ab 0b10 	sub.w	fp, fp, #16
     a32:	f1bb 0f10 	cmp.w	fp, #16
     a36:	9925      	ldr	r1, [sp, #148]	; 0x94
     a38:	9a24      	ldr	r2, [sp, #144]	; 0x90
     a3a:	ab30      	add	r3, sp, #192	; 0xc0
     a3c:	dce6      	bgt.n	a0c <_vfprintf_r+0x2c0>
     a3e:	4645      	mov	r5, r8
     a40:	4698      	mov	r8, r3
     a42:	3201      	adds	r2, #1
     a44:	4bab      	ldr	r3, [pc, #684]	; (cf4 <_vfprintf_r+0x5a8>)
     a46:	9224      	str	r2, [sp, #144]	; 0x90
     a48:	eb0b 0401 	add.w	r4, fp, r1
     a4c:	2a07      	cmp	r2, #7
     a4e:	9425      	str	r4, [sp, #148]	; 0x94
     a50:	e888 0808 	stmia.w	r8, {r3, fp}
     a54:	f300 84cd 	bgt.w	13f2 <_vfprintf_r+0xca6>
     a58:	f89d a06f 	ldrb.w	sl, [sp, #111]	; 0x6f
     a5c:	f108 0808 	add.w	r8, r8, #8
     a60:	f1ba 0f00 	cmp.w	sl, #0
     a64:	d00e      	beq.n	a84 <_vfprintf_r+0x338>
     a66:	9b24      	ldr	r3, [sp, #144]	; 0x90
     a68:	3301      	adds	r3, #1
     a6a:	3401      	adds	r4, #1
     a6c:	f10d 016f 	add.w	r1, sp, #111	; 0x6f
     a70:	2201      	movs	r2, #1
     a72:	2b07      	cmp	r3, #7
     a74:	9425      	str	r4, [sp, #148]	; 0x94
     a76:	9324      	str	r3, [sp, #144]	; 0x90
     a78:	e888 0006 	stmia.w	r8, {r1, r2}
     a7c:	f300 840a 	bgt.w	1294 <_vfprintf_r+0xb48>
     a80:	f108 0808 	add.w	r8, r8, #8
     a84:	9b0f      	ldr	r3, [sp, #60]	; 0x3c
     a86:	b16b      	cbz	r3, aa4 <_vfprintf_r+0x358>
     a88:	9b24      	ldr	r3, [sp, #144]	; 0x90
     a8a:	3301      	adds	r3, #1
     a8c:	3402      	adds	r4, #2
     a8e:	a91c      	add	r1, sp, #112	; 0x70
     a90:	2202      	movs	r2, #2
     a92:	2b07      	cmp	r3, #7
     a94:	9425      	str	r4, [sp, #148]	; 0x94
     a96:	9324      	str	r3, [sp, #144]	; 0x90
     a98:	e888 0006 	stmia.w	r8, {r1, r2}
     a9c:	f300 8406 	bgt.w	12ac <_vfprintf_r+0xb60>
     aa0:	f108 0808 	add.w	r8, r8, #8
     aa4:	2d80      	cmp	r5, #128	; 0x80
     aa6:	f000 832e 	beq.w	1106 <_vfprintf_r+0x9ba>
     aaa:	9b09      	ldr	r3, [sp, #36]	; 0x24
     aac:	9a0d      	ldr	r2, [sp, #52]	; 0x34
     aae:	eba3 0a02 	sub.w	sl, r3, r2
     ab2:	f1ba 0f00 	cmp.w	sl, #0
     ab6:	dd3b      	ble.n	b30 <_vfprintf_r+0x3e4>
     ab8:	f1ba 0f10 	cmp.w	sl, #16
     abc:	9b24      	ldr	r3, [sp, #144]	; 0x90
     abe:	4d8e      	ldr	r5, [pc, #568]	; (cf8 <_vfprintf_r+0x5ac>)
     ac0:	dd2b      	ble.n	b1a <_vfprintf_r+0x3ce>
     ac2:	4642      	mov	r2, r8
     ac4:	4621      	mov	r1, r4
     ac6:	46b0      	mov	r8, r6
     ac8:	f04f 0b10 	mov.w	fp, #16
     acc:	462e      	mov	r6, r5
     ace:	9c08      	ldr	r4, [sp, #32]
     ad0:	9d0a      	ldr	r5, [sp, #40]	; 0x28
     ad2:	e006      	b.n	ae2 <_vfprintf_r+0x396>
     ad4:	f1aa 0a10 	sub.w	sl, sl, #16
     ad8:	f1ba 0f10 	cmp.w	sl, #16
     adc:	f102 0208 	add.w	r2, r2, #8
     ae0:	dd17      	ble.n	b12 <_vfprintf_r+0x3c6>
     ae2:	3301      	adds	r3, #1
     ae4:	3110      	adds	r1, #16
     ae6:	2b07      	cmp	r3, #7
     ae8:	9125      	str	r1, [sp, #148]	; 0x94
     aea:	9324      	str	r3, [sp, #144]	; 0x90
     aec:	e882 0840 	stmia.w	r2, {r6, fp}
     af0:	ddf0      	ble.n	ad4 <_vfprintf_r+0x388>
     af2:	aa23      	add	r2, sp, #140	; 0x8c
     af4:	4629      	mov	r1, r5
     af6:	4620      	mov	r0, r4
     af8:	f003 fc30 	bl	435c <__sprint_r>
     afc:	2800      	cmp	r0, #0
     afe:	f040 8300 	bne.w	1102 <_vfprintf_r+0x9b6>
     b02:	f1aa 0a10 	sub.w	sl, sl, #16
     b06:	f1ba 0f10 	cmp.w	sl, #16
     b0a:	9925      	ldr	r1, [sp, #148]	; 0x94
     b0c:	9b24      	ldr	r3, [sp, #144]	; 0x90
     b0e:	aa30      	add	r2, sp, #192	; 0xc0
     b10:	dce7      	bgt.n	ae2 <_vfprintf_r+0x396>
     b12:	4635      	mov	r5, r6
     b14:	460c      	mov	r4, r1
     b16:	4646      	mov	r6, r8
     b18:	4690      	mov	r8, r2
     b1a:	3301      	adds	r3, #1
     b1c:	4454      	add	r4, sl
     b1e:	2b07      	cmp	r3, #7
     b20:	9425      	str	r4, [sp, #148]	; 0x94
     b22:	9324      	str	r3, [sp, #144]	; 0x90
     b24:	e888 0420 	stmia.w	r8, {r5, sl}
     b28:	f300 83a9 	bgt.w	127e <_vfprintf_r+0xb32>
     b2c:	f108 0808 	add.w	r8, r8, #8
     b30:	9b06      	ldr	r3, [sp, #24]
     b32:	05db      	lsls	r3, r3, #23
     b34:	f100 8285 	bmi.w	1042 <_vfprintf_r+0x8f6>
     b38:	9b24      	ldr	r3, [sp, #144]	; 0x90
     b3a:	990d      	ldr	r1, [sp, #52]	; 0x34
     b3c:	f8c8 7000 	str.w	r7, [r8]
     b40:	3301      	adds	r3, #1
     b42:	440c      	add	r4, r1
     b44:	2b07      	cmp	r3, #7
     b46:	9425      	str	r4, [sp, #148]	; 0x94
     b48:	f8c8 1004 	str.w	r1, [r8, #4]
     b4c:	9324      	str	r3, [sp, #144]	; 0x90
     b4e:	f300 8375 	bgt.w	123c <_vfprintf_r+0xaf0>
     b52:	f108 0808 	add.w	r8, r8, #8
     b56:	9b06      	ldr	r3, [sp, #24]
     b58:	0759      	lsls	r1, r3, #29
     b5a:	d53b      	bpl.n	bd4 <_vfprintf_r+0x488>
     b5c:	9b0c      	ldr	r3, [sp, #48]	; 0x30
     b5e:	9a07      	ldr	r2, [sp, #28]
     b60:	1a9d      	subs	r5, r3, r2
     b62:	2d00      	cmp	r5, #0
     b64:	dd36      	ble.n	bd4 <_vfprintf_r+0x488>
     b66:	2d10      	cmp	r5, #16
     b68:	9b24      	ldr	r3, [sp, #144]	; 0x90
     b6a:	dd21      	ble.n	bb0 <_vfprintf_r+0x464>
     b6c:	2610      	movs	r6, #16
     b6e:	9f08      	ldr	r7, [sp, #32]
     b70:	f8dd a028 	ldr.w	sl, [sp, #40]	; 0x28
     b74:	e004      	b.n	b80 <_vfprintf_r+0x434>
     b76:	3d10      	subs	r5, #16
     b78:	2d10      	cmp	r5, #16
     b7a:	f108 0808 	add.w	r8, r8, #8
     b7e:	dd17      	ble.n	bb0 <_vfprintf_r+0x464>
     b80:	3301      	adds	r3, #1
     b82:	4a5c      	ldr	r2, [pc, #368]	; (cf4 <_vfprintf_r+0x5a8>)
     b84:	9324      	str	r3, [sp, #144]	; 0x90
     b86:	3410      	adds	r4, #16
     b88:	2b07      	cmp	r3, #7
     b8a:	9425      	str	r4, [sp, #148]	; 0x94
     b8c:	e888 0044 	stmia.w	r8, {r2, r6}
     b90:	ddf1      	ble.n	b76 <_vfprintf_r+0x42a>
     b92:	aa23      	add	r2, sp, #140	; 0x8c
     b94:	4651      	mov	r1, sl
     b96:	4638      	mov	r0, r7
     b98:	f003 fbe0 	bl	435c <__sprint_r>
     b9c:	2800      	cmp	r0, #0
     b9e:	f040 823f 	bne.w	1020 <_vfprintf_r+0x8d4>
     ba2:	3d10      	subs	r5, #16
     ba4:	2d10      	cmp	r5, #16
     ba6:	9c25      	ldr	r4, [sp, #148]	; 0x94
     ba8:	9b24      	ldr	r3, [sp, #144]	; 0x90
     baa:	f10d 08c0 	add.w	r8, sp, #192	; 0xc0
     bae:	dce7      	bgt.n	b80 <_vfprintf_r+0x434>
     bb0:	3301      	adds	r3, #1
     bb2:	4a50      	ldr	r2, [pc, #320]	; (cf4 <_vfprintf_r+0x5a8>)
     bb4:	9324      	str	r3, [sp, #144]	; 0x90
     bb6:	442c      	add	r4, r5
     bb8:	2b07      	cmp	r3, #7
     bba:	9425      	str	r4, [sp, #148]	; 0x94
     bbc:	e888 0024 	stmia.w	r8, {r2, r5}
     bc0:	dd08      	ble.n	bd4 <_vfprintf_r+0x488>
     bc2:	aa23      	add	r2, sp, #140	; 0x8c
     bc4:	990a      	ldr	r1, [sp, #40]	; 0x28
     bc6:	9808      	ldr	r0, [sp, #32]
     bc8:	f003 fbc8 	bl	435c <__sprint_r>
     bcc:	2800      	cmp	r0, #0
     bce:	f040 8347 	bne.w	1260 <_vfprintf_r+0xb14>
     bd2:	9c25      	ldr	r4, [sp, #148]	; 0x94
     bd4:	9b0b      	ldr	r3, [sp, #44]	; 0x2c
     bd6:	9a0c      	ldr	r2, [sp, #48]	; 0x30
     bd8:	9907      	ldr	r1, [sp, #28]
     bda:	428a      	cmp	r2, r1
     bdc:	bfac      	ite	ge
     bde:	189b      	addge	r3, r3, r2
     be0:	185b      	addlt	r3, r3, r1
     be2:	930b      	str	r3, [sp, #44]	; 0x2c
     be4:	2c00      	cmp	r4, #0
     be6:	f040 8333 	bne.w	1250 <_vfprintf_r+0xb04>
     bea:	2300      	movs	r3, #0
     bec:	9324      	str	r3, [sp, #144]	; 0x90
     bee:	f10d 08c0 	add.w	r8, sp, #192	; 0xc0
     bf2:	e5f7      	b.n	7e4 <_vfprintf_r+0x98>
     bf4:	4651      	mov	r1, sl
     bf6:	9808      	ldr	r0, [sp, #32]
     bf8:	f001 f896 	bl	1d28 <__swsetup_r>
     bfc:	2800      	cmp	r0, #0
     bfe:	d038      	beq.n	c72 <_vfprintf_r+0x526>
     c00:	f8da 3064 	ldr.w	r3, [sl, #100]	; 0x64
     c04:	07dd      	lsls	r5, r3, #31
     c06:	d404      	bmi.n	c12 <_vfprintf_r+0x4c6>
     c08:	f8ba 300c 	ldrh.w	r3, [sl, #12]
     c0c:	059c      	lsls	r4, r3, #22
     c0e:	f140 85ca 	bpl.w	17a6 <_vfprintf_r+0x105a>
     c12:	f04f 33ff 	mov.w	r3, #4294967295
     c16:	930b      	str	r3, [sp, #44]	; 0x2c
     c18:	980b      	ldr	r0, [sp, #44]	; 0x2c
     c1a:	b041      	add	sp, #260	; 0x104
     c1c:	e8bd 8ff0 	ldmia.w	sp!, {r4, r5, r6, r7, r8, r9, sl, fp, pc}
     c20:	aa23      	add	r2, sp, #140	; 0x8c
     c22:	990a      	ldr	r1, [sp, #40]	; 0x28
     c24:	9808      	ldr	r0, [sp, #32]
     c26:	f003 fb99 	bl	435c <__sprint_r>
     c2a:	2800      	cmp	r0, #0
     c2c:	f040 8318 	bne.w	1260 <_vfprintf_r+0xb14>
     c30:	f10d 08c0 	add.w	r8, sp, #192	; 0xc0
     c34:	e5f5      	b.n	822 <_vfprintf_r+0xd6>
     c36:	9808      	ldr	r0, [sp, #32]
     c38:	f002 f9a0 	bl	2f7c <__sinit>
     c3c:	e59c      	b.n	778 <_vfprintf_r+0x2c>
     c3e:	f9ba 200e 	ldrsh.w	r2, [sl, #14]
     c42:	2a00      	cmp	r2, #0
     c44:	f6ff adbd 	blt.w	7c2 <_vfprintf_r+0x76>
     c48:	f8da 2064 	ldr.w	r2, [sl, #100]	; 0x64
     c4c:	07d0      	lsls	r0, r2, #31
     c4e:	d405      	bmi.n	c5c <_vfprintf_r+0x510>
     c50:	0599      	lsls	r1, r3, #22
     c52:	d403      	bmi.n	c5c <_vfprintf_r+0x510>
     c54:	f8da 0058 	ldr.w	r0, [sl, #88]	; 0x58
     c58:	f002 fb56 	bl	3308 <__retarget_lock_release_recursive>
     c5c:	462b      	mov	r3, r5
     c5e:	464a      	mov	r2, r9
     c60:	4651      	mov	r1, sl
     c62:	9808      	ldr	r0, [sp, #32]
     c64:	f001 f81e 	bl	1ca4 <__sbprintf>
     c68:	900b      	str	r0, [sp, #44]	; 0x2c
     c6a:	980b      	ldr	r0, [sp, #44]	; 0x2c
     c6c:	b041      	add	sp, #260	; 0x104
     c6e:	e8bd 8ff0 	ldmia.w	sp!, {r4, r5, r6, r7, r8, r9, sl, fp, pc}
     c72:	f8ba 300c 	ldrh.w	r3, [sl, #12]
     c76:	e59f      	b.n	7b8 <_vfprintf_r+0x6c>
     c78:	f8da 0058 	ldr.w	r0, [sl, #88]	; 0x58
     c7c:	f002 fb42 	bl	3304 <__retarget_lock_acquire_recursive>
     c80:	f9ba 200c 	ldrsh.w	r2, [sl, #12]
     c84:	b293      	uxth	r3, r2
     c86:	e582      	b.n	78e <_vfprintf_r+0x42>
     c88:	980c      	ldr	r0, [sp, #48]	; 0x30
     c8a:	930e      	str	r3, [sp, #56]	; 0x38
     c8c:	4240      	negs	r0, r0
     c8e:	900c      	str	r0, [sp, #48]	; 0x30
     c90:	f04b 0b04 	orr.w	fp, fp, #4
     c94:	f899 6000 	ldrb.w	r6, [r9]
     c98:	e5d7      	b.n	84a <_vfprintf_r+0xfe>
     c9a:	2a00      	cmp	r2, #0
     c9c:	f040 87df 	bne.w	1c5e <_vfprintf_r+0x1512>
     ca0:	4b16      	ldr	r3, [pc, #88]	; (cfc <_vfprintf_r+0x5b0>)
     ca2:	9318      	str	r3, [sp, #96]	; 0x60
     ca4:	f01b 0f20 	tst.w	fp, #32
     ca8:	f040 84b9 	bne.w	161e <_vfprintf_r+0xed2>
     cac:	9a0e      	ldr	r2, [sp, #56]	; 0x38
     cae:	f01b 0f10 	tst.w	fp, #16
     cb2:	4613      	mov	r3, r2
     cb4:	f040 83dc 	bne.w	1470 <_vfprintf_r+0xd24>
     cb8:	f01b 0f40 	tst.w	fp, #64	; 0x40
     cbc:	f000 83d8 	beq.w	1470 <_vfprintf_r+0xd24>
     cc0:	3304      	adds	r3, #4
     cc2:	8814      	ldrh	r4, [r2, #0]
     cc4:	930e      	str	r3, [sp, #56]	; 0x38
     cc6:	2500      	movs	r5, #0
     cc8:	f01b 0f01 	tst.w	fp, #1
     ccc:	f000 8322 	beq.w	1314 <_vfprintf_r+0xbc8>
     cd0:	ea54 0305 	orrs.w	r3, r4, r5
     cd4:	f000 831e 	beq.w	1314 <_vfprintf_r+0xbc8>
     cd8:	2330      	movs	r3, #48	; 0x30
     cda:	f88d 3070 	strb.w	r3, [sp, #112]	; 0x70
     cde:	f88d 6071 	strb.w	r6, [sp, #113]	; 0x71
     ce2:	f04b 0b02 	orr.w	fp, fp, #2
     ce6:	2302      	movs	r3, #2
     ce8:	e63c      	b.n	964 <_vfprintf_r+0x218>
     cea:	f04b 0b20 	orr.w	fp, fp, #32
     cee:	f899 6000 	ldrb.w	r6, [r9]
     cf2:	e5aa      	b.n	84a <_vfprintf_r+0xfe>
     cf4:	00005c50 	.word	0x00005c50
     cf8:	00005c60 	.word	0x00005c60
     cfc:	00005c30 	.word	0x00005c30
     d00:	9a0e      	ldr	r2, [sp, #56]	; 0x38
     d02:	6817      	ldr	r7, [r2, #0]
     d04:	2400      	movs	r4, #0
     d06:	f88d 406f 	strb.w	r4, [sp, #111]	; 0x6f
     d0a:	1d15      	adds	r5, r2, #4
     d0c:	2f00      	cmp	r7, #0
     d0e:	f000 864e 	beq.w	19ae <_vfprintf_r+0x1262>
     d12:	9a09      	ldr	r2, [sp, #36]	; 0x24
     d14:	1c53      	adds	r3, r2, #1
     d16:	f000 85cc 	beq.w	18b2 <_vfprintf_r+0x1166>
     d1a:	4621      	mov	r1, r4
     d1c:	4638      	mov	r0, r7
     d1e:	f002 fe27 	bl	3970 <memchr>
     d22:	2800      	cmp	r0, #0
     d24:	f000 8697 	beq.w	1a56 <_vfprintf_r+0x130a>
     d28:	1bc3      	subs	r3, r0, r7
     d2a:	930d      	str	r3, [sp, #52]	; 0x34
     d2c:	9409      	str	r4, [sp, #36]	; 0x24
     d2e:	950e      	str	r5, [sp, #56]	; 0x38
     d30:	f8cd b018 	str.w	fp, [sp, #24]
     d34:	ea23 73e3 	bic.w	r3, r3, r3, asr #31
     d38:	9307      	str	r3, [sp, #28]
     d3a:	9410      	str	r4, [sp, #64]	; 0x40
     d3c:	f89d a06f 	ldrb.w	sl, [sp, #111]	; 0x6f
     d40:	e636      	b.n	9b0 <_vfprintf_r+0x264>
     d42:	2a00      	cmp	r2, #0
     d44:	f040 8796 	bne.w	1c74 <_vfprintf_r+0x1528>
     d48:	f01b 0f20 	tst.w	fp, #32
     d4c:	f040 845a 	bne.w	1604 <_vfprintf_r+0xeb8>
     d50:	f01b 0f10 	tst.w	fp, #16
     d54:	f040 83a2 	bne.w	149c <_vfprintf_r+0xd50>
     d58:	f01b 0f40 	tst.w	fp, #64	; 0x40
     d5c:	f000 839e 	beq.w	149c <_vfprintf_r+0xd50>
     d60:	990e      	ldr	r1, [sp, #56]	; 0x38
     d62:	f9b1 4000 	ldrsh.w	r4, [r1]
     d66:	3104      	adds	r1, #4
     d68:	17e5      	asrs	r5, r4, #31
     d6a:	4622      	mov	r2, r4
     d6c:	462b      	mov	r3, r5
     d6e:	910e      	str	r1, [sp, #56]	; 0x38
     d70:	2a00      	cmp	r2, #0
     d72:	f173 0300 	sbcs.w	r3, r3, #0
     d76:	f2c0 8487 	blt.w	1688 <_vfprintf_r+0xf3c>
     d7a:	9909      	ldr	r1, [sp, #36]	; 0x24
     d7c:	f89d a06f 	ldrb.w	sl, [sp, #111]	; 0x6f
     d80:	1c4a      	adds	r2, r1, #1
     d82:	f04f 0301 	mov.w	r3, #1
     d86:	f47f adf5 	bne.w	974 <_vfprintf_r+0x228>
     d8a:	ea54 0205 	orrs.w	r2, r4, r5
     d8e:	f000 826c 	beq.w	126a <_vfprintf_r+0xb1e>
     d92:	f8cd b018 	str.w	fp, [sp, #24]
     d96:	2b01      	cmp	r3, #1
     d98:	f000 8308 	beq.w	13ac <_vfprintf_r+0xc60>
     d9c:	2b02      	cmp	r3, #2
     d9e:	f040 8295 	bne.w	12cc <_vfprintf_r+0xb80>
     da2:	9818      	ldr	r0, [sp, #96]	; 0x60
     da4:	af30      	add	r7, sp, #192	; 0xc0
     da6:	0923      	lsrs	r3, r4, #4
     da8:	f004 010f 	and.w	r1, r4, #15
     dac:	ea43 7305 	orr.w	r3, r3, r5, lsl #28
     db0:	092a      	lsrs	r2, r5, #4
     db2:	461c      	mov	r4, r3
     db4:	4615      	mov	r5, r2
     db6:	5c43      	ldrb	r3, [r0, r1]
     db8:	f807 3d01 	strb.w	r3, [r7, #-1]!
     dbc:	ea54 0305 	orrs.w	r3, r4, r5
     dc0:	d1f1      	bne.n	da6 <_vfprintf_r+0x65a>
     dc2:	ab30      	add	r3, sp, #192	; 0xc0
     dc4:	1bdb      	subs	r3, r3, r7
     dc6:	930d      	str	r3, [sp, #52]	; 0x34
     dc8:	e5ea      	b.n	9a0 <_vfprintf_r+0x254>
     dca:	f04b 0b40 	orr.w	fp, fp, #64	; 0x40
     dce:	f899 6000 	ldrb.w	r6, [r9]
     dd2:	e53a      	b.n	84a <_vfprintf_r+0xfe>
     dd4:	f899 6000 	ldrb.w	r6, [r9]
     dd8:	2e6c      	cmp	r6, #108	; 0x6c
     dda:	bf03      	ittte	eq
     ddc:	f899 6001 	ldrbeq.w	r6, [r9, #1]
     de0:	f04b 0b20 	orreq.w	fp, fp, #32
     de4:	f109 0901 	addeq.w	r9, r9, #1
     de8:	f04b 0b10 	orrne.w	fp, fp, #16
     dec:	e52d      	b.n	84a <_vfprintf_r+0xfe>
     dee:	2a00      	cmp	r2, #0
     df0:	f040 874c 	bne.w	1c8c <_vfprintf_r+0x1540>
     df4:	f01b 0f20 	tst.w	fp, #32
     df8:	f040 853f 	bne.w	187a <_vfprintf_r+0x112e>
     dfc:	f01b 0f10 	tst.w	fp, #16
     e00:	f040 80fc 	bne.w	ffc <_vfprintf_r+0x8b0>
     e04:	f01b 0f40 	tst.w	fp, #64	; 0x40
     e08:	f000 80f8 	beq.w	ffc <_vfprintf_r+0x8b0>
     e0c:	9a0e      	ldr	r2, [sp, #56]	; 0x38
     e0e:	6813      	ldr	r3, [r2, #0]
     e10:	3204      	adds	r2, #4
     e12:	920e      	str	r2, [sp, #56]	; 0x38
     e14:	f8bd 202c 	ldrh.w	r2, [sp, #44]	; 0x2c
     e18:	801a      	strh	r2, [r3, #0]
     e1a:	e4e3      	b.n	7e4 <_vfprintf_r+0x98>
     e1c:	f899 6000 	ldrb.w	r6, [r9]
     e20:	2900      	cmp	r1, #0
     e22:	f47f ad12 	bne.w	84a <_vfprintf_r+0xfe>
     e26:	2201      	movs	r2, #1
     e28:	2120      	movs	r1, #32
     e2a:	e50e      	b.n	84a <_vfprintf_r+0xfe>
     e2c:	f899 6000 	ldrb.w	r6, [r9]
     e30:	2e2a      	cmp	r6, #42	; 0x2a
     e32:	f109 0001 	add.w	r0, r9, #1
     e36:	f000 86f1 	beq.w	1c1c <_vfprintf_r+0x14d0>
     e3a:	f1a6 0330 	sub.w	r3, r6, #48	; 0x30
     e3e:	2b09      	cmp	r3, #9
     e40:	4681      	mov	r9, r0
     e42:	bf98      	it	ls
     e44:	2000      	movls	r0, #0
     e46:	f200 863d 	bhi.w	1ac4 <_vfprintf_r+0x1378>
     e4a:	f819 6b01 	ldrb.w	r6, [r9], #1
     e4e:	eb00 0080 	add.w	r0, r0, r0, lsl #2
     e52:	eb03 0040 	add.w	r0, r3, r0, lsl #1
     e56:	f1a6 0330 	sub.w	r3, r6, #48	; 0x30
     e5a:	2b09      	cmp	r3, #9
     e5c:	d9f5      	bls.n	e4a <_vfprintf_r+0x6fe>
     e5e:	9009      	str	r0, [sp, #36]	; 0x24
     e60:	e4f5      	b.n	84e <_vfprintf_r+0x102>
     e62:	f04b 0b80 	orr.w	fp, fp, #128	; 0x80
     e66:	f899 6000 	ldrb.w	r6, [r9]
     e6a:	e4ee      	b.n	84a <_vfprintf_r+0xfe>
     e6c:	f899 6000 	ldrb.w	r6, [r9]
     e70:	2201      	movs	r2, #1
     e72:	212b      	movs	r1, #43	; 0x2b
     e74:	e4e9      	b.n	84a <_vfprintf_r+0xfe>
     e76:	9a0e      	ldr	r2, [sp, #56]	; 0x38
     e78:	4bae      	ldr	r3, [pc, #696]	; (1134 <_vfprintf_r+0x9e8>)
     e7a:	6814      	ldr	r4, [r2, #0]
     e7c:	9318      	str	r3, [sp, #96]	; 0x60
     e7e:	2678      	movs	r6, #120	; 0x78
     e80:	2330      	movs	r3, #48	; 0x30
     e82:	3204      	adds	r2, #4
     e84:	f88d 3070 	strb.w	r3, [sp, #112]	; 0x70
     e88:	f04b 0b02 	orr.w	fp, fp, #2
     e8c:	920e      	str	r2, [sp, #56]	; 0x38
     e8e:	2500      	movs	r5, #0
     e90:	f88d 6071 	strb.w	r6, [sp, #113]	; 0x71
     e94:	2302      	movs	r3, #2
     e96:	e565      	b.n	964 <_vfprintf_r+0x218>
     e98:	2a00      	cmp	r2, #0
     e9a:	f040 86e4 	bne.w	1c66 <_vfprintf_r+0x151a>
     e9e:	4ba6      	ldr	r3, [pc, #664]	; (1138 <_vfprintf_r+0x9ec>)
     ea0:	9318      	str	r3, [sp, #96]	; 0x60
     ea2:	e6ff      	b.n	ca4 <_vfprintf_r+0x558>
     ea4:	990e      	ldr	r1, [sp, #56]	; 0x38
     ea6:	f8cd b018 	str.w	fp, [sp, #24]
     eaa:	680a      	ldr	r2, [r1, #0]
     eac:	f88d 2098 	strb.w	r2, [sp, #152]	; 0x98
     eb0:	2300      	movs	r3, #0
     eb2:	460a      	mov	r2, r1
     eb4:	469a      	mov	sl, r3
     eb6:	f88d 306f 	strb.w	r3, [sp, #111]	; 0x6f
     eba:	3204      	adds	r2, #4
     ebc:	2301      	movs	r3, #1
     ebe:	9307      	str	r3, [sp, #28]
     ec0:	f8cd a024 	str.w	sl, [sp, #36]	; 0x24
     ec4:	f8cd a040 	str.w	sl, [sp, #64]	; 0x40
     ec8:	920e      	str	r2, [sp, #56]	; 0x38
     eca:	930d      	str	r3, [sp, #52]	; 0x34
     ecc:	af26      	add	r7, sp, #152	; 0x98
     ece:	e575      	b.n	9bc <_vfprintf_r+0x270>
     ed0:	f1a6 0330 	sub.w	r3, r6, #48	; 0x30
     ed4:	2000      	movs	r0, #0
     ed6:	f819 6b01 	ldrb.w	r6, [r9], #1
     eda:	eb00 0080 	add.w	r0, r0, r0, lsl #2
     ede:	eb03 0040 	add.w	r0, r3, r0, lsl #1
     ee2:	f1a6 0330 	sub.w	r3, r6, #48	; 0x30
     ee6:	2b09      	cmp	r3, #9
     ee8:	d9f5      	bls.n	ed6 <_vfprintf_r+0x78a>
     eea:	900c      	str	r0, [sp, #48]	; 0x30
     eec:	e4af      	b.n	84e <_vfprintf_r+0x102>
     eee:	2a00      	cmp	r2, #0
     ef0:	f040 86c8 	bne.w	1c84 <_vfprintf_r+0x1538>
     ef4:	f04b 0b10 	orr.w	fp, fp, #16
     ef8:	e726      	b.n	d48 <_vfprintf_r+0x5fc>
     efa:	f04b 0b01 	orr.w	fp, fp, #1
     efe:	f899 6000 	ldrb.w	r6, [r9]
     f02:	e4a2      	b.n	84a <_vfprintf_r+0xfe>
     f04:	9c0e      	ldr	r4, [sp, #56]	; 0x38
     f06:	6823      	ldr	r3, [r4, #0]
     f08:	930c      	str	r3, [sp, #48]	; 0x30
     f0a:	4618      	mov	r0, r3
     f0c:	2800      	cmp	r0, #0
     f0e:	4623      	mov	r3, r4
     f10:	f103 0304 	add.w	r3, r3, #4
     f14:	f6ff aeb8 	blt.w	c88 <_vfprintf_r+0x53c>
     f18:	930e      	str	r3, [sp, #56]	; 0x38
     f1a:	f899 6000 	ldrb.w	r6, [r9]
     f1e:	e494      	b.n	84a <_vfprintf_r+0xfe>
     f20:	2a00      	cmp	r2, #0
     f22:	f040 86b7 	bne.w	1c94 <_vfprintf_r+0x1548>
     f26:	9d0e      	ldr	r5, [sp, #56]	; 0x38
     f28:	3507      	adds	r5, #7
     f2a:	f025 0307 	bic.w	r3, r5, #7
     f2e:	f103 0208 	add.w	r2, r3, #8
     f32:	920e      	str	r2, [sp, #56]	; 0x38
     f34:	681a      	ldr	r2, [r3, #0]
     f36:	9213      	str	r2, [sp, #76]	; 0x4c
     f38:	685b      	ldr	r3, [r3, #4]
     f3a:	9312      	str	r3, [sp, #72]	; 0x48
     f3c:	9b12      	ldr	r3, [sp, #72]	; 0x48
     f3e:	9d13      	ldr	r5, [sp, #76]	; 0x4c
     f40:	f023 4400 	bic.w	r4, r3, #2147483648	; 0x80000000
     f44:	4628      	mov	r0, r5
     f46:	4621      	mov	r1, r4
     f48:	f04f 32ff 	mov.w	r2, #4294967295
     f4c:	4b7b      	ldr	r3, [pc, #492]	; (113c <_vfprintf_r+0x9f0>)
     f4e:	f004 fc89 	bl	5864 <__aeabi_dcmpun>
     f52:	2800      	cmp	r0, #0
     f54:	f040 83a2 	bne.w	169c <_vfprintf_r+0xf50>
     f58:	4628      	mov	r0, r5
     f5a:	4621      	mov	r1, r4
     f5c:	f04f 32ff 	mov.w	r2, #4294967295
     f60:	4b76      	ldr	r3, [pc, #472]	; (113c <_vfprintf_r+0x9f0>)
     f62:	f004 fc61 	bl	5828 <__aeabi_dcmple>
     f66:	2800      	cmp	r0, #0
     f68:	f040 8398 	bne.w	169c <_vfprintf_r+0xf50>
     f6c:	9a16      	ldr	r2, [sp, #88]	; 0x58
     f6e:	9813      	ldr	r0, [sp, #76]	; 0x4c
     f70:	9b17      	ldr	r3, [sp, #92]	; 0x5c
     f72:	9912      	ldr	r1, [sp, #72]	; 0x48
     f74:	f004 fc4e 	bl	5814 <__aeabi_dcmplt>
     f78:	2800      	cmp	r0, #0
     f7a:	f040 8435 	bne.w	17e8 <_vfprintf_r+0x109c>
     f7e:	f89d a06f 	ldrb.w	sl, [sp, #111]	; 0x6f
     f82:	4f6f      	ldr	r7, [pc, #444]	; (1140 <_vfprintf_r+0x9f4>)
     f84:	4b6f      	ldr	r3, [pc, #444]	; (1144 <_vfprintf_r+0x9f8>)
     f86:	2203      	movs	r2, #3
     f88:	2100      	movs	r1, #0
     f8a:	f02b 0080 	bic.w	r0, fp, #128	; 0x80
     f8e:	9207      	str	r2, [sp, #28]
     f90:	9109      	str	r1, [sp, #36]	; 0x24
     f92:	9006      	str	r0, [sp, #24]
     f94:	2e47      	cmp	r6, #71	; 0x47
     f96:	bfd8      	it	le
     f98:	461f      	movle	r7, r3
     f9a:	920d      	str	r2, [sp, #52]	; 0x34
     f9c:	9110      	str	r1, [sp, #64]	; 0x40
     f9e:	e507      	b.n	9b0 <_vfprintf_r+0x264>
     fa0:	f04b 0b08 	orr.w	fp, fp, #8
     fa4:	f899 6000 	ldrb.w	r6, [r9]
     fa8:	e44f      	b.n	84a <_vfprintf_r+0xfe>
     faa:	9d0e      	ldr	r5, [sp, #56]	; 0x38
     fac:	3507      	adds	r5, #7
     fae:	f025 0307 	bic.w	r3, r5, #7
     fb2:	f103 0208 	add.w	r2, r3, #8
     fb6:	e9d3 4500 	ldrd	r4, r5, [r3]
     fba:	920e      	str	r2, [sp, #56]	; 0x38
     fbc:	2300      	movs	r3, #0
     fbe:	e4d1      	b.n	964 <_vfprintf_r+0x218>
     fc0:	9d0e      	ldr	r5, [sp, #56]	; 0x38
     fc2:	3507      	adds	r5, #7
     fc4:	f025 0307 	bic.w	r3, r5, #7
     fc8:	f103 0208 	add.w	r2, r3, #8
     fcc:	e9d3 4500 	ldrd	r4, r5, [r3]
     fd0:	920e      	str	r2, [sp, #56]	; 0x38
     fd2:	2301      	movs	r3, #1
     fd4:	e4c6      	b.n	964 <_vfprintf_r+0x218>
     fd6:	2a00      	cmp	r2, #0
     fd8:	f040 8650 	bne.w	1c7c <_vfprintf_r+0x1530>
     fdc:	b1c6      	cbz	r6, 1010 <_vfprintf_r+0x8c4>
     fde:	2300      	movs	r3, #0
     fe0:	2201      	movs	r2, #1
     fe2:	469a      	mov	sl, r3
     fe4:	9207      	str	r2, [sp, #28]
     fe6:	f88d 6098 	strb.w	r6, [sp, #152]	; 0x98
     fea:	f8cd b018 	str.w	fp, [sp, #24]
     fee:	f88d 306f 	strb.w	r3, [sp, #111]	; 0x6f
     ff2:	9309      	str	r3, [sp, #36]	; 0x24
     ff4:	9310      	str	r3, [sp, #64]	; 0x40
     ff6:	920d      	str	r2, [sp, #52]	; 0x34
     ff8:	af26      	add	r7, sp, #152	; 0x98
     ffa:	e4df      	b.n	9bc <_vfprintf_r+0x270>
     ffc:	9a0e      	ldr	r2, [sp, #56]	; 0x38
     ffe:	6813      	ldr	r3, [r2, #0]
    1000:	3204      	adds	r2, #4
    1002:	920e      	str	r2, [sp, #56]	; 0x38
    1004:	9a0b      	ldr	r2, [sp, #44]	; 0x2c
    1006:	601a      	str	r2, [r3, #0]
    1008:	f7ff bbec 	b.w	7e4 <_vfprintf_r+0x98>
    100c:	9c25      	ldr	r4, [sp, #148]	; 0x94
    100e:	e527      	b.n	a60 <_vfprintf_r+0x314>
    1010:	9b25      	ldr	r3, [sp, #148]	; 0x94
    1012:	f8dd a028 	ldr.w	sl, [sp, #40]	; 0x28
    1016:	2b00      	cmp	r3, #0
    1018:	f040 8594 	bne.w	1b44 <_vfprintf_r+0x13f8>
    101c:	2300      	movs	r3, #0
    101e:	9324      	str	r3, [sp, #144]	; 0x90
    1020:	f8da 3064 	ldr.w	r3, [sl, #100]	; 0x64
    1024:	f013 0f01 	tst.w	r3, #1
    1028:	f8ba 300c 	ldrh.w	r3, [sl, #12]
    102c:	d102      	bne.n	1034 <_vfprintf_r+0x8e8>
    102e:	059a      	lsls	r2, r3, #22
    1030:	f140 8249 	bpl.w	14c6 <_vfprintf_r+0xd7a>
    1034:	065b      	lsls	r3, r3, #25
    1036:	f53f adec 	bmi.w	c12 <_vfprintf_r+0x4c6>
    103a:	980b      	ldr	r0, [sp, #44]	; 0x2c
    103c:	b041      	add	sp, #260	; 0x104
    103e:	e8bd 8ff0 	ldmia.w	sp!, {r4, r5, r6, r7, r8, r9, sl, fp, pc}
    1042:	2e65      	cmp	r6, #101	; 0x65
    1044:	f340 80b2 	ble.w	11ac <_vfprintf_r+0xa60>
    1048:	9a16      	ldr	r2, [sp, #88]	; 0x58
    104a:	9813      	ldr	r0, [sp, #76]	; 0x4c
    104c:	9b17      	ldr	r3, [sp, #92]	; 0x5c
    104e:	9912      	ldr	r1, [sp, #72]	; 0x48
    1050:	f004 fbd6 	bl	5800 <__aeabi_dcmpeq>
    1054:	2800      	cmp	r0, #0
    1056:	f000 8160 	beq.w	131a <_vfprintf_r+0xbce>
    105a:	9b24      	ldr	r3, [sp, #144]	; 0x90
    105c:	4a3a      	ldr	r2, [pc, #232]	; (1148 <_vfprintf_r+0x9fc>)
    105e:	f8c8 2000 	str.w	r2, [r8]
    1062:	3301      	adds	r3, #1
    1064:	3401      	adds	r4, #1
    1066:	2201      	movs	r2, #1
    1068:	2b07      	cmp	r3, #7
    106a:	9425      	str	r4, [sp, #148]	; 0x94
    106c:	9324      	str	r3, [sp, #144]	; 0x90
    106e:	f8c8 2004 	str.w	r2, [r8, #4]
    1072:	f300 83bf 	bgt.w	17f4 <_vfprintf_r+0x10a8>
    1076:	f108 0808 	add.w	r8, r8, #8
    107a:	9b1d      	ldr	r3, [sp, #116]	; 0x74
    107c:	9a11      	ldr	r2, [sp, #68]	; 0x44
    107e:	9c25      	ldr	r4, [sp, #148]	; 0x94
    1080:	4293      	cmp	r3, r2
    1082:	db03      	blt.n	108c <_vfprintf_r+0x940>
    1084:	9b06      	ldr	r3, [sp, #24]
    1086:	07df      	lsls	r7, r3, #31
    1088:	f57f ad65 	bpl.w	b56 <_vfprintf_r+0x40a>
    108c:	9b24      	ldr	r3, [sp, #144]	; 0x90
    108e:	9914      	ldr	r1, [sp, #80]	; 0x50
    1090:	9a15      	ldr	r2, [sp, #84]	; 0x54
    1092:	f8c8 2000 	str.w	r2, [r8]
    1096:	3301      	adds	r3, #1
    1098:	440c      	add	r4, r1
    109a:	2b07      	cmp	r3, #7
    109c:	f8c8 1004 	str.w	r1, [r8, #4]
    10a0:	9425      	str	r4, [sp, #148]	; 0x94
    10a2:	9324      	str	r3, [sp, #144]	; 0x90
    10a4:	f300 83f8 	bgt.w	1898 <_vfprintf_r+0x114c>
    10a8:	f108 0808 	add.w	r8, r8, #8
    10ac:	9b11      	ldr	r3, [sp, #68]	; 0x44
    10ae:	1e5e      	subs	r6, r3, #1
    10b0:	2e00      	cmp	r6, #0
    10b2:	f77f ad50 	ble.w	b56 <_vfprintf_r+0x40a>
    10b6:	2e10      	cmp	r6, #16
    10b8:	9b24      	ldr	r3, [sp, #144]	; 0x90
    10ba:	4d24      	ldr	r5, [pc, #144]	; (114c <_vfprintf_r+0xa00>)
    10bc:	f340 81dd 	ble.w	147a <_vfprintf_r+0xd2e>
    10c0:	2710      	movs	r7, #16
    10c2:	f8dd a020 	ldr.w	sl, [sp, #32]
    10c6:	f8dd b028 	ldr.w	fp, [sp, #40]	; 0x28
    10ca:	e005      	b.n	10d8 <_vfprintf_r+0x98c>
    10cc:	f108 0808 	add.w	r8, r8, #8
    10d0:	3e10      	subs	r6, #16
    10d2:	2e10      	cmp	r6, #16
    10d4:	f340 81d1 	ble.w	147a <_vfprintf_r+0xd2e>
    10d8:	3301      	adds	r3, #1
    10da:	3410      	adds	r4, #16
    10dc:	2b07      	cmp	r3, #7
    10de:	9425      	str	r4, [sp, #148]	; 0x94
    10e0:	9324      	str	r3, [sp, #144]	; 0x90
    10e2:	e888 00a0 	stmia.w	r8, {r5, r7}
    10e6:	ddf1      	ble.n	10cc <_vfprintf_r+0x980>
    10e8:	aa23      	add	r2, sp, #140	; 0x8c
    10ea:	4659      	mov	r1, fp
    10ec:	4650      	mov	r0, sl
    10ee:	f003 f935 	bl	435c <__sprint_r>
    10f2:	2800      	cmp	r0, #0
    10f4:	f040 83cd 	bne.w	1892 <_vfprintf_r+0x1146>
    10f8:	9c25      	ldr	r4, [sp, #148]	; 0x94
    10fa:	9b24      	ldr	r3, [sp, #144]	; 0x90
    10fc:	f10d 08c0 	add.w	r8, sp, #192	; 0xc0
    1100:	e7e6      	b.n	10d0 <_vfprintf_r+0x984>
    1102:	46aa      	mov	sl, r5
    1104:	e78c      	b.n	1020 <_vfprintf_r+0x8d4>
    1106:	9b0c      	ldr	r3, [sp, #48]	; 0x30
    1108:	9a07      	ldr	r2, [sp, #28]
    110a:	eba3 0a02 	sub.w	sl, r3, r2
    110e:	f1ba 0f00 	cmp.w	sl, #0
    1112:	f77f acca 	ble.w	aaa <_vfprintf_r+0x35e>
    1116:	f1ba 0f10 	cmp.w	sl, #16
    111a:	9b24      	ldr	r3, [sp, #144]	; 0x90
    111c:	4d0b      	ldr	r5, [pc, #44]	; (114c <_vfprintf_r+0xa00>)
    111e:	dd39      	ble.n	1194 <_vfprintf_r+0xa48>
    1120:	4642      	mov	r2, r8
    1122:	4621      	mov	r1, r4
    1124:	46b0      	mov	r8, r6
    1126:	f04f 0b10 	mov.w	fp, #16
    112a:	462e      	mov	r6, r5
    112c:	9c08      	ldr	r4, [sp, #32]
    112e:	9d0a      	ldr	r5, [sp, #40]	; 0x28
    1130:	e015      	b.n	115e <_vfprintf_r+0xa12>
    1132:	bf00      	nop
    1134:	00005c30 	.word	0x00005c30
    1138:	00005c1c 	.word	0x00005c1c
    113c:	7fefffff 	.word	0x7fefffff
    1140:	00005c10 	.word	0x00005c10
    1144:	00005c0c 	.word	0x00005c0c
    1148:	00005c4c 	.word	0x00005c4c
    114c:	00005c60 	.word	0x00005c60
    1150:	f1aa 0a10 	sub.w	sl, sl, #16
    1154:	f1ba 0f10 	cmp.w	sl, #16
    1158:	f102 0208 	add.w	r2, r2, #8
    115c:	dd16      	ble.n	118c <_vfprintf_r+0xa40>
    115e:	3301      	adds	r3, #1
    1160:	3110      	adds	r1, #16
    1162:	2b07      	cmp	r3, #7
    1164:	9125      	str	r1, [sp, #148]	; 0x94
    1166:	9324      	str	r3, [sp, #144]	; 0x90
    1168:	e882 0840 	stmia.w	r2, {r6, fp}
    116c:	ddf0      	ble.n	1150 <_vfprintf_r+0xa04>
    116e:	aa23      	add	r2, sp, #140	; 0x8c
    1170:	4629      	mov	r1, r5
    1172:	4620      	mov	r0, r4
    1174:	f003 f8f2 	bl	435c <__sprint_r>
    1178:	2800      	cmp	r0, #0
    117a:	d1c2      	bne.n	1102 <_vfprintf_r+0x9b6>
    117c:	f1aa 0a10 	sub.w	sl, sl, #16
    1180:	f1ba 0f10 	cmp.w	sl, #16
    1184:	9925      	ldr	r1, [sp, #148]	; 0x94
    1186:	9b24      	ldr	r3, [sp, #144]	; 0x90
    1188:	aa30      	add	r2, sp, #192	; 0xc0
    118a:	dce8      	bgt.n	115e <_vfprintf_r+0xa12>
    118c:	4635      	mov	r5, r6
    118e:	460c      	mov	r4, r1
    1190:	4646      	mov	r6, r8
    1192:	4690      	mov	r8, r2
    1194:	3301      	adds	r3, #1
    1196:	4454      	add	r4, sl
    1198:	2b07      	cmp	r3, #7
    119a:	9425      	str	r4, [sp, #148]	; 0x94
    119c:	9324      	str	r3, [sp, #144]	; 0x90
    119e:	e888 0420 	stmia.w	r8, {r5, sl}
    11a2:	f300 8264 	bgt.w	166e <_vfprintf_r+0xf22>
    11a6:	f108 0808 	add.w	r8, r8, #8
    11aa:	e47e      	b.n	aaa <_vfprintf_r+0x35e>
    11ac:	9b11      	ldr	r3, [sp, #68]	; 0x44
    11ae:	9e24      	ldr	r6, [sp, #144]	; 0x90
    11b0:	2b01      	cmp	r3, #1
    11b2:	f340 81fd 	ble.w	15b0 <_vfprintf_r+0xe64>
    11b6:	3601      	adds	r6, #1
    11b8:	3401      	adds	r4, #1
    11ba:	2301      	movs	r3, #1
    11bc:	2e07      	cmp	r6, #7
    11be:	9425      	str	r4, [sp, #148]	; 0x94
    11c0:	9624      	str	r6, [sp, #144]	; 0x90
    11c2:	f8c8 7000 	str.w	r7, [r8]
    11c6:	f8c8 3004 	str.w	r3, [r8, #4]
    11ca:	f300 820e 	bgt.w	15ea <_vfprintf_r+0xe9e>
    11ce:	f108 0808 	add.w	r8, r8, #8
    11d2:	9a14      	ldr	r2, [sp, #80]	; 0x50
    11d4:	9b15      	ldr	r3, [sp, #84]	; 0x54
    11d6:	f8c8 3000 	str.w	r3, [r8]
    11da:	3601      	adds	r6, #1
    11dc:	4414      	add	r4, r2
    11de:	2e07      	cmp	r6, #7
    11e0:	9425      	str	r4, [sp, #148]	; 0x94
    11e2:	9624      	str	r6, [sp, #144]	; 0x90
    11e4:	f8c8 2004 	str.w	r2, [r8, #4]
    11e8:	f300 822e 	bgt.w	1648 <_vfprintf_r+0xefc>
    11ec:	f108 0808 	add.w	r8, r8, #8
    11f0:	9b17      	ldr	r3, [sp, #92]	; 0x5c
    11f2:	9a16      	ldr	r2, [sp, #88]	; 0x58
    11f4:	9813      	ldr	r0, [sp, #76]	; 0x4c
    11f6:	9912      	ldr	r1, [sp, #72]	; 0x48
    11f8:	f004 fb02 	bl	5800 <__aeabi_dcmpeq>
    11fc:	9b11      	ldr	r3, [sp, #68]	; 0x44
    11fe:	2800      	cmp	r0, #0
    1200:	f040 8106 	bne.w	1410 <_vfprintf_r+0xcc4>
    1204:	3b01      	subs	r3, #1
    1206:	3601      	adds	r6, #1
    1208:	3701      	adds	r7, #1
    120a:	441c      	add	r4, r3
    120c:	2e07      	cmp	r6, #7
    120e:	9624      	str	r6, [sp, #144]	; 0x90
    1210:	9425      	str	r4, [sp, #148]	; 0x94
    1212:	f8c8 7000 	str.w	r7, [r8]
    1216:	f8c8 3004 	str.w	r3, [r8, #4]
    121a:	f300 81d9 	bgt.w	15d0 <_vfprintf_r+0xe84>
    121e:	f108 0808 	add.w	r8, r8, #8
    1222:	9a19      	ldr	r2, [sp, #100]	; 0x64
    1224:	f8c8 2004 	str.w	r2, [r8, #4]
    1228:	3601      	adds	r6, #1
    122a:	4414      	add	r4, r2
    122c:	ab1f      	add	r3, sp, #124	; 0x7c
    122e:	2e07      	cmp	r6, #7
    1230:	9425      	str	r4, [sp, #148]	; 0x94
    1232:	9624      	str	r6, [sp, #144]	; 0x90
    1234:	f8c8 3000 	str.w	r3, [r8]
    1238:	f77f ac8b 	ble.w	b52 <_vfprintf_r+0x406>
    123c:	aa23      	add	r2, sp, #140	; 0x8c
    123e:	990a      	ldr	r1, [sp, #40]	; 0x28
    1240:	9808      	ldr	r0, [sp, #32]
    1242:	f003 f88b 	bl	435c <__sprint_r>
    1246:	b958      	cbnz	r0, 1260 <_vfprintf_r+0xb14>
    1248:	9c25      	ldr	r4, [sp, #148]	; 0x94
    124a:	f10d 08c0 	add.w	r8, sp, #192	; 0xc0
    124e:	e482      	b.n	b56 <_vfprintf_r+0x40a>
    1250:	aa23      	add	r2, sp, #140	; 0x8c
    1252:	990a      	ldr	r1, [sp, #40]	; 0x28
    1254:	9808      	ldr	r0, [sp, #32]
    1256:	f003 f881 	bl	435c <__sprint_r>
    125a:	2800      	cmp	r0, #0
    125c:	f43f acc5 	beq.w	bea <_vfprintf_r+0x49e>
    1260:	f8dd a028 	ldr.w	sl, [sp, #40]	; 0x28
    1264:	e6dc      	b.n	1020 <_vfprintf_r+0x8d4>
    1266:	f8dd b018 	ldr.w	fp, [sp, #24]
    126a:	2b01      	cmp	r3, #1
    126c:	f000 8121 	beq.w	14b2 <_vfprintf_r+0xd66>
    1270:	2b02      	cmp	r3, #2
    1272:	d127      	bne.n	12c4 <_vfprintf_r+0xb78>
    1274:	f8cd b018 	str.w	fp, [sp, #24]
    1278:	2400      	movs	r4, #0
    127a:	2500      	movs	r5, #0
    127c:	e591      	b.n	da2 <_vfprintf_r+0x656>
    127e:	aa23      	add	r2, sp, #140	; 0x8c
    1280:	990a      	ldr	r1, [sp, #40]	; 0x28
    1282:	9808      	ldr	r0, [sp, #32]
    1284:	f003 f86a 	bl	435c <__sprint_r>
    1288:	2800      	cmp	r0, #0
    128a:	d1e9      	bne.n	1260 <_vfprintf_r+0xb14>
    128c:	9c25      	ldr	r4, [sp, #148]	; 0x94
    128e:	f10d 08c0 	add.w	r8, sp, #192	; 0xc0
    1292:	e44d      	b.n	b30 <_vfprintf_r+0x3e4>
    1294:	aa23      	add	r2, sp, #140	; 0x8c
    1296:	990a      	ldr	r1, [sp, #40]	; 0x28
    1298:	9808      	ldr	r0, [sp, #32]
    129a:	f003 f85f 	bl	435c <__sprint_r>
    129e:	2800      	cmp	r0, #0
    12a0:	d1de      	bne.n	1260 <_vfprintf_r+0xb14>
    12a2:	9c25      	ldr	r4, [sp, #148]	; 0x94
    12a4:	f10d 08c0 	add.w	r8, sp, #192	; 0xc0
    12a8:	f7ff bbec 	b.w	a84 <_vfprintf_r+0x338>
    12ac:	aa23      	add	r2, sp, #140	; 0x8c
    12ae:	990a      	ldr	r1, [sp, #40]	; 0x28
    12b0:	9808      	ldr	r0, [sp, #32]
    12b2:	f003 f853 	bl	435c <__sprint_r>
    12b6:	2800      	cmp	r0, #0
    12b8:	d1d2      	bne.n	1260 <_vfprintf_r+0xb14>
    12ba:	9c25      	ldr	r4, [sp, #148]	; 0x94
    12bc:	f10d 08c0 	add.w	r8, sp, #192	; 0xc0
    12c0:	f7ff bbf0 	b.w	aa4 <_vfprintf_r+0x358>
    12c4:	f8cd b018 	str.w	fp, [sp, #24]
    12c8:	2400      	movs	r4, #0
    12ca:	2500      	movs	r5, #0
    12cc:	a930      	add	r1, sp, #192	; 0xc0
    12ce:	e000      	b.n	12d2 <_vfprintf_r+0xb86>
    12d0:	4639      	mov	r1, r7
    12d2:	08e2      	lsrs	r2, r4, #3
    12d4:	ea42 7245 	orr.w	r2, r2, r5, lsl #29
    12d8:	08e8      	lsrs	r0, r5, #3
    12da:	f004 0307 	and.w	r3, r4, #7
    12de:	4605      	mov	r5, r0
    12e0:	4614      	mov	r4, r2
    12e2:	3330      	adds	r3, #48	; 0x30
    12e4:	ea54 0205 	orrs.w	r2, r4, r5
    12e8:	f801 3c01 	strb.w	r3, [r1, #-1]
    12ec:	f101 37ff 	add.w	r7, r1, #4294967295
    12f0:	d1ee      	bne.n	12d0 <_vfprintf_r+0xb84>
    12f2:	9a06      	ldr	r2, [sp, #24]
    12f4:	07d2      	lsls	r2, r2, #31
    12f6:	f57f ad64 	bpl.w	dc2 <_vfprintf_r+0x676>
    12fa:	2b30      	cmp	r3, #48	; 0x30
    12fc:	f43f ad61 	beq.w	dc2 <_vfprintf_r+0x676>
    1300:	2330      	movs	r3, #48	; 0x30
    1302:	3902      	subs	r1, #2
    1304:	f807 3c01 	strb.w	r3, [r7, #-1]
    1308:	ab30      	add	r3, sp, #192	; 0xc0
    130a:	1a5b      	subs	r3, r3, r1
    130c:	930d      	str	r3, [sp, #52]	; 0x34
    130e:	460f      	mov	r7, r1
    1310:	f7ff bb46 	b.w	9a0 <_vfprintf_r+0x254>
    1314:	2302      	movs	r3, #2
    1316:	f7ff bb25 	b.w	964 <_vfprintf_r+0x218>
    131a:	991d      	ldr	r1, [sp, #116]	; 0x74
    131c:	2900      	cmp	r1, #0
    131e:	f340 8274 	ble.w	180a <_vfprintf_r+0x10be>
    1322:	9b10      	ldr	r3, [sp, #64]	; 0x40
    1324:	9a11      	ldr	r2, [sp, #68]	; 0x44
    1326:	4293      	cmp	r3, r2
    1328:	bfa8      	it	ge
    132a:	4613      	movge	r3, r2
    132c:	2b00      	cmp	r3, #0
    132e:	461e      	mov	r6, r3
    1330:	dd0d      	ble.n	134e <_vfprintf_r+0xc02>
    1332:	9b24      	ldr	r3, [sp, #144]	; 0x90
    1334:	f8c8 7000 	str.w	r7, [r8]
    1338:	3301      	adds	r3, #1
    133a:	4434      	add	r4, r6
    133c:	2b07      	cmp	r3, #7
    133e:	9425      	str	r4, [sp, #148]	; 0x94
    1340:	f8c8 6004 	str.w	r6, [r8, #4]
    1344:	9324      	str	r3, [sp, #144]	; 0x90
    1346:	f300 8324 	bgt.w	1992 <_vfprintf_r+0x1246>
    134a:	f108 0808 	add.w	r8, r8, #8
    134e:	9b10      	ldr	r3, [sp, #64]	; 0x40
    1350:	2e00      	cmp	r6, #0
    1352:	bfa8      	it	ge
    1354:	1b9b      	subge	r3, r3, r6
    1356:	2b00      	cmp	r3, #0
    1358:	461e      	mov	r6, r3
    135a:	f340 80d0 	ble.w	14fe <_vfprintf_r+0xdb2>
    135e:	2e10      	cmp	r6, #16
    1360:	9b24      	ldr	r3, [sp, #144]	; 0x90
    1362:	4dc0      	ldr	r5, [pc, #768]	; (1664 <_vfprintf_r+0xf18>)
    1364:	f340 80b7 	ble.w	14d6 <_vfprintf_r+0xd8a>
    1368:	4622      	mov	r2, r4
    136a:	f04f 0a10 	mov.w	sl, #16
    136e:	f8dd b020 	ldr.w	fp, [sp, #32]
    1372:	9c0a      	ldr	r4, [sp, #40]	; 0x28
    1374:	e005      	b.n	1382 <_vfprintf_r+0xc36>
    1376:	f108 0808 	add.w	r8, r8, #8
    137a:	3e10      	subs	r6, #16
    137c:	2e10      	cmp	r6, #16
    137e:	f340 80a9 	ble.w	14d4 <_vfprintf_r+0xd88>
    1382:	3301      	adds	r3, #1
    1384:	3210      	adds	r2, #16
    1386:	2b07      	cmp	r3, #7
    1388:	9225      	str	r2, [sp, #148]	; 0x94
    138a:	9324      	str	r3, [sp, #144]	; 0x90
    138c:	e888 0420 	stmia.w	r8, {r5, sl}
    1390:	ddf1      	ble.n	1376 <_vfprintf_r+0xc2a>
    1392:	aa23      	add	r2, sp, #140	; 0x8c
    1394:	4621      	mov	r1, r4
    1396:	4658      	mov	r0, fp
    1398:	f002 ffe0 	bl	435c <__sprint_r>
    139c:	2800      	cmp	r0, #0
    139e:	f040 8324 	bne.w	19ea <_vfprintf_r+0x129e>
    13a2:	9a25      	ldr	r2, [sp, #148]	; 0x94
    13a4:	9b24      	ldr	r3, [sp, #144]	; 0x90
    13a6:	f10d 08c0 	add.w	r8, sp, #192	; 0xc0
    13aa:	e7e6      	b.n	137a <_vfprintf_r+0xc2e>
    13ac:	2d00      	cmp	r5, #0
    13ae:	bf08      	it	eq
    13b0:	2c0a      	cmpeq	r4, #10
    13b2:	d37c      	bcc.n	14ae <_vfprintf_r+0xd62>
    13b4:	af30      	add	r7, sp, #192	; 0xc0
    13b6:	4620      	mov	r0, r4
    13b8:	4629      	mov	r1, r5
    13ba:	220a      	movs	r2, #10
    13bc:	2300      	movs	r3, #0
    13be:	f004 fa8f 	bl	58e0 <__aeabi_uldivmod>
    13c2:	3230      	adds	r2, #48	; 0x30
    13c4:	f807 2d01 	strb.w	r2, [r7, #-1]!
    13c8:	4620      	mov	r0, r4
    13ca:	4629      	mov	r1, r5
    13cc:	2300      	movs	r3, #0
    13ce:	220a      	movs	r2, #10
    13d0:	f004 fa86 	bl	58e0 <__aeabi_uldivmod>
    13d4:	4604      	mov	r4, r0
    13d6:	460d      	mov	r5, r1
    13d8:	ea54 0305 	orrs.w	r3, r4, r5
    13dc:	d1eb      	bne.n	13b6 <_vfprintf_r+0xc6a>
    13de:	ab30      	add	r3, sp, #192	; 0xc0
    13e0:	1bdb      	subs	r3, r3, r7
    13e2:	930d      	str	r3, [sp, #52]	; 0x34
    13e4:	f7ff badc 	b.w	9a0 <_vfprintf_r+0x254>
    13e8:	9b09      	ldr	r3, [sp, #36]	; 0x24
    13ea:	930d      	str	r3, [sp, #52]	; 0x34
    13ec:	af30      	add	r7, sp, #192	; 0xc0
    13ee:	f7ff bad7 	b.w	9a0 <_vfprintf_r+0x254>
    13f2:	aa23      	add	r2, sp, #140	; 0x8c
    13f4:	990a      	ldr	r1, [sp, #40]	; 0x28
    13f6:	9808      	ldr	r0, [sp, #32]
    13f8:	f002 ffb0 	bl	435c <__sprint_r>
    13fc:	2800      	cmp	r0, #0
    13fe:	f47f af2f 	bne.w	1260 <_vfprintf_r+0xb14>
    1402:	f89d a06f 	ldrb.w	sl, [sp, #111]	; 0x6f
    1406:	9c25      	ldr	r4, [sp, #148]	; 0x94
    1408:	f10d 08c0 	add.w	r8, sp, #192	; 0xc0
    140c:	f7ff bb28 	b.w	a60 <_vfprintf_r+0x314>
    1410:	1e5f      	subs	r7, r3, #1
    1412:	2f00      	cmp	r7, #0
    1414:	f77f af05 	ble.w	1222 <_vfprintf_r+0xad6>
    1418:	2f10      	cmp	r7, #16
    141a:	4d92      	ldr	r5, [pc, #584]	; (1664 <_vfprintf_r+0xf18>)
    141c:	f340 810a 	ble.w	1634 <_vfprintf_r+0xee8>
    1420:	f04f 0a10 	mov.w	sl, #16
    1424:	f8dd b020 	ldr.w	fp, [sp, #32]
    1428:	e005      	b.n	1436 <_vfprintf_r+0xcea>
    142a:	f108 0808 	add.w	r8, r8, #8
    142e:	3f10      	subs	r7, #16
    1430:	2f10      	cmp	r7, #16
    1432:	f340 80ff 	ble.w	1634 <_vfprintf_r+0xee8>
    1436:	3601      	adds	r6, #1
    1438:	3410      	adds	r4, #16
    143a:	2e07      	cmp	r6, #7
    143c:	9425      	str	r4, [sp, #148]	; 0x94
    143e:	9624      	str	r6, [sp, #144]	; 0x90
    1440:	e888 0420 	stmia.w	r8, {r5, sl}
    1444:	ddf1      	ble.n	142a <_vfprintf_r+0xcde>
    1446:	aa23      	add	r2, sp, #140	; 0x8c
    1448:	990a      	ldr	r1, [sp, #40]	; 0x28
    144a:	4658      	mov	r0, fp
    144c:	f002 ff86 	bl	435c <__sprint_r>
    1450:	2800      	cmp	r0, #0
    1452:	f47f af05 	bne.w	1260 <_vfprintf_r+0xb14>
    1456:	9c25      	ldr	r4, [sp, #148]	; 0x94
    1458:	9e24      	ldr	r6, [sp, #144]	; 0x90
    145a:	f10d 08c0 	add.w	r8, sp, #192	; 0xc0
    145e:	e7e6      	b.n	142e <_vfprintf_r+0xce2>
    1460:	990e      	ldr	r1, [sp, #56]	; 0x38
    1462:	460a      	mov	r2, r1
    1464:	3204      	adds	r2, #4
    1466:	680c      	ldr	r4, [r1, #0]
    1468:	920e      	str	r2, [sp, #56]	; 0x38
    146a:	2500      	movs	r5, #0
    146c:	f7ff ba7a 	b.w	964 <_vfprintf_r+0x218>
    1470:	681c      	ldr	r4, [r3, #0]
    1472:	3304      	adds	r3, #4
    1474:	930e      	str	r3, [sp, #56]	; 0x38
    1476:	2500      	movs	r5, #0
    1478:	e426      	b.n	cc8 <_vfprintf_r+0x57c>
    147a:	3301      	adds	r3, #1
    147c:	4434      	add	r4, r6
    147e:	2b07      	cmp	r3, #7
    1480:	9425      	str	r4, [sp, #148]	; 0x94
    1482:	9324      	str	r3, [sp, #144]	; 0x90
    1484:	e888 0060 	stmia.w	r8, {r5, r6}
    1488:	f77f ab63 	ble.w	b52 <_vfprintf_r+0x406>
    148c:	e6d6      	b.n	123c <_vfprintf_r+0xaf0>
    148e:	3204      	adds	r2, #4
    1490:	681c      	ldr	r4, [r3, #0]
    1492:	920e      	str	r2, [sp, #56]	; 0x38
    1494:	2301      	movs	r3, #1
    1496:	2500      	movs	r5, #0
    1498:	f7ff ba64 	b.w	964 <_vfprintf_r+0x218>
    149c:	9a0e      	ldr	r2, [sp, #56]	; 0x38
    149e:	6814      	ldr	r4, [r2, #0]
    14a0:	4613      	mov	r3, r2
    14a2:	3304      	adds	r3, #4
    14a4:	17e5      	asrs	r5, r4, #31
    14a6:	930e      	str	r3, [sp, #56]	; 0x38
    14a8:	4622      	mov	r2, r4
    14aa:	462b      	mov	r3, r5
    14ac:	e460      	b.n	d70 <_vfprintf_r+0x624>
    14ae:	f8dd b018 	ldr.w	fp, [sp, #24]
    14b2:	f8cd b018 	str.w	fp, [sp, #24]
    14b6:	af40      	add	r7, sp, #256	; 0x100
    14b8:	3430      	adds	r4, #48	; 0x30
    14ba:	2301      	movs	r3, #1
    14bc:	f807 4d41 	strb.w	r4, [r7, #-65]!
    14c0:	930d      	str	r3, [sp, #52]	; 0x34
    14c2:	f7ff ba6d 	b.w	9a0 <_vfprintf_r+0x254>
    14c6:	f8da 0058 	ldr.w	r0, [sl, #88]	; 0x58
    14ca:	f001 ff1d 	bl	3308 <__retarget_lock_release_recursive>
    14ce:	f8ba 300c 	ldrh.w	r3, [sl, #12]
    14d2:	e5af      	b.n	1034 <_vfprintf_r+0x8e8>
    14d4:	4614      	mov	r4, r2
    14d6:	3301      	adds	r3, #1
    14d8:	4434      	add	r4, r6
    14da:	2b07      	cmp	r3, #7
    14dc:	9425      	str	r4, [sp, #148]	; 0x94
    14de:	9324      	str	r3, [sp, #144]	; 0x90
    14e0:	e888 0060 	stmia.w	r8, {r5, r6}
    14e4:	f340 816d 	ble.w	17c2 <_vfprintf_r+0x1076>
    14e8:	aa23      	add	r2, sp, #140	; 0x8c
    14ea:	990a      	ldr	r1, [sp, #40]	; 0x28
    14ec:	9808      	ldr	r0, [sp, #32]
    14ee:	f002 ff35 	bl	435c <__sprint_r>
    14f2:	2800      	cmp	r0, #0
    14f4:	f47f aeb4 	bne.w	1260 <_vfprintf_r+0xb14>
    14f8:	9c25      	ldr	r4, [sp, #148]	; 0x94
    14fa:	f10d 08c0 	add.w	r8, sp, #192	; 0xc0
    14fe:	9b1d      	ldr	r3, [sp, #116]	; 0x74
    1500:	9a11      	ldr	r2, [sp, #68]	; 0x44
    1502:	4293      	cmp	r3, r2
    1504:	f280 8158 	bge.w	17b8 <_vfprintf_r+0x106c>
    1508:	9a24      	ldr	r2, [sp, #144]	; 0x90
    150a:	9814      	ldr	r0, [sp, #80]	; 0x50
    150c:	9915      	ldr	r1, [sp, #84]	; 0x54
    150e:	f8c8 1000 	str.w	r1, [r8]
    1512:	3201      	adds	r2, #1
    1514:	4404      	add	r4, r0
    1516:	2a07      	cmp	r2, #7
    1518:	9425      	str	r4, [sp, #148]	; 0x94
    151a:	f8c8 0004 	str.w	r0, [r8, #4]
    151e:	9224      	str	r2, [sp, #144]	; 0x90
    1520:	f300 8152 	bgt.w	17c8 <_vfprintf_r+0x107c>
    1524:	f108 0808 	add.w	r8, r8, #8
    1528:	9a11      	ldr	r2, [sp, #68]	; 0x44
    152a:	9910      	ldr	r1, [sp, #64]	; 0x40
    152c:	1ad3      	subs	r3, r2, r3
    152e:	1a56      	subs	r6, r2, r1
    1530:	429e      	cmp	r6, r3
    1532:	bfa8      	it	ge
    1534:	461e      	movge	r6, r3
    1536:	2e00      	cmp	r6, #0
    1538:	dd0e      	ble.n	1558 <_vfprintf_r+0xe0c>
    153a:	9a24      	ldr	r2, [sp, #144]	; 0x90
    153c:	f8c8 6004 	str.w	r6, [r8, #4]
    1540:	3201      	adds	r2, #1
    1542:	440f      	add	r7, r1
    1544:	4434      	add	r4, r6
    1546:	2a07      	cmp	r2, #7
    1548:	f8c8 7000 	str.w	r7, [r8]
    154c:	9425      	str	r4, [sp, #148]	; 0x94
    154e:	9224      	str	r2, [sp, #144]	; 0x90
    1550:	f300 823c 	bgt.w	19cc <_vfprintf_r+0x1280>
    1554:	f108 0808 	add.w	r8, r8, #8
    1558:	2e00      	cmp	r6, #0
    155a:	bfac      	ite	ge
    155c:	1b9e      	subge	r6, r3, r6
    155e:	461e      	movlt	r6, r3
    1560:	2e00      	cmp	r6, #0
    1562:	f77f aaf8 	ble.w	b56 <_vfprintf_r+0x40a>
    1566:	2e10      	cmp	r6, #16
    1568:	9b24      	ldr	r3, [sp, #144]	; 0x90
    156a:	4d3e      	ldr	r5, [pc, #248]	; (1664 <_vfprintf_r+0xf18>)
    156c:	dd85      	ble.n	147a <_vfprintf_r+0xd2e>
    156e:	2710      	movs	r7, #16
    1570:	f8dd a020 	ldr.w	sl, [sp, #32]
    1574:	f8dd b028 	ldr.w	fp, [sp, #40]	; 0x28
    1578:	e005      	b.n	1586 <_vfprintf_r+0xe3a>
    157a:	f108 0808 	add.w	r8, r8, #8
    157e:	3e10      	subs	r6, #16
    1580:	2e10      	cmp	r6, #16
    1582:	f77f af7a 	ble.w	147a <_vfprintf_r+0xd2e>
    1586:	3301      	adds	r3, #1
    1588:	3410      	adds	r4, #16
    158a:	2b07      	cmp	r3, #7
    158c:	9425      	str	r4, [sp, #148]	; 0x94
    158e:	9324      	str	r3, [sp, #144]	; 0x90
    1590:	e888 00a0 	stmia.w	r8, {r5, r7}
    1594:	ddf1      	ble.n	157a <_vfprintf_r+0xe2e>
    1596:	aa23      	add	r2, sp, #140	; 0x8c
    1598:	4659      	mov	r1, fp
    159a:	4650      	mov	r0, sl
    159c:	f002 fede 	bl	435c <__sprint_r>
    15a0:	2800      	cmp	r0, #0
    15a2:	f040 8176 	bne.w	1892 <_vfprintf_r+0x1146>
    15a6:	9c25      	ldr	r4, [sp, #148]	; 0x94
    15a8:	9b24      	ldr	r3, [sp, #144]	; 0x90
    15aa:	f10d 08c0 	add.w	r8, sp, #192	; 0xc0
    15ae:	e7e6      	b.n	157e <_vfprintf_r+0xe32>
    15b0:	9b06      	ldr	r3, [sp, #24]
    15b2:	07d8      	lsls	r0, r3, #31
    15b4:	f53f adff 	bmi.w	11b6 <_vfprintf_r+0xa6a>
    15b8:	3601      	adds	r6, #1
    15ba:	3401      	adds	r4, #1
    15bc:	2301      	movs	r3, #1
    15be:	2e07      	cmp	r6, #7
    15c0:	9425      	str	r4, [sp, #148]	; 0x94
    15c2:	9624      	str	r6, [sp, #144]	; 0x90
    15c4:	f8c8 7000 	str.w	r7, [r8]
    15c8:	f8c8 3004 	str.w	r3, [r8, #4]
    15cc:	f77f ae27 	ble.w	121e <_vfprintf_r+0xad2>
    15d0:	aa23      	add	r2, sp, #140	; 0x8c
    15d2:	990a      	ldr	r1, [sp, #40]	; 0x28
    15d4:	9808      	ldr	r0, [sp, #32]
    15d6:	f002 fec1 	bl	435c <__sprint_r>
    15da:	2800      	cmp	r0, #0
    15dc:	f47f ae40 	bne.w	1260 <_vfprintf_r+0xb14>
    15e0:	9c25      	ldr	r4, [sp, #148]	; 0x94
    15e2:	9e24      	ldr	r6, [sp, #144]	; 0x90
    15e4:	f10d 08c0 	add.w	r8, sp, #192	; 0xc0
    15e8:	e61b      	b.n	1222 <_vfprintf_r+0xad6>
    15ea:	aa23      	add	r2, sp, #140	; 0x8c
    15ec:	990a      	ldr	r1, [sp, #40]	; 0x28
    15ee:	9808      	ldr	r0, [sp, #32]
    15f0:	f002 feb4 	bl	435c <__sprint_r>
    15f4:	2800      	cmp	r0, #0
    15f6:	f47f ae33 	bne.w	1260 <_vfprintf_r+0xb14>
    15fa:	9c25      	ldr	r4, [sp, #148]	; 0x94
    15fc:	9e24      	ldr	r6, [sp, #144]	; 0x90
    15fe:	f10d 08c0 	add.w	r8, sp, #192	; 0xc0
    1602:	e5e6      	b.n	11d2 <_vfprintf_r+0xa86>
    1604:	9d0e      	ldr	r5, [sp, #56]	; 0x38
    1606:	3507      	adds	r5, #7
    1608:	f025 0507 	bic.w	r5, r5, #7
    160c:	e9d5 2300 	ldrd	r2, r3, [r5]
    1610:	f105 0108 	add.w	r1, r5, #8
    1614:	910e      	str	r1, [sp, #56]	; 0x38
    1616:	4614      	mov	r4, r2
    1618:	461d      	mov	r5, r3
    161a:	f7ff bba9 	b.w	d70 <_vfprintf_r+0x624>
    161e:	9d0e      	ldr	r5, [sp, #56]	; 0x38
    1620:	3507      	adds	r5, #7
    1622:	f025 0307 	bic.w	r3, r5, #7
    1626:	f103 0208 	add.w	r2, r3, #8
    162a:	920e      	str	r2, [sp, #56]	; 0x38
    162c:	e9d3 4500 	ldrd	r4, r5, [r3]
    1630:	f7ff bb4a 	b.w	cc8 <_vfprintf_r+0x57c>
    1634:	3601      	adds	r6, #1
    1636:	443c      	add	r4, r7
    1638:	2e07      	cmp	r6, #7
    163a:	9425      	str	r4, [sp, #148]	; 0x94
    163c:	9624      	str	r6, [sp, #144]	; 0x90
    163e:	e888 00a0 	stmia.w	r8, {r5, r7}
    1642:	f77f adec 	ble.w	121e <_vfprintf_r+0xad2>
    1646:	e7c3      	b.n	15d0 <_vfprintf_r+0xe84>
    1648:	aa23      	add	r2, sp, #140	; 0x8c
    164a:	990a      	ldr	r1, [sp, #40]	; 0x28
    164c:	9808      	ldr	r0, [sp, #32]
    164e:	f002 fe85 	bl	435c <__sprint_r>
    1652:	2800      	cmp	r0, #0
    1654:	f47f ae04 	bne.w	1260 <_vfprintf_r+0xb14>
    1658:	9c25      	ldr	r4, [sp, #148]	; 0x94
    165a:	9e24      	ldr	r6, [sp, #144]	; 0x90
    165c:	f10d 08c0 	add.w	r8, sp, #192	; 0xc0
    1660:	e5c6      	b.n	11f0 <_vfprintf_r+0xaa4>
    1662:	bf00      	nop
    1664:	00005c60 	.word	0x00005c60
    1668:	af30      	add	r7, sp, #192	; 0xc0
    166a:	f7ff b999 	b.w	9a0 <_vfprintf_r+0x254>
    166e:	aa23      	add	r2, sp, #140	; 0x8c
    1670:	990a      	ldr	r1, [sp, #40]	; 0x28
    1672:	9808      	ldr	r0, [sp, #32]
    1674:	f002 fe72 	bl	435c <__sprint_r>
    1678:	2800      	cmp	r0, #0
    167a:	f47f adf1 	bne.w	1260 <_vfprintf_r+0xb14>
    167e:	9c25      	ldr	r4, [sp, #148]	; 0x94
    1680:	f10d 08c0 	add.w	r8, sp, #192	; 0xc0
    1684:	f7ff ba11 	b.w	aaa <_vfprintf_r+0x35e>
    1688:	f04f 0a2d 	mov.w	sl, #45	; 0x2d
    168c:	4264      	negs	r4, r4
    168e:	eb65 0545 	sbc.w	r5, r5, r5, lsl #1
    1692:	f88d a06f 	strb.w	sl, [sp, #111]	; 0x6f
    1696:	2301      	movs	r3, #1
    1698:	f7ff b968 	b.w	96c <_vfprintf_r+0x220>
    169c:	9c13      	ldr	r4, [sp, #76]	; 0x4c
    169e:	4622      	mov	r2, r4
    16a0:	4620      	mov	r0, r4
    16a2:	9c12      	ldr	r4, [sp, #72]	; 0x48
    16a4:	4623      	mov	r3, r4
    16a6:	4621      	mov	r1, r4
    16a8:	f004 f8dc 	bl	5864 <__aeabi_dcmpun>
    16ac:	2800      	cmp	r0, #0
    16ae:	f040 828c 	bne.w	1bca <_vfprintf_r+0x147e>
    16b2:	9b09      	ldr	r3, [sp, #36]	; 0x24
    16b4:	3301      	adds	r3, #1
    16b6:	f026 0320 	bic.w	r3, r6, #32
    16ba:	930d      	str	r3, [sp, #52]	; 0x34
    16bc:	f000 8091 	beq.w	17e2 <_vfprintf_r+0x1096>
    16c0:	2b47      	cmp	r3, #71	; 0x47
    16c2:	d104      	bne.n	16ce <_vfprintf_r+0xf82>
    16c4:	9b09      	ldr	r3, [sp, #36]	; 0x24
    16c6:	2b00      	cmp	r3, #0
    16c8:	bf08      	it	eq
    16ca:	2301      	moveq	r3, #1
    16cc:	9309      	str	r3, [sp, #36]	; 0x24
    16ce:	f44b 7380 	orr.w	r3, fp, #256	; 0x100
    16d2:	9306      	str	r3, [sp, #24]
    16d4:	9b12      	ldr	r3, [sp, #72]	; 0x48
    16d6:	f1b3 0a00 	subs.w	sl, r3, #0
    16da:	9b13      	ldr	r3, [sp, #76]	; 0x4c
    16dc:	9307      	str	r3, [sp, #28]
    16de:	bfbb      	ittet	lt
    16e0:	4653      	movlt	r3, sl
    16e2:	f103 4a00 	addlt.w	sl, r3, #2147483648	; 0x80000000
    16e6:	2300      	movge	r3, #0
    16e8:	232d      	movlt	r3, #45	; 0x2d
    16ea:	2e66      	cmp	r6, #102	; 0x66
    16ec:	930f      	str	r3, [sp, #60]	; 0x3c
    16ee:	f000 817f 	beq.w	19f0 <_vfprintf_r+0x12a4>
    16f2:	2e46      	cmp	r6, #70	; 0x46
    16f4:	f000 81d4 	beq.w	1aa0 <_vfprintf_r+0x1354>
    16f8:	9b0d      	ldr	r3, [sp, #52]	; 0x34
    16fa:	9a07      	ldr	r2, [sp, #28]
    16fc:	2b45      	cmp	r3, #69	; 0x45
    16fe:	bf0c      	ite	eq
    1700:	9b09      	ldreq	r3, [sp, #36]	; 0x24
    1702:	9d09      	ldrne	r5, [sp, #36]	; 0x24
    1704:	a821      	add	r0, sp, #132	; 0x84
    1706:	a91e      	add	r1, sp, #120	; 0x78
    1708:	bf08      	it	eq
    170a:	1c5d      	addeq	r5, r3, #1
    170c:	9004      	str	r0, [sp, #16]
    170e:	9103      	str	r1, [sp, #12]
    1710:	a81d      	add	r0, sp, #116	; 0x74
    1712:	2102      	movs	r1, #2
    1714:	9002      	str	r0, [sp, #8]
    1716:	4653      	mov	r3, sl
    1718:	9501      	str	r5, [sp, #4]
    171a:	9100      	str	r1, [sp, #0]
    171c:	9808      	ldr	r0, [sp, #32]
    171e:	f000 fc0b 	bl	1f38 <_dtoa_r>
    1722:	2e67      	cmp	r6, #103	; 0x67
    1724:	4607      	mov	r7, r0
    1726:	f040 81af 	bne.w	1a88 <_vfprintf_r+0x133c>
    172a:	f01b 0f01 	tst.w	fp, #1
    172e:	f000 8213 	beq.w	1b58 <_vfprintf_r+0x140c>
    1732:	197c      	adds	r4, r7, r5
    1734:	9a16      	ldr	r2, [sp, #88]	; 0x58
    1736:	9807      	ldr	r0, [sp, #28]
    1738:	9b17      	ldr	r3, [sp, #92]	; 0x5c
    173a:	4651      	mov	r1, sl
    173c:	f004 f860 	bl	5800 <__aeabi_dcmpeq>
    1740:	2800      	cmp	r0, #0
    1742:	f040 8132 	bne.w	19aa <_vfprintf_r+0x125e>
    1746:	9b21      	ldr	r3, [sp, #132]	; 0x84
    1748:	42a3      	cmp	r3, r4
    174a:	d206      	bcs.n	175a <_vfprintf_r+0x100e>
    174c:	2130      	movs	r1, #48	; 0x30
    174e:	1c5a      	adds	r2, r3, #1
    1750:	9221      	str	r2, [sp, #132]	; 0x84
    1752:	7019      	strb	r1, [r3, #0]
    1754:	9b21      	ldr	r3, [sp, #132]	; 0x84
    1756:	429c      	cmp	r4, r3
    1758:	d8f9      	bhi.n	174e <_vfprintf_r+0x1002>
    175a:	1bdb      	subs	r3, r3, r7
    175c:	9311      	str	r3, [sp, #68]	; 0x44
    175e:	9b0d      	ldr	r3, [sp, #52]	; 0x34
    1760:	2b47      	cmp	r3, #71	; 0x47
    1762:	f000 80b9 	beq.w	18d8 <_vfprintf_r+0x118c>
    1766:	2e65      	cmp	r6, #101	; 0x65
    1768:	f340 8276 	ble.w	1c58 <_vfprintf_r+0x150c>
    176c:	9b1d      	ldr	r3, [sp, #116]	; 0x74
    176e:	9310      	str	r3, [sp, #64]	; 0x40
    1770:	2e66      	cmp	r6, #102	; 0x66
    1772:	f000 8162 	beq.w	1a3a <_vfprintf_r+0x12ee>
    1776:	9b11      	ldr	r3, [sp, #68]	; 0x44
    1778:	9a10      	ldr	r2, [sp, #64]	; 0x40
    177a:	4619      	mov	r1, r3
    177c:	4291      	cmp	r1, r2
    177e:	f300 814f 	bgt.w	1a20 <_vfprintf_r+0x12d4>
    1782:	f01b 0f01 	tst.w	fp, #1
    1786:	f040 8209 	bne.w	1b9c <_vfprintf_r+0x1450>
    178a:	ea22 73e2 	bic.w	r3, r2, r2, asr #31
    178e:	9307      	str	r3, [sp, #28]
    1790:	920d      	str	r2, [sp, #52]	; 0x34
    1792:	2667      	movs	r6, #103	; 0x67
    1794:	9b0f      	ldr	r3, [sp, #60]	; 0x3c
    1796:	2b00      	cmp	r3, #0
    1798:	f040 8096 	bne.w	18c8 <_vfprintf_r+0x117c>
    179c:	9309      	str	r3, [sp, #36]	; 0x24
    179e:	f89d a06f 	ldrb.w	sl, [sp, #111]	; 0x6f
    17a2:	f7ff b905 	b.w	9b0 <_vfprintf_r+0x264>
    17a6:	f8da 0058 	ldr.w	r0, [sl, #88]	; 0x58
    17aa:	f001 fdad 	bl	3308 <__retarget_lock_release_recursive>
    17ae:	f04f 33ff 	mov.w	r3, #4294967295
    17b2:	930b      	str	r3, [sp, #44]	; 0x2c
    17b4:	f7ff ba30 	b.w	c18 <_vfprintf_r+0x4cc>
    17b8:	9a06      	ldr	r2, [sp, #24]
    17ba:	07d5      	lsls	r5, r2, #31
    17bc:	f57f aeb4 	bpl.w	1528 <_vfprintf_r+0xddc>
    17c0:	e6a2      	b.n	1508 <_vfprintf_r+0xdbc>
    17c2:	f108 0808 	add.w	r8, r8, #8
    17c6:	e69a      	b.n	14fe <_vfprintf_r+0xdb2>
    17c8:	aa23      	add	r2, sp, #140	; 0x8c
    17ca:	990a      	ldr	r1, [sp, #40]	; 0x28
    17cc:	9808      	ldr	r0, [sp, #32]
    17ce:	f002 fdc5 	bl	435c <__sprint_r>
    17d2:	2800      	cmp	r0, #0
    17d4:	f47f ad44 	bne.w	1260 <_vfprintf_r+0xb14>
    17d8:	9b1d      	ldr	r3, [sp, #116]	; 0x74
    17da:	9c25      	ldr	r4, [sp, #148]	; 0x94
    17dc:	f10d 08c0 	add.w	r8, sp, #192	; 0xc0
    17e0:	e6a2      	b.n	1528 <_vfprintf_r+0xddc>
    17e2:	2306      	movs	r3, #6
    17e4:	9309      	str	r3, [sp, #36]	; 0x24
    17e6:	e772      	b.n	16ce <_vfprintf_r+0xf82>
    17e8:	f04f 0a2d 	mov.w	sl, #45	; 0x2d
    17ec:	f88d a06f 	strb.w	sl, [sp, #111]	; 0x6f
    17f0:	f7ff bbc7 	b.w	f82 <_vfprintf_r+0x836>
    17f4:	aa23      	add	r2, sp, #140	; 0x8c
    17f6:	990a      	ldr	r1, [sp, #40]	; 0x28
    17f8:	9808      	ldr	r0, [sp, #32]
    17fa:	f002 fdaf 	bl	435c <__sprint_r>
    17fe:	2800      	cmp	r0, #0
    1800:	f47f ad2e 	bne.w	1260 <_vfprintf_r+0xb14>
    1804:	f10d 08c0 	add.w	r8, sp, #192	; 0xc0
    1808:	e437      	b.n	107a <_vfprintf_r+0x92e>
    180a:	9b24      	ldr	r3, [sp, #144]	; 0x90
    180c:	4ab4      	ldr	r2, [pc, #720]	; (1ae0 <_vfprintf_r+0x1394>)
    180e:	f8c8 2000 	str.w	r2, [r8]
    1812:	3301      	adds	r3, #1
    1814:	3401      	adds	r4, #1
    1816:	2201      	movs	r2, #1
    1818:	2b07      	cmp	r3, #7
    181a:	9425      	str	r4, [sp, #148]	; 0x94
    181c:	9324      	str	r3, [sp, #144]	; 0x90
    181e:	f8c8 2004 	str.w	r2, [r8, #4]
    1822:	f300 8124 	bgt.w	1a6e <_vfprintf_r+0x1322>
    1826:	f108 0808 	add.w	r8, r8, #8
    182a:	b929      	cbnz	r1, 1838 <_vfprintf_r+0x10ec>
    182c:	9b11      	ldr	r3, [sp, #68]	; 0x44
    182e:	b91b      	cbnz	r3, 1838 <_vfprintf_r+0x10ec>
    1830:	9b06      	ldr	r3, [sp, #24]
    1832:	07de      	lsls	r6, r3, #31
    1834:	f57f a98f 	bpl.w	b56 <_vfprintf_r+0x40a>
    1838:	9b24      	ldr	r3, [sp, #144]	; 0x90
    183a:	9814      	ldr	r0, [sp, #80]	; 0x50
    183c:	9a15      	ldr	r2, [sp, #84]	; 0x54
    183e:	f8c8 2000 	str.w	r2, [r8]
    1842:	3301      	adds	r3, #1
    1844:	4602      	mov	r2, r0
    1846:	4422      	add	r2, r4
    1848:	2b07      	cmp	r3, #7
    184a:	9225      	str	r2, [sp, #148]	; 0x94
    184c:	f8c8 0004 	str.w	r0, [r8, #4]
    1850:	9324      	str	r3, [sp, #144]	; 0x90
    1852:	f300 8169 	bgt.w	1b28 <_vfprintf_r+0x13dc>
    1856:	f108 0808 	add.w	r8, r8, #8
    185a:	2900      	cmp	r1, #0
    185c:	f2c0 8136 	blt.w	1acc <_vfprintf_r+0x1380>
    1860:	9911      	ldr	r1, [sp, #68]	; 0x44
    1862:	f8c8 7000 	str.w	r7, [r8]
    1866:	3301      	adds	r3, #1
    1868:	188c      	adds	r4, r1, r2
    186a:	2b07      	cmp	r3, #7
    186c:	9425      	str	r4, [sp, #148]	; 0x94
    186e:	9324      	str	r3, [sp, #144]	; 0x90
    1870:	f8c8 1004 	str.w	r1, [r8, #4]
    1874:	f77f a96d 	ble.w	b52 <_vfprintf_r+0x406>
    1878:	e4e0      	b.n	123c <_vfprintf_r+0xaf0>
    187a:	9a0e      	ldr	r2, [sp, #56]	; 0x38
    187c:	990b      	ldr	r1, [sp, #44]	; 0x2c
    187e:	6813      	ldr	r3, [r2, #0]
    1880:	17cd      	asrs	r5, r1, #31
    1882:	4608      	mov	r0, r1
    1884:	3204      	adds	r2, #4
    1886:	4629      	mov	r1, r5
    1888:	920e      	str	r2, [sp, #56]	; 0x38
    188a:	e9c3 0100 	strd	r0, r1, [r3]
    188e:	f7fe bfa9 	b.w	7e4 <_vfprintf_r+0x98>
    1892:	46da      	mov	sl, fp
    1894:	f7ff bbc4 	b.w	1020 <_vfprintf_r+0x8d4>
    1898:	aa23      	add	r2, sp, #140	; 0x8c
    189a:	990a      	ldr	r1, [sp, #40]	; 0x28
    189c:	9808      	ldr	r0, [sp, #32]
    189e:	f002 fd5d 	bl	435c <__sprint_r>
    18a2:	2800      	cmp	r0, #0
    18a4:	f47f acdc 	bne.w	1260 <_vfprintf_r+0xb14>
    18a8:	9c25      	ldr	r4, [sp, #148]	; 0x94
    18aa:	f10d 08c0 	add.w	r8, sp, #192	; 0xc0
    18ae:	f7ff bbfd 	b.w	10ac <_vfprintf_r+0x960>
    18b2:	4638      	mov	r0, r7
    18b4:	9409      	str	r4, [sp, #36]	; 0x24
    18b6:	f002 fca3 	bl	4200 <strlen>
    18ba:	950e      	str	r5, [sp, #56]	; 0x38
    18bc:	900d      	str	r0, [sp, #52]	; 0x34
    18be:	f8cd b018 	str.w	fp, [sp, #24]
    18c2:	4603      	mov	r3, r0
    18c4:	f7ff ba36 	b.w	d34 <_vfprintf_r+0x5e8>
    18c8:	f04f 0a2d 	mov.w	sl, #45	; 0x2d
    18cc:	2300      	movs	r3, #0
    18ce:	f88d a06f 	strb.w	sl, [sp, #111]	; 0x6f
    18d2:	9309      	str	r3, [sp, #36]	; 0x24
    18d4:	f7ff b86f 	b.w	9b6 <_vfprintf_r+0x26a>
    18d8:	9b1d      	ldr	r3, [sp, #116]	; 0x74
    18da:	9310      	str	r3, [sp, #64]	; 0x40
    18dc:	461a      	mov	r2, r3
    18de:	3303      	adds	r3, #3
    18e0:	db04      	blt.n	18ec <_vfprintf_r+0x11a0>
    18e2:	9b09      	ldr	r3, [sp, #36]	; 0x24
    18e4:	4619      	mov	r1, r3
    18e6:	4291      	cmp	r1, r2
    18e8:	f6bf af45 	bge.w	1776 <_vfprintf_r+0x102a>
    18ec:	3e02      	subs	r6, #2
    18ee:	9b10      	ldr	r3, [sp, #64]	; 0x40
    18f0:	f88d 607c 	strb.w	r6, [sp, #124]	; 0x7c
    18f4:	3b01      	subs	r3, #1
    18f6:	2b00      	cmp	r3, #0
    18f8:	931d      	str	r3, [sp, #116]	; 0x74
    18fa:	bfbd      	ittte	lt
    18fc:	9b10      	ldrlt	r3, [sp, #64]	; 0x40
    18fe:	f1c3 0301 	rsblt	r3, r3, #1
    1902:	222d      	movlt	r2, #45	; 0x2d
    1904:	222b      	movge	r2, #43	; 0x2b
    1906:	2b09      	cmp	r3, #9
    1908:	f88d 207d 	strb.w	r2, [sp, #125]	; 0x7d
    190c:	f340 813e 	ble.w	1b8c <_vfprintf_r+0x1440>
    1910:	f10d 048b 	add.w	r4, sp, #139	; 0x8b
    1914:	4620      	mov	r0, r4
    1916:	4d73      	ldr	r5, [pc, #460]	; (1ae4 <_vfprintf_r+0x1398>)
    1918:	e000      	b.n	191c <_vfprintf_r+0x11d0>
    191a:	4610      	mov	r0, r2
    191c:	fb85 1203 	smull	r1, r2, r5, r3
    1920:	17d9      	asrs	r1, r3, #31
    1922:	ebc1 01a2 	rsb	r1, r1, r2, asr #2
    1926:	eb01 0281 	add.w	r2, r1, r1, lsl #2
    192a:	eba3 0242 	sub.w	r2, r3, r2, lsl #1
    192e:	3230      	adds	r2, #48	; 0x30
    1930:	2909      	cmp	r1, #9
    1932:	f800 2c01 	strb.w	r2, [r0, #-1]
    1936:	460b      	mov	r3, r1
    1938:	f100 32ff 	add.w	r2, r0, #4294967295
    193c:	dced      	bgt.n	191a <_vfprintf_r+0x11ce>
    193e:	3330      	adds	r3, #48	; 0x30
    1940:	3802      	subs	r0, #2
    1942:	b2d9      	uxtb	r1, r3
    1944:	4284      	cmp	r4, r0
    1946:	f802 1c01 	strb.w	r1, [r2, #-1]
    194a:	f240 8190 	bls.w	1c6e <_vfprintf_r+0x1522>
    194e:	f10d 007e 	add.w	r0, sp, #126	; 0x7e
    1952:	4613      	mov	r3, r2
    1954:	e001      	b.n	195a <_vfprintf_r+0x120e>
    1956:	f813 1b01 	ldrb.w	r1, [r3], #1
    195a:	f800 1b01 	strb.w	r1, [r0], #1
    195e:	42a3      	cmp	r3, r4
    1960:	d1f9      	bne.n	1956 <_vfprintf_r+0x120a>
    1962:	3301      	adds	r3, #1
    1964:	1a9b      	subs	r3, r3, r2
    1966:	f10d 027e 	add.w	r2, sp, #126	; 0x7e
    196a:	4413      	add	r3, r2
    196c:	aa1f      	add	r2, sp, #124	; 0x7c
    196e:	1a9b      	subs	r3, r3, r2
    1970:	9a11      	ldr	r2, [sp, #68]	; 0x44
    1972:	9319      	str	r3, [sp, #100]	; 0x64
    1974:	2a01      	cmp	r2, #1
    1976:	4413      	add	r3, r2
    1978:	930d      	str	r3, [sp, #52]	; 0x34
    197a:	f340 8145 	ble.w	1c08 <_vfprintf_r+0x14bc>
    197e:	9b0d      	ldr	r3, [sp, #52]	; 0x34
    1980:	9a14      	ldr	r2, [sp, #80]	; 0x50
    1982:	4413      	add	r3, r2
    1984:	930d      	str	r3, [sp, #52]	; 0x34
    1986:	ea23 73e3 	bic.w	r3, r3, r3, asr #31
    198a:	9307      	str	r3, [sp, #28]
    198c:	2300      	movs	r3, #0
    198e:	9310      	str	r3, [sp, #64]	; 0x40
    1990:	e700      	b.n	1794 <_vfprintf_r+0x1048>
    1992:	aa23      	add	r2, sp, #140	; 0x8c
    1994:	990a      	ldr	r1, [sp, #40]	; 0x28
    1996:	9808      	ldr	r0, [sp, #32]
    1998:	f002 fce0 	bl	435c <__sprint_r>
    199c:	2800      	cmp	r0, #0
    199e:	f47f ac5f 	bne.w	1260 <_vfprintf_r+0xb14>
    19a2:	9c25      	ldr	r4, [sp, #148]	; 0x94
    19a4:	f10d 08c0 	add.w	r8, sp, #192	; 0xc0
    19a8:	e4d1      	b.n	134e <_vfprintf_r+0xc02>
    19aa:	4623      	mov	r3, r4
    19ac:	e6d5      	b.n	175a <_vfprintf_r+0x100e>
    19ae:	9b09      	ldr	r3, [sp, #36]	; 0x24
    19b0:	9710      	str	r7, [sp, #64]	; 0x40
    19b2:	2b06      	cmp	r3, #6
    19b4:	bf28      	it	cs
    19b6:	2306      	movcs	r3, #6
    19b8:	9709      	str	r7, [sp, #36]	; 0x24
    19ba:	46ba      	mov	sl, r7
    19bc:	9307      	str	r3, [sp, #28]
    19be:	950e      	str	r5, [sp, #56]	; 0x38
    19c0:	f8cd b018 	str.w	fp, [sp, #24]
    19c4:	930d      	str	r3, [sp, #52]	; 0x34
    19c6:	4f48      	ldr	r7, [pc, #288]	; (1ae8 <_vfprintf_r+0x139c>)
    19c8:	f7fe bff2 	b.w	9b0 <_vfprintf_r+0x264>
    19cc:	aa23      	add	r2, sp, #140	; 0x8c
    19ce:	990a      	ldr	r1, [sp, #40]	; 0x28
    19d0:	9808      	ldr	r0, [sp, #32]
    19d2:	f002 fcc3 	bl	435c <__sprint_r>
    19d6:	2800      	cmp	r0, #0
    19d8:	f47f ac42 	bne.w	1260 <_vfprintf_r+0xb14>
    19dc:	9b1d      	ldr	r3, [sp, #116]	; 0x74
    19de:	9a11      	ldr	r2, [sp, #68]	; 0x44
    19e0:	9c25      	ldr	r4, [sp, #148]	; 0x94
    19e2:	1ad3      	subs	r3, r2, r3
    19e4:	f10d 08c0 	add.w	r8, sp, #192	; 0xc0
    19e8:	e5b6      	b.n	1558 <_vfprintf_r+0xe0c>
    19ea:	46a2      	mov	sl, r4
    19ec:	f7ff bb18 	b.w	1020 <_vfprintf_r+0x8d4>
    19f0:	a821      	add	r0, sp, #132	; 0x84
    19f2:	a91e      	add	r1, sp, #120	; 0x78
    19f4:	9d09      	ldr	r5, [sp, #36]	; 0x24
    19f6:	9004      	str	r0, [sp, #16]
    19f8:	9103      	str	r1, [sp, #12]
    19fa:	a81d      	add	r0, sp, #116	; 0x74
    19fc:	2103      	movs	r1, #3
    19fe:	9002      	str	r0, [sp, #8]
    1a00:	9a07      	ldr	r2, [sp, #28]
    1a02:	9501      	str	r5, [sp, #4]
    1a04:	4653      	mov	r3, sl
    1a06:	9100      	str	r1, [sp, #0]
    1a08:	9808      	ldr	r0, [sp, #32]
    1a0a:	f000 fa95 	bl	1f38 <_dtoa_r>
    1a0e:	4607      	mov	r7, r0
    1a10:	1944      	adds	r4, r0, r5
    1a12:	783b      	ldrb	r3, [r7, #0]
    1a14:	2b30      	cmp	r3, #48	; 0x30
    1a16:	f000 80ca 	beq.w	1bae <_vfprintf_r+0x1462>
    1a1a:	9d1d      	ldr	r5, [sp, #116]	; 0x74
    1a1c:	442c      	add	r4, r5
    1a1e:	e689      	b.n	1734 <_vfprintf_r+0xfe8>
    1a20:	9a14      	ldr	r2, [sp, #80]	; 0x50
    1a22:	9b11      	ldr	r3, [sp, #68]	; 0x44
    1a24:	4413      	add	r3, r2
    1a26:	9a10      	ldr	r2, [sp, #64]	; 0x40
    1a28:	930d      	str	r3, [sp, #52]	; 0x34
    1a2a:	2a00      	cmp	r2, #0
    1a2c:	f340 80e4 	ble.w	1bf8 <_vfprintf_r+0x14ac>
    1a30:	ea23 73e3 	bic.w	r3, r3, r3, asr #31
    1a34:	9307      	str	r3, [sp, #28]
    1a36:	2667      	movs	r6, #103	; 0x67
    1a38:	e6ac      	b.n	1794 <_vfprintf_r+0x1048>
    1a3a:	2b00      	cmp	r3, #0
    1a3c:	f340 80fb 	ble.w	1c36 <_vfprintf_r+0x14ea>
    1a40:	9a09      	ldr	r2, [sp, #36]	; 0x24
    1a42:	2a00      	cmp	r2, #0
    1a44:	f040 80ce 	bne.w	1be4 <_vfprintf_r+0x1498>
    1a48:	f01b 0f01 	tst.w	fp, #1
    1a4c:	f040 80ca 	bne.w	1be4 <_vfprintf_r+0x1498>
    1a50:	9307      	str	r3, [sp, #28]
    1a52:	930d      	str	r3, [sp, #52]	; 0x34
    1a54:	e69e      	b.n	1794 <_vfprintf_r+0x1048>
    1a56:	9b09      	ldr	r3, [sp, #36]	; 0x24
    1a58:	9307      	str	r3, [sp, #28]
    1a5a:	930d      	str	r3, [sp, #52]	; 0x34
    1a5c:	9009      	str	r0, [sp, #36]	; 0x24
    1a5e:	950e      	str	r5, [sp, #56]	; 0x38
    1a60:	f8cd b018 	str.w	fp, [sp, #24]
    1a64:	9010      	str	r0, [sp, #64]	; 0x40
    1a66:	f89d a06f 	ldrb.w	sl, [sp, #111]	; 0x6f
    1a6a:	f7fe bfa1 	b.w	9b0 <_vfprintf_r+0x264>
    1a6e:	aa23      	add	r2, sp, #140	; 0x8c
    1a70:	990a      	ldr	r1, [sp, #40]	; 0x28
    1a72:	9808      	ldr	r0, [sp, #32]
    1a74:	f002 fc72 	bl	435c <__sprint_r>
    1a78:	2800      	cmp	r0, #0
    1a7a:	f47f abf1 	bne.w	1260 <_vfprintf_r+0xb14>
    1a7e:	991d      	ldr	r1, [sp, #116]	; 0x74
    1a80:	9c25      	ldr	r4, [sp, #148]	; 0x94
    1a82:	f10d 08c0 	add.w	r8, sp, #192	; 0xc0
    1a86:	e6d0      	b.n	182a <_vfprintf_r+0x10de>
    1a88:	2e47      	cmp	r6, #71	; 0x47
    1a8a:	f47f ae52 	bne.w	1732 <_vfprintf_r+0xfe6>
    1a8e:	f01b 0f01 	tst.w	fp, #1
    1a92:	f000 80da 	beq.w	1c4a <_vfprintf_r+0x14fe>
    1a96:	2e46      	cmp	r6, #70	; 0x46
    1a98:	eb07 0405 	add.w	r4, r7, r5
    1a9c:	d0b9      	beq.n	1a12 <_vfprintf_r+0x12c6>
    1a9e:	e649      	b.n	1734 <_vfprintf_r+0xfe8>
    1aa0:	a821      	add	r0, sp, #132	; 0x84
    1aa2:	a91e      	add	r1, sp, #120	; 0x78
    1aa4:	9c09      	ldr	r4, [sp, #36]	; 0x24
    1aa6:	9004      	str	r0, [sp, #16]
    1aa8:	9103      	str	r1, [sp, #12]
    1aaa:	a81d      	add	r0, sp, #116	; 0x74
    1aac:	2103      	movs	r1, #3
    1aae:	9002      	str	r0, [sp, #8]
    1ab0:	9a07      	ldr	r2, [sp, #28]
    1ab2:	9401      	str	r4, [sp, #4]
    1ab4:	4653      	mov	r3, sl
    1ab6:	9100      	str	r1, [sp, #0]
    1ab8:	9808      	ldr	r0, [sp, #32]
    1aba:	f000 fa3d 	bl	1f38 <_dtoa_r>
    1abe:	4625      	mov	r5, r4
    1ac0:	4607      	mov	r7, r0
    1ac2:	e7e8      	b.n	1a96 <_vfprintf_r+0x134a>
    1ac4:	2300      	movs	r3, #0
    1ac6:	9309      	str	r3, [sp, #36]	; 0x24
    1ac8:	f7fe bec1 	b.w	84e <_vfprintf_r+0x102>
    1acc:	424e      	negs	r6, r1
    1ace:	3110      	adds	r1, #16
    1ad0:	4d06      	ldr	r5, [pc, #24]	; (1aec <_vfprintf_r+0x13a0>)
    1ad2:	da43      	bge.n	1b5c <_vfprintf_r+0x1410>
    1ad4:	2410      	movs	r4, #16
    1ad6:	f8dd a020 	ldr.w	sl, [sp, #32]
    1ada:	f8dd b028 	ldr.w	fp, [sp, #40]	; 0x28
    1ade:	e00c      	b.n	1afa <_vfprintf_r+0x13ae>
    1ae0:	00005c4c 	.word	0x00005c4c
    1ae4:	66666667 	.word	0x66666667
    1ae8:	00005c44 	.word	0x00005c44
    1aec:	00005c60 	.word	0x00005c60
    1af0:	f108 0808 	add.w	r8, r8, #8
    1af4:	3e10      	subs	r6, #16
    1af6:	2e10      	cmp	r6, #16
    1af8:	dd30      	ble.n	1b5c <_vfprintf_r+0x1410>
    1afa:	3301      	adds	r3, #1
    1afc:	3210      	adds	r2, #16
    1afe:	2b07      	cmp	r3, #7
    1b00:	9225      	str	r2, [sp, #148]	; 0x94
    1b02:	9324      	str	r3, [sp, #144]	; 0x90
    1b04:	f8c8 5000 	str.w	r5, [r8]
    1b08:	f8c8 4004 	str.w	r4, [r8, #4]
    1b0c:	ddf0      	ble.n	1af0 <_vfprintf_r+0x13a4>
    1b0e:	aa23      	add	r2, sp, #140	; 0x8c
    1b10:	4659      	mov	r1, fp
    1b12:	4650      	mov	r0, sl
    1b14:	f002 fc22 	bl	435c <__sprint_r>
    1b18:	2800      	cmp	r0, #0
    1b1a:	f47f aeba 	bne.w	1892 <_vfprintf_r+0x1146>
    1b1e:	9a25      	ldr	r2, [sp, #148]	; 0x94
    1b20:	9b24      	ldr	r3, [sp, #144]	; 0x90
    1b22:	f10d 08c0 	add.w	r8, sp, #192	; 0xc0
    1b26:	e7e5      	b.n	1af4 <_vfprintf_r+0x13a8>
    1b28:	aa23      	add	r2, sp, #140	; 0x8c
    1b2a:	990a      	ldr	r1, [sp, #40]	; 0x28
    1b2c:	9808      	ldr	r0, [sp, #32]
    1b2e:	f002 fc15 	bl	435c <__sprint_r>
    1b32:	2800      	cmp	r0, #0
    1b34:	f47f ab94 	bne.w	1260 <_vfprintf_r+0xb14>
    1b38:	991d      	ldr	r1, [sp, #116]	; 0x74
    1b3a:	9a25      	ldr	r2, [sp, #148]	; 0x94
    1b3c:	9b24      	ldr	r3, [sp, #144]	; 0x90
    1b3e:	f10d 08c0 	add.w	r8, sp, #192	; 0xc0
    1b42:	e68a      	b.n	185a <_vfprintf_r+0x110e>
    1b44:	9808      	ldr	r0, [sp, #32]
    1b46:	aa23      	add	r2, sp, #140	; 0x8c
    1b48:	4651      	mov	r1, sl
    1b4a:	f002 fc07 	bl	435c <__sprint_r>
    1b4e:	2800      	cmp	r0, #0
    1b50:	f43f aa64 	beq.w	101c <_vfprintf_r+0x8d0>
    1b54:	f7ff ba64 	b.w	1020 <_vfprintf_r+0x8d4>
    1b58:	9b21      	ldr	r3, [sp, #132]	; 0x84
    1b5a:	e5fe      	b.n	175a <_vfprintf_r+0x100e>
    1b5c:	3301      	adds	r3, #1
    1b5e:	4432      	add	r2, r6
    1b60:	2b07      	cmp	r3, #7
    1b62:	e888 0060 	stmia.w	r8, {r5, r6}
    1b66:	9225      	str	r2, [sp, #148]	; 0x94
    1b68:	9324      	str	r3, [sp, #144]	; 0x90
    1b6a:	f108 0808 	add.w	r8, r8, #8
    1b6e:	f77f ae77 	ble.w	1860 <_vfprintf_r+0x1114>
    1b72:	aa23      	add	r2, sp, #140	; 0x8c
    1b74:	990a      	ldr	r1, [sp, #40]	; 0x28
    1b76:	9808      	ldr	r0, [sp, #32]
    1b78:	f002 fbf0 	bl	435c <__sprint_r>
    1b7c:	2800      	cmp	r0, #0
    1b7e:	f47f ab6f 	bne.w	1260 <_vfprintf_r+0xb14>
    1b82:	9a25      	ldr	r2, [sp, #148]	; 0x94
    1b84:	9b24      	ldr	r3, [sp, #144]	; 0x90
    1b86:	f10d 08c0 	add.w	r8, sp, #192	; 0xc0
    1b8a:	e669      	b.n	1860 <_vfprintf_r+0x1114>
    1b8c:	3330      	adds	r3, #48	; 0x30
    1b8e:	2230      	movs	r2, #48	; 0x30
    1b90:	f88d 307f 	strb.w	r3, [sp, #127]	; 0x7f
    1b94:	f88d 207e 	strb.w	r2, [sp, #126]	; 0x7e
    1b98:	ab20      	add	r3, sp, #128	; 0x80
    1b9a:	e6e7      	b.n	196c <_vfprintf_r+0x1220>
    1b9c:	9b10      	ldr	r3, [sp, #64]	; 0x40
    1b9e:	9a14      	ldr	r2, [sp, #80]	; 0x50
    1ba0:	4413      	add	r3, r2
    1ba2:	930d      	str	r3, [sp, #52]	; 0x34
    1ba4:	ea23 73e3 	bic.w	r3, r3, r3, asr #31
    1ba8:	9307      	str	r3, [sp, #28]
    1baa:	2667      	movs	r6, #103	; 0x67
    1bac:	e5f2      	b.n	1794 <_vfprintf_r+0x1048>
    1bae:	9a16      	ldr	r2, [sp, #88]	; 0x58
    1bb0:	9807      	ldr	r0, [sp, #28]
    1bb2:	9b17      	ldr	r3, [sp, #92]	; 0x5c
    1bb4:	4651      	mov	r1, sl
    1bb6:	f003 fe23 	bl	5800 <__aeabi_dcmpeq>
    1bba:	2800      	cmp	r0, #0
    1bbc:	f47f af2d 	bne.w	1a1a <_vfprintf_r+0x12ce>
    1bc0:	f1c5 0501 	rsb	r5, r5, #1
    1bc4:	951d      	str	r5, [sp, #116]	; 0x74
    1bc6:	442c      	add	r4, r5
    1bc8:	e5b4      	b.n	1734 <_vfprintf_r+0xfe8>
    1bca:	9b12      	ldr	r3, [sp, #72]	; 0x48
    1bcc:	4f33      	ldr	r7, [pc, #204]	; (1c9c <_vfprintf_r+0x1550>)
    1bce:	2b00      	cmp	r3, #0
    1bd0:	bfb6      	itet	lt
    1bd2:	f04f 0a2d 	movlt.w	sl, #45	; 0x2d
    1bd6:	f89d a06f 	ldrbge.w	sl, [sp, #111]	; 0x6f
    1bda:	f88d a06f 	strblt.w	sl, [sp, #111]	; 0x6f
    1bde:	4b30      	ldr	r3, [pc, #192]	; (1ca0 <_vfprintf_r+0x1554>)
    1be0:	f7ff b9d1 	b.w	f86 <_vfprintf_r+0x83a>
    1be4:	9b10      	ldr	r3, [sp, #64]	; 0x40
    1be6:	9a14      	ldr	r2, [sp, #80]	; 0x50
    1be8:	4413      	add	r3, r2
    1bea:	9a09      	ldr	r2, [sp, #36]	; 0x24
    1bec:	441a      	add	r2, r3
    1bee:	ea22 73e2 	bic.w	r3, r2, r2, asr #31
    1bf2:	920d      	str	r2, [sp, #52]	; 0x34
    1bf4:	9307      	str	r3, [sp, #28]
    1bf6:	e5cd      	b.n	1794 <_vfprintf_r+0x1048>
    1bf8:	9b10      	ldr	r3, [sp, #64]	; 0x40
    1bfa:	9a0d      	ldr	r2, [sp, #52]	; 0x34
    1bfc:	f1c3 0301 	rsb	r3, r3, #1
    1c00:	441a      	add	r2, r3
    1c02:	4613      	mov	r3, r2
    1c04:	920d      	str	r2, [sp, #52]	; 0x34
    1c06:	e713      	b.n	1a30 <_vfprintf_r+0x12e4>
    1c08:	f01b 0301 	ands.w	r3, fp, #1
    1c0c:	9310      	str	r3, [sp, #64]	; 0x40
    1c0e:	f47f aeb6 	bne.w	197e <_vfprintf_r+0x1232>
    1c12:	9b0d      	ldr	r3, [sp, #52]	; 0x34
    1c14:	ea23 73e3 	bic.w	r3, r3, r3, asr #31
    1c18:	9307      	str	r3, [sp, #28]
    1c1a:	e5bb      	b.n	1794 <_vfprintf_r+0x1048>
    1c1c:	9c0e      	ldr	r4, [sp, #56]	; 0x38
    1c1e:	f899 6001 	ldrb.w	r6, [r9, #1]
    1c22:	6823      	ldr	r3, [r4, #0]
    1c24:	ea43 73e3 	orr.w	r3, r3, r3, asr #31
    1c28:	9309      	str	r3, [sp, #36]	; 0x24
    1c2a:	4623      	mov	r3, r4
    1c2c:	3304      	adds	r3, #4
    1c2e:	4681      	mov	r9, r0
    1c30:	930e      	str	r3, [sp, #56]	; 0x38
    1c32:	f7fe be0a 	b.w	84a <_vfprintf_r+0xfe>
    1c36:	9b09      	ldr	r3, [sp, #36]	; 0x24
    1c38:	b913      	cbnz	r3, 1c40 <_vfprintf_r+0x14f4>
    1c3a:	f01b 0f01 	tst.w	fp, #1
    1c3e:	d002      	beq.n	1c46 <_vfprintf_r+0x14fa>
    1c40:	9b14      	ldr	r3, [sp, #80]	; 0x50
    1c42:	3301      	adds	r3, #1
    1c44:	e7d1      	b.n	1bea <_vfprintf_r+0x149e>
    1c46:	2301      	movs	r3, #1
    1c48:	e702      	b.n	1a50 <_vfprintf_r+0x1304>
    1c4a:	9b21      	ldr	r3, [sp, #132]	; 0x84
    1c4c:	1bdb      	subs	r3, r3, r7
    1c4e:	9311      	str	r3, [sp, #68]	; 0x44
    1c50:	9b0d      	ldr	r3, [sp, #52]	; 0x34
    1c52:	2b47      	cmp	r3, #71	; 0x47
    1c54:	f43f ae40 	beq.w	18d8 <_vfprintf_r+0x118c>
    1c58:	9b1d      	ldr	r3, [sp, #116]	; 0x74
    1c5a:	9310      	str	r3, [sp, #64]	; 0x40
    1c5c:	e647      	b.n	18ee <_vfprintf_r+0x11a2>
    1c5e:	f88d 106f 	strb.w	r1, [sp, #111]	; 0x6f
    1c62:	f7ff b81d 	b.w	ca0 <_vfprintf_r+0x554>
    1c66:	f88d 106f 	strb.w	r1, [sp, #111]	; 0x6f
    1c6a:	f7ff b918 	b.w	e9e <_vfprintf_r+0x752>
    1c6e:	f10d 037e 	add.w	r3, sp, #126	; 0x7e
    1c72:	e67b      	b.n	196c <_vfprintf_r+0x1220>
    1c74:	f88d 106f 	strb.w	r1, [sp, #111]	; 0x6f
    1c78:	f7ff b866 	b.w	d48 <_vfprintf_r+0x5fc>
    1c7c:	f88d 106f 	strb.w	r1, [sp, #111]	; 0x6f
    1c80:	f7ff b9ac 	b.w	fdc <_vfprintf_r+0x890>
    1c84:	f88d 106f 	strb.w	r1, [sp, #111]	; 0x6f
    1c88:	f7ff b934 	b.w	ef4 <_vfprintf_r+0x7a8>
    1c8c:	f88d 106f 	strb.w	r1, [sp, #111]	; 0x6f
    1c90:	f7ff b8b0 	b.w	df4 <_vfprintf_r+0x6a8>
    1c94:	f88d 106f 	strb.w	r1, [sp, #111]	; 0x6f
    1c98:	f7ff b945 	b.w	f26 <_vfprintf_r+0x7da>
    1c9c:	00005c18 	.word	0x00005c18
    1ca0:	00005c14 	.word	0x00005c14

00001ca4 <__sbprintf>:
    1ca4:	e92d 41f0 	stmdb	sp!, {r4, r5, r6, r7, r8, lr}
    1ca8:	460c      	mov	r4, r1
    1caa:	f5ad 6d8d 	sub.w	sp, sp, #1128	; 0x468
    1cae:	8989      	ldrh	r1, [r1, #12]
    1cb0:	6e66      	ldr	r6, [r4, #100]	; 0x64
    1cb2:	89e5      	ldrh	r5, [r4, #14]
    1cb4:	9619      	str	r6, [sp, #100]	; 0x64
    1cb6:	f021 0102 	bic.w	r1, r1, #2
    1cba:	4606      	mov	r6, r0
    1cbc:	69e0      	ldr	r0, [r4, #28]
    1cbe:	f8ad 100c 	strh.w	r1, [sp, #12]
    1cc2:	4617      	mov	r7, r2
    1cc4:	f44f 6180 	mov.w	r1, #1024	; 0x400
    1cc8:	6a62      	ldr	r2, [r4, #36]	; 0x24
    1cca:	f8ad 500e 	strh.w	r5, [sp, #14]
    1cce:	4698      	mov	r8, r3
    1cd0:	ad1a      	add	r5, sp, #104	; 0x68
    1cd2:	2300      	movs	r3, #0
    1cd4:	9007      	str	r0, [sp, #28]
    1cd6:	a816      	add	r0, sp, #88	; 0x58
    1cd8:	9209      	str	r2, [sp, #36]	; 0x24
    1cda:	9306      	str	r3, [sp, #24]
    1cdc:	9500      	str	r5, [sp, #0]
    1cde:	9504      	str	r5, [sp, #16]
    1ce0:	9102      	str	r1, [sp, #8]
    1ce2:	9105      	str	r1, [sp, #20]
    1ce4:	f001 fb0a 	bl	32fc <__retarget_lock_init_recursive>
    1ce8:	4643      	mov	r3, r8
    1cea:	463a      	mov	r2, r7
    1cec:	4669      	mov	r1, sp
    1cee:	4630      	mov	r0, r6
    1cf0:	f7fe fd2c 	bl	74c <_vfprintf_r>
    1cf4:	1e05      	subs	r5, r0, #0
    1cf6:	db07      	blt.n	1d08 <__sbprintf+0x64>
    1cf8:	4630      	mov	r0, r6
    1cfa:	4669      	mov	r1, sp
    1cfc:	f001 f8e6 	bl	2ecc <_fflush_r>
    1d00:	2800      	cmp	r0, #0
    1d02:	bf18      	it	ne
    1d04:	f04f 35ff 	movne.w	r5, #4294967295
    1d08:	f8bd 300c 	ldrh.w	r3, [sp, #12]
    1d0c:	065b      	lsls	r3, r3, #25
    1d0e:	d503      	bpl.n	1d18 <__sbprintf+0x74>
    1d10:	89a3      	ldrh	r3, [r4, #12]
    1d12:	f043 0340 	orr.w	r3, r3, #64	; 0x40
    1d16:	81a3      	strh	r3, [r4, #12]
    1d18:	9816      	ldr	r0, [sp, #88]	; 0x58
    1d1a:	f001 faf1 	bl	3300 <__retarget_lock_close_recursive>
    1d1e:	4628      	mov	r0, r5
    1d20:	f50d 6d8d 	add.w	sp, sp, #1128	; 0x468
    1d24:	e8bd 81f0 	ldmia.w	sp!, {r4, r5, r6, r7, r8, pc}

00001d28 <__swsetup_r>:
    1d28:	b538      	push	{r3, r4, r5, lr}
    1d2a:	4b30      	ldr	r3, [pc, #192]	; (1dec <__swsetup_r+0xc4>)
    1d2c:	681b      	ldr	r3, [r3, #0]
    1d2e:	4605      	mov	r5, r0
    1d30:	460c      	mov	r4, r1
    1d32:	b113      	cbz	r3, 1d3a <__swsetup_r+0x12>
    1d34:	6b9a      	ldr	r2, [r3, #56]	; 0x38
    1d36:	2a00      	cmp	r2, #0
    1d38:	d038      	beq.n	1dac <__swsetup_r+0x84>
    1d3a:	f9b4 200c 	ldrsh.w	r2, [r4, #12]
    1d3e:	b293      	uxth	r3, r2
    1d40:	0718      	lsls	r0, r3, #28
    1d42:	d50c      	bpl.n	1d5e <__swsetup_r+0x36>
    1d44:	6920      	ldr	r0, [r4, #16]
    1d46:	b1a8      	cbz	r0, 1d74 <__swsetup_r+0x4c>
    1d48:	f013 0201 	ands.w	r2, r3, #1
    1d4c:	d01e      	beq.n	1d8c <__swsetup_r+0x64>
    1d4e:	6963      	ldr	r3, [r4, #20]
    1d50:	2200      	movs	r2, #0
    1d52:	425b      	negs	r3, r3
    1d54:	61a3      	str	r3, [r4, #24]
    1d56:	60a2      	str	r2, [r4, #8]
    1d58:	b1f0      	cbz	r0, 1d98 <__swsetup_r+0x70>
    1d5a:	2000      	movs	r0, #0
    1d5c:	bd38      	pop	{r3, r4, r5, pc}
    1d5e:	06d9      	lsls	r1, r3, #27
    1d60:	d53c      	bpl.n	1ddc <__swsetup_r+0xb4>
    1d62:	0758      	lsls	r0, r3, #29
    1d64:	d426      	bmi.n	1db4 <__swsetup_r+0x8c>
    1d66:	6920      	ldr	r0, [r4, #16]
    1d68:	f042 0308 	orr.w	r3, r2, #8
    1d6c:	81a3      	strh	r3, [r4, #12]
    1d6e:	b29b      	uxth	r3, r3
    1d70:	2800      	cmp	r0, #0
    1d72:	d1e9      	bne.n	1d48 <__swsetup_r+0x20>
    1d74:	f403 7220 	and.w	r2, r3, #640	; 0x280
    1d78:	f5b2 7f00 	cmp.w	r2, #512	; 0x200
    1d7c:	d0e4      	beq.n	1d48 <__swsetup_r+0x20>
    1d7e:	4628      	mov	r0, r5
    1d80:	4621      	mov	r1, r4
    1d82:	f001 faf1 	bl	3368 <__smakebuf_r>
    1d86:	89a3      	ldrh	r3, [r4, #12]
    1d88:	6920      	ldr	r0, [r4, #16]
    1d8a:	e7dd      	b.n	1d48 <__swsetup_r+0x20>
    1d8c:	0799      	lsls	r1, r3, #30
    1d8e:	bf58      	it	pl
    1d90:	6962      	ldrpl	r2, [r4, #20]
    1d92:	60a2      	str	r2, [r4, #8]
    1d94:	2800      	cmp	r0, #0
    1d96:	d1e0      	bne.n	1d5a <__swsetup_r+0x32>
    1d98:	f9b4 300c 	ldrsh.w	r3, [r4, #12]
    1d9c:	061a      	lsls	r2, r3, #24
    1d9e:	d5dd      	bpl.n	1d5c <__swsetup_r+0x34>
    1da0:	f043 0340 	orr.w	r3, r3, #64	; 0x40
    1da4:	81a3      	strh	r3, [r4, #12]
    1da6:	f04f 30ff 	mov.w	r0, #4294967295
    1daa:	bd38      	pop	{r3, r4, r5, pc}
    1dac:	4618      	mov	r0, r3
    1dae:	f001 f8e5 	bl	2f7c <__sinit>
    1db2:	e7c2      	b.n	1d3a <__swsetup_r+0x12>
    1db4:	6b21      	ldr	r1, [r4, #48]	; 0x30
    1db6:	b151      	cbz	r1, 1dce <__swsetup_r+0xa6>
    1db8:	f104 0340 	add.w	r3, r4, #64	; 0x40
    1dbc:	4299      	cmp	r1, r3
    1dbe:	d004      	beq.n	1dca <__swsetup_r+0xa2>
    1dc0:	4628      	mov	r0, r5
    1dc2:	f001 f97d 	bl	30c0 <_free_r>
    1dc6:	f9b4 200c 	ldrsh.w	r2, [r4, #12]
    1dca:	2300      	movs	r3, #0
    1dcc:	6323      	str	r3, [r4, #48]	; 0x30
    1dce:	2300      	movs	r3, #0
    1dd0:	6920      	ldr	r0, [r4, #16]
    1dd2:	6063      	str	r3, [r4, #4]
    1dd4:	f022 0224 	bic.w	r2, r2, #36	; 0x24
    1dd8:	6020      	str	r0, [r4, #0]
    1dda:	e7c5      	b.n	1d68 <__swsetup_r+0x40>
    1ddc:	f042 0240 	orr.w	r2, r2, #64	; 0x40
    1de0:	2309      	movs	r3, #9
    1de2:	602b      	str	r3, [r5, #0]
    1de4:	f04f 30ff 	mov.w	r0, #4294967295
    1de8:	81a2      	strh	r2, [r4, #12]
    1dea:	bd38      	pop	{r3, r4, r5, pc}
    1dec:	20000004 	.word	0x20000004

00001df0 <register_fini>:
    1df0:	4b02      	ldr	r3, [pc, #8]	; (1dfc <register_fini+0xc>)
    1df2:	b113      	cbz	r3, 1dfa <register_fini+0xa>
    1df4:	4802      	ldr	r0, [pc, #8]	; (1e00 <register_fini+0x10>)
    1df6:	f000 b805 	b.w	1e04 <atexit>
    1dfa:	4770      	bx	lr
    1dfc:	00000000 	.word	0x00000000
    1e00:	00002fed 	.word	0x00002fed

00001e04 <atexit>:
    1e04:	2300      	movs	r3, #0
    1e06:	4601      	mov	r1, r0
    1e08:	461a      	mov	r2, r3
    1e0a:	4618      	mov	r0, r3
    1e0c:	f002 bac6 	b.w	439c <__register_exitproc>

00001e10 <quorem>:
    1e10:	6902      	ldr	r2, [r0, #16]
    1e12:	690b      	ldr	r3, [r1, #16]
    1e14:	4293      	cmp	r3, r2
    1e16:	f300 808d 	bgt.w	1f34 <quorem+0x124>
    1e1a:	e92d 4ff0 	stmdb	sp!, {r4, r5, r6, r7, r8, r9, sl, fp, lr}
    1e1e:	f103 38ff 	add.w	r8, r3, #4294967295
    1e22:	f101 0714 	add.w	r7, r1, #20
    1e26:	f100 0b14 	add.w	fp, r0, #20
    1e2a:	f857 2028 	ldr.w	r2, [r7, r8, lsl #2]
    1e2e:	f85b 3028 	ldr.w	r3, [fp, r8, lsl #2]
    1e32:	ea4f 0488 	mov.w	r4, r8, lsl #2
    1e36:	b083      	sub	sp, #12
    1e38:	3201      	adds	r2, #1
    1e3a:	fbb3 f9f2 	udiv	r9, r3, r2
    1e3e:	eb0b 0304 	add.w	r3, fp, r4
    1e42:	9400      	str	r4, [sp, #0]
    1e44:	eb07 0a04 	add.w	sl, r7, r4
    1e48:	9301      	str	r3, [sp, #4]
    1e4a:	f1b9 0f00 	cmp.w	r9, #0
    1e4e:	d039      	beq.n	1ec4 <quorem+0xb4>
    1e50:	2500      	movs	r5, #0
    1e52:	462e      	mov	r6, r5
    1e54:	46bc      	mov	ip, r7
    1e56:	46de      	mov	lr, fp
    1e58:	f85c 4b04 	ldr.w	r4, [ip], #4
    1e5c:	f8de 3000 	ldr.w	r3, [lr]
    1e60:	b2a2      	uxth	r2, r4
    1e62:	fb09 5502 	mla	r5, r9, r2, r5
    1e66:	0c22      	lsrs	r2, r4, #16
    1e68:	0c2c      	lsrs	r4, r5, #16
    1e6a:	fb09 4202 	mla	r2, r9, r2, r4
    1e6e:	b2ad      	uxth	r5, r5
    1e70:	1b75      	subs	r5, r6, r5
    1e72:	b296      	uxth	r6, r2
    1e74:	ebc6 4613 	rsb	r6, r6, r3, lsr #16
    1e78:	fa15 f383 	uxtah	r3, r5, r3
    1e7c:	eb06 4623 	add.w	r6, r6, r3, asr #16
    1e80:	b29b      	uxth	r3, r3
    1e82:	ea43 4306 	orr.w	r3, r3, r6, lsl #16
    1e86:	45e2      	cmp	sl, ip
    1e88:	ea4f 4512 	mov.w	r5, r2, lsr #16
    1e8c:	f84e 3b04 	str.w	r3, [lr], #4
    1e90:	ea4f 4626 	mov.w	r6, r6, asr #16
    1e94:	d2e0      	bcs.n	1e58 <quorem+0x48>
    1e96:	9b00      	ldr	r3, [sp, #0]
    1e98:	f85b 3003 	ldr.w	r3, [fp, r3]
    1e9c:	b993      	cbnz	r3, 1ec4 <quorem+0xb4>
    1e9e:	9c01      	ldr	r4, [sp, #4]
    1ea0:	1f23      	subs	r3, r4, #4
    1ea2:	459b      	cmp	fp, r3
    1ea4:	d20c      	bcs.n	1ec0 <quorem+0xb0>
    1ea6:	f854 3c04 	ldr.w	r3, [r4, #-4]
    1eaa:	b94b      	cbnz	r3, 1ec0 <quorem+0xb0>
    1eac:	f1a4 0308 	sub.w	r3, r4, #8
    1eb0:	e002      	b.n	1eb8 <quorem+0xa8>
    1eb2:	681a      	ldr	r2, [r3, #0]
    1eb4:	3b04      	subs	r3, #4
    1eb6:	b91a      	cbnz	r2, 1ec0 <quorem+0xb0>
    1eb8:	459b      	cmp	fp, r3
    1eba:	f108 38ff 	add.w	r8, r8, #4294967295
    1ebe:	d3f8      	bcc.n	1eb2 <quorem+0xa2>
    1ec0:	f8c0 8010 	str.w	r8, [r0, #16]
    1ec4:	4604      	mov	r4, r0
    1ec6:	f002 f847 	bl	3f58 <__mcmp>
    1eca:	2800      	cmp	r0, #0
    1ecc:	db2e      	blt.n	1f2c <quorem+0x11c>
    1ece:	f109 0901 	add.w	r9, r9, #1
    1ed2:	465d      	mov	r5, fp
    1ed4:	2300      	movs	r3, #0
    1ed6:	f857 1b04 	ldr.w	r1, [r7], #4
    1eda:	6828      	ldr	r0, [r5, #0]
    1edc:	b28a      	uxth	r2, r1
    1ede:	1a9a      	subs	r2, r3, r2
    1ee0:	0c0b      	lsrs	r3, r1, #16
    1ee2:	fa12 f280 	uxtah	r2, r2, r0
    1ee6:	ebc3 4310 	rsb	r3, r3, r0, lsr #16
    1eea:	eb03 4322 	add.w	r3, r3, r2, asr #16
    1eee:	b292      	uxth	r2, r2
    1ef0:	ea42 4203 	orr.w	r2, r2, r3, lsl #16
    1ef4:	45ba      	cmp	sl, r7
    1ef6:	f845 2b04 	str.w	r2, [r5], #4
    1efa:	ea4f 4323 	mov.w	r3, r3, asr #16
    1efe:	d2ea      	bcs.n	1ed6 <quorem+0xc6>
    1f00:	f85b 2028 	ldr.w	r2, [fp, r8, lsl #2]
    1f04:	eb0b 0388 	add.w	r3, fp, r8, lsl #2
    1f08:	b982      	cbnz	r2, 1f2c <quorem+0x11c>
    1f0a:	1f1a      	subs	r2, r3, #4
    1f0c:	4593      	cmp	fp, r2
    1f0e:	d20b      	bcs.n	1f28 <quorem+0x118>
    1f10:	f853 2c04 	ldr.w	r2, [r3, #-4]
    1f14:	b942      	cbnz	r2, 1f28 <quorem+0x118>
    1f16:	3b08      	subs	r3, #8
    1f18:	e002      	b.n	1f20 <quorem+0x110>
    1f1a:	681a      	ldr	r2, [r3, #0]
    1f1c:	3b04      	subs	r3, #4
    1f1e:	b91a      	cbnz	r2, 1f28 <quorem+0x118>
    1f20:	459b      	cmp	fp, r3
    1f22:	f108 38ff 	add.w	r8, r8, #4294967295
    1f26:	d3f8      	bcc.n	1f1a <quorem+0x10a>
    1f28:	f8c4 8010 	str.w	r8, [r4, #16]
    1f2c:	4648      	mov	r0, r9
    1f2e:	b003      	add	sp, #12
    1f30:	e8bd 8ff0 	ldmia.w	sp!, {r4, r5, r6, r7, r8, r9, sl, fp, pc}
    1f34:	2000      	movs	r0, #0
    1f36:	4770      	bx	lr

00001f38 <_dtoa_r>:
    1f38:	e92d 4ff0 	stmdb	sp!, {r4, r5, r6, r7, r8, r9, sl, fp, lr}
    1f3c:	6c01      	ldr	r1, [r0, #64]	; 0x40
    1f3e:	b09b      	sub	sp, #108	; 0x6c
    1f40:	4604      	mov	r4, r0
    1f42:	9e27      	ldr	r6, [sp, #156]	; 0x9c
    1f44:	4692      	mov	sl, r2
    1f46:	469b      	mov	fp, r3
    1f48:	b141      	cbz	r1, 1f5c <_dtoa_r+0x24>
    1f4a:	6c42      	ldr	r2, [r0, #68]	; 0x44
    1f4c:	604a      	str	r2, [r1, #4]
    1f4e:	2301      	movs	r3, #1
    1f50:	4093      	lsls	r3, r2
    1f52:	608b      	str	r3, [r1, #8]
    1f54:	f001 fe28 	bl	3ba8 <_Bfree>
    1f58:	2300      	movs	r3, #0
    1f5a:	6423      	str	r3, [r4, #64]	; 0x40
    1f5c:	f1bb 0f00 	cmp.w	fp, #0
    1f60:	465d      	mov	r5, fp
    1f62:	db35      	blt.n	1fd0 <_dtoa_r+0x98>
    1f64:	2300      	movs	r3, #0
    1f66:	6033      	str	r3, [r6, #0]
    1f68:	4b9d      	ldr	r3, [pc, #628]	; (21e0 <_dtoa_r+0x2a8>)
    1f6a:	43ab      	bics	r3, r5
    1f6c:	d015      	beq.n	1f9a <_dtoa_r+0x62>
    1f6e:	4650      	mov	r0, sl
    1f70:	4659      	mov	r1, fp
    1f72:	2200      	movs	r2, #0
    1f74:	2300      	movs	r3, #0
    1f76:	f003 fc43 	bl	5800 <__aeabi_dcmpeq>
    1f7a:	4680      	mov	r8, r0
    1f7c:	2800      	cmp	r0, #0
    1f7e:	d02d      	beq.n	1fdc <_dtoa_r+0xa4>
    1f80:	9a26      	ldr	r2, [sp, #152]	; 0x98
    1f82:	2301      	movs	r3, #1
    1f84:	6013      	str	r3, [r2, #0]
    1f86:	9b28      	ldr	r3, [sp, #160]	; 0xa0
    1f88:	2b00      	cmp	r3, #0
    1f8a:	f000 80bd 	beq.w	2108 <_dtoa_r+0x1d0>
    1f8e:	4895      	ldr	r0, [pc, #596]	; (21e4 <_dtoa_r+0x2ac>)
    1f90:	6018      	str	r0, [r3, #0]
    1f92:	3801      	subs	r0, #1
    1f94:	b01b      	add	sp, #108	; 0x6c
    1f96:	e8bd 8ff0 	ldmia.w	sp!, {r4, r5, r6, r7, r8, r9, sl, fp, pc}
    1f9a:	9a26      	ldr	r2, [sp, #152]	; 0x98
    1f9c:	f242 730f 	movw	r3, #9999	; 0x270f
    1fa0:	6013      	str	r3, [r2, #0]
    1fa2:	f1ba 0f00 	cmp.w	sl, #0
    1fa6:	d10d      	bne.n	1fc4 <_dtoa_r+0x8c>
    1fa8:	f3c5 0513 	ubfx	r5, r5, #0, #20
    1fac:	b955      	cbnz	r5, 1fc4 <_dtoa_r+0x8c>
    1fae:	9b28      	ldr	r3, [sp, #160]	; 0xa0
    1fb0:	488d      	ldr	r0, [pc, #564]	; (21e8 <_dtoa_r+0x2b0>)
    1fb2:	2b00      	cmp	r3, #0
    1fb4:	d0ee      	beq.n	1f94 <_dtoa_r+0x5c>
    1fb6:	f100 0308 	add.w	r3, r0, #8
    1fba:	9a28      	ldr	r2, [sp, #160]	; 0xa0
    1fbc:	6013      	str	r3, [r2, #0]
    1fbe:	b01b      	add	sp, #108	; 0x6c
    1fc0:	e8bd 8ff0 	ldmia.w	sp!, {r4, r5, r6, r7, r8, r9, sl, fp, pc}
    1fc4:	9b28      	ldr	r3, [sp, #160]	; 0xa0
    1fc6:	4889      	ldr	r0, [pc, #548]	; (21ec <_dtoa_r+0x2b4>)
    1fc8:	2b00      	cmp	r3, #0
    1fca:	d0e3      	beq.n	1f94 <_dtoa_r+0x5c>
    1fcc:	1cc3      	adds	r3, r0, #3
    1fce:	e7f4      	b.n	1fba <_dtoa_r+0x82>
    1fd0:	2301      	movs	r3, #1
    1fd2:	f02b 4500 	bic.w	r5, fp, #2147483648	; 0x80000000
    1fd6:	6033      	str	r3, [r6, #0]
    1fd8:	46ab      	mov	fp, r5
    1fda:	e7c5      	b.n	1f68 <_dtoa_r+0x30>
    1fdc:	aa18      	add	r2, sp, #96	; 0x60
    1fde:	ab19      	add	r3, sp, #100	; 0x64
    1fe0:	9201      	str	r2, [sp, #4]
    1fe2:	9300      	str	r3, [sp, #0]
    1fe4:	4652      	mov	r2, sl
    1fe6:	465b      	mov	r3, fp
    1fe8:	4620      	mov	r0, r4
    1fea:	f002 f855 	bl	4098 <__d2b>
    1fee:	0d2b      	lsrs	r3, r5, #20
    1ff0:	4681      	mov	r9, r0
    1ff2:	d071      	beq.n	20d8 <_dtoa_r+0x1a0>
    1ff4:	f3cb 0213 	ubfx	r2, fp, #0, #20
    1ff8:	f042 517f 	orr.w	r1, r2, #1069547520	; 0x3fc00000
    1ffc:	9f18      	ldr	r7, [sp, #96]	; 0x60
    1ffe:	f8cd 8050 	str.w	r8, [sp, #80]	; 0x50
    2002:	4650      	mov	r0, sl
    2004:	f2a3 36ff 	subw	r6, r3, #1023	; 0x3ff
    2008:	f441 1140 	orr.w	r1, r1, #3145728	; 0x300000
    200c:	2200      	movs	r2, #0
    200e:	4b78      	ldr	r3, [pc, #480]	; (21f0 <_dtoa_r+0x2b8>)
    2010:	f002 ffda 	bl	4fc8 <__aeabi_dsub>
    2014:	a36c      	add	r3, pc, #432	; (adr r3, 21c8 <_dtoa_r+0x290>)
    2016:	e9d3 2300 	ldrd	r2, r3, [r3]
    201a:	f003 f989 	bl	5330 <__aeabi_dmul>
    201e:	a36c      	add	r3, pc, #432	; (adr r3, 21d0 <_dtoa_r+0x298>)
    2020:	e9d3 2300 	ldrd	r2, r3, [r3]
    2024:	f002 ffd2 	bl	4fcc <__adddf3>
    2028:	e9cd 0102 	strd	r0, r1, [sp, #8]
    202c:	4630      	mov	r0, r6
    202e:	f003 f919 	bl	5264 <__aeabi_i2d>
    2032:	a369      	add	r3, pc, #420	; (adr r3, 21d8 <_dtoa_r+0x2a0>)
    2034:	e9d3 2300 	ldrd	r2, r3, [r3]
    2038:	f003 f97a 	bl	5330 <__aeabi_dmul>
    203c:	4602      	mov	r2, r0
    203e:	460b      	mov	r3, r1
    2040:	e9dd 0102 	ldrd	r0, r1, [sp, #8]
    2044:	f002 ffc2 	bl	4fcc <__adddf3>
    2048:	e9cd 0104 	strd	r0, r1, [sp, #16]
    204c:	f003 fc20 	bl	5890 <__aeabi_d2iz>
    2050:	2200      	movs	r2, #0
    2052:	9002      	str	r0, [sp, #8]
    2054:	2300      	movs	r3, #0
    2056:	e9dd 0104 	ldrd	r0, r1, [sp, #16]
    205a:	f003 fbdb 	bl	5814 <__aeabi_dcmplt>
    205e:	2800      	cmp	r0, #0
    2060:	f040 8173 	bne.w	234a <_dtoa_r+0x412>
    2064:	9d02      	ldr	r5, [sp, #8]
    2066:	2d16      	cmp	r5, #22
    2068:	f200 815d 	bhi.w	2326 <_dtoa_r+0x3ee>
    206c:	4b61      	ldr	r3, [pc, #388]	; (21f4 <_dtoa_r+0x2bc>)
    206e:	eb03 03c5 	add.w	r3, r3, r5, lsl #3
    2072:	e9d3 0100 	ldrd	r0, r1, [r3]
    2076:	4652      	mov	r2, sl
    2078:	465b      	mov	r3, fp
    207a:	f003 fbe9 	bl	5850 <__aeabi_dcmpgt>
    207e:	2800      	cmp	r0, #0
    2080:	f000 81c5 	beq.w	240e <_dtoa_r+0x4d6>
    2084:	1e6b      	subs	r3, r5, #1
    2086:	9302      	str	r3, [sp, #8]
    2088:	2300      	movs	r3, #0
    208a:	930e      	str	r3, [sp, #56]	; 0x38
    208c:	1bbf      	subs	r7, r7, r6
    208e:	1e7b      	subs	r3, r7, #1
    2090:	9306      	str	r3, [sp, #24]
    2092:	f100 8154 	bmi.w	233e <_dtoa_r+0x406>
    2096:	2300      	movs	r3, #0
    2098:	9308      	str	r3, [sp, #32]
    209a:	9b02      	ldr	r3, [sp, #8]
    209c:	2b00      	cmp	r3, #0
    209e:	f2c0 8145 	blt.w	232c <_dtoa_r+0x3f4>
    20a2:	9a06      	ldr	r2, [sp, #24]
    20a4:	930d      	str	r3, [sp, #52]	; 0x34
    20a6:	4611      	mov	r1, r2
    20a8:	4419      	add	r1, r3
    20aa:	2300      	movs	r3, #0
    20ac:	9106      	str	r1, [sp, #24]
    20ae:	930c      	str	r3, [sp, #48]	; 0x30
    20b0:	9b24      	ldr	r3, [sp, #144]	; 0x90
    20b2:	2b09      	cmp	r3, #9
    20b4:	d82a      	bhi.n	210c <_dtoa_r+0x1d4>
    20b6:	2b05      	cmp	r3, #5
    20b8:	f340 865b 	ble.w	2d72 <_dtoa_r+0xe3a>
    20bc:	3b04      	subs	r3, #4
    20be:	9324      	str	r3, [sp, #144]	; 0x90
    20c0:	2500      	movs	r5, #0
    20c2:	9b24      	ldr	r3, [sp, #144]	; 0x90
    20c4:	3b02      	subs	r3, #2
    20c6:	2b03      	cmp	r3, #3
    20c8:	f200 8642 	bhi.w	2d50 <_dtoa_r+0xe18>
    20cc:	e8df f013 	tbh	[pc, r3, lsl #1]
    20d0:	02c903d4 	.word	0x02c903d4
    20d4:	046103df 	.word	0x046103df
    20d8:	9f18      	ldr	r7, [sp, #96]	; 0x60
    20da:	9e19      	ldr	r6, [sp, #100]	; 0x64
    20dc:	443e      	add	r6, r7
    20de:	f206 4332 	addw	r3, r6, #1074	; 0x432
    20e2:	2b20      	cmp	r3, #32
    20e4:	f340 818e 	ble.w	2404 <_dtoa_r+0x4cc>
    20e8:	f1c3 0340 	rsb	r3, r3, #64	; 0x40
    20ec:	f206 4012 	addw	r0, r6, #1042	; 0x412
    20f0:	409d      	lsls	r5, r3
    20f2:	fa2a f000 	lsr.w	r0, sl, r0
    20f6:	4328      	orrs	r0, r5
    20f8:	f003 f8a4 	bl	5244 <__aeabi_ui2d>
    20fc:	2301      	movs	r3, #1
    20fe:	3e01      	subs	r6, #1
    2100:	f1a1 71f8 	sub.w	r1, r1, #32505856	; 0x1f00000
    2104:	9314      	str	r3, [sp, #80]	; 0x50
    2106:	e781      	b.n	200c <_dtoa_r+0xd4>
    2108:	483b      	ldr	r0, [pc, #236]	; (21f8 <_dtoa_r+0x2c0>)
    210a:	e743      	b.n	1f94 <_dtoa_r+0x5c>
    210c:	2100      	movs	r1, #0
    210e:	6461      	str	r1, [r4, #68]	; 0x44
    2110:	4620      	mov	r0, r4
    2112:	9125      	str	r1, [sp, #148]	; 0x94
    2114:	f001 fd22 	bl	3b5c <_Balloc>
    2118:	f04f 33ff 	mov.w	r3, #4294967295
    211c:	930a      	str	r3, [sp, #40]	; 0x28
    211e:	9a25      	ldr	r2, [sp, #148]	; 0x94
    2120:	930f      	str	r3, [sp, #60]	; 0x3c
    2122:	2301      	movs	r3, #1
    2124:	9004      	str	r0, [sp, #16]
    2126:	6420      	str	r0, [r4, #64]	; 0x40
    2128:	9224      	str	r2, [sp, #144]	; 0x90
    212a:	930b      	str	r3, [sp, #44]	; 0x2c
    212c:	9b19      	ldr	r3, [sp, #100]	; 0x64
    212e:	2b00      	cmp	r3, #0
    2130:	f2c0 80d9 	blt.w	22e6 <_dtoa_r+0x3ae>
    2134:	9a02      	ldr	r2, [sp, #8]
    2136:	2a0e      	cmp	r2, #14
    2138:	f300 80d5 	bgt.w	22e6 <_dtoa_r+0x3ae>
    213c:	4b2d      	ldr	r3, [pc, #180]	; (21f4 <_dtoa_r+0x2bc>)
    213e:	eb03 03c2 	add.w	r3, r3, r2, lsl #3
    2142:	e9d3 2300 	ldrd	r2, r3, [r3]
    2146:	e9cd 2308 	strd	r2, r3, [sp, #32]
    214a:	9b25      	ldr	r3, [sp, #148]	; 0x94
    214c:	2b00      	cmp	r3, #0
    214e:	f2c0 83ba 	blt.w	28c6 <_dtoa_r+0x98e>
    2152:	e9dd 5608 	ldrd	r5, r6, [sp, #32]
    2156:	4650      	mov	r0, sl
    2158:	462a      	mov	r2, r5
    215a:	4633      	mov	r3, r6
    215c:	4659      	mov	r1, fp
    215e:	f003 fa11 	bl	5584 <__aeabi_ddiv>
    2162:	f003 fb95 	bl	5890 <__aeabi_d2iz>
    2166:	4680      	mov	r8, r0
    2168:	f003 f87c 	bl	5264 <__aeabi_i2d>
    216c:	462a      	mov	r2, r5
    216e:	4633      	mov	r3, r6
    2170:	f003 f8de 	bl	5330 <__aeabi_dmul>
    2174:	460b      	mov	r3, r1
    2176:	4602      	mov	r2, r0
    2178:	4659      	mov	r1, fp
    217a:	4650      	mov	r0, sl
    217c:	f002 ff24 	bl	4fc8 <__aeabi_dsub>
    2180:	9d04      	ldr	r5, [sp, #16]
    2182:	f108 0330 	add.w	r3, r8, #48	; 0x30
    2186:	702b      	strb	r3, [r5, #0]
    2188:	9b0a      	ldr	r3, [sp, #40]	; 0x28
    218a:	2b01      	cmp	r3, #1
    218c:	4606      	mov	r6, r0
    218e:	460f      	mov	r7, r1
    2190:	f105 0501 	add.w	r5, r5, #1
    2194:	d068      	beq.n	2268 <_dtoa_r+0x330>
    2196:	2200      	movs	r2, #0
    2198:	4b18      	ldr	r3, [pc, #96]	; (21fc <_dtoa_r+0x2c4>)
    219a:	f003 f8c9 	bl	5330 <__aeabi_dmul>
    219e:	2200      	movs	r2, #0
    21a0:	2300      	movs	r3, #0
    21a2:	4606      	mov	r6, r0
    21a4:	460f      	mov	r7, r1
    21a6:	f003 fb2b 	bl	5800 <__aeabi_dcmpeq>
    21aa:	2800      	cmp	r0, #0
    21ac:	f040 8088 	bne.w	22c0 <_dtoa_r+0x388>
    21b0:	f8cd 902c 	str.w	r9, [sp, #44]	; 0x2c
    21b4:	f04f 0a00 	mov.w	sl, #0
    21b8:	f8df b040 	ldr.w	fp, [pc, #64]	; 21fc <_dtoa_r+0x2c4>
    21bc:	940c      	str	r4, [sp, #48]	; 0x30
    21be:	e9dd 8908 	ldrd	r8, r9, [sp, #32]
    21c2:	e028      	b.n	2216 <_dtoa_r+0x2de>
    21c4:	f3af 8000 	nop.w
    21c8:	636f4361 	.word	0x636f4361
    21cc:	3fd287a7 	.word	0x3fd287a7
    21d0:	8b60c8b3 	.word	0x8b60c8b3
    21d4:	3fc68a28 	.word	0x3fc68a28
    21d8:	509f79fb 	.word	0x509f79fb
    21dc:	3fd34413 	.word	0x3fd34413
    21e0:	7ff00000 	.word	0x7ff00000
    21e4:	00005c4d 	.word	0x00005c4d
    21e8:	00005c70 	.word	0x00005c70
    21ec:	00005c7c 	.word	0x00005c7c
    21f0:	3ff80000 	.word	0x3ff80000
    21f4:	00005ca8 	.word	0x00005ca8
    21f8:	00005c4c 	.word	0x00005c4c
    21fc:	40240000 	.word	0x40240000
    2200:	f003 f896 	bl	5330 <__aeabi_dmul>
    2204:	2200      	movs	r2, #0
    2206:	2300      	movs	r3, #0
    2208:	4606      	mov	r6, r0
    220a:	460f      	mov	r7, r1
    220c:	f003 faf8 	bl	5800 <__aeabi_dcmpeq>
    2210:	2800      	cmp	r0, #0
    2212:	f040 83c1 	bne.w	2998 <_dtoa_r+0xa60>
    2216:	4642      	mov	r2, r8
    2218:	464b      	mov	r3, r9
    221a:	4630      	mov	r0, r6
    221c:	4639      	mov	r1, r7
    221e:	f003 f9b1 	bl	5584 <__aeabi_ddiv>
    2222:	f003 fb35 	bl	5890 <__aeabi_d2iz>
    2226:	4604      	mov	r4, r0
    2228:	f003 f81c 	bl	5264 <__aeabi_i2d>
    222c:	4642      	mov	r2, r8
    222e:	464b      	mov	r3, r9
    2230:	f003 f87e 	bl	5330 <__aeabi_dmul>
    2234:	4602      	mov	r2, r0
    2236:	460b      	mov	r3, r1
    2238:	4630      	mov	r0, r6
    223a:	4639      	mov	r1, r7
    223c:	f002 fec4 	bl	4fc8 <__aeabi_dsub>
    2240:	f104 0e30 	add.w	lr, r4, #48	; 0x30
    2244:	9e04      	ldr	r6, [sp, #16]
    2246:	f805 eb01 	strb.w	lr, [r5], #1
    224a:	eba5 0e06 	sub.w	lr, r5, r6
    224e:	9e0a      	ldr	r6, [sp, #40]	; 0x28
    2250:	45b6      	cmp	lr, r6
    2252:	e9cd 0106 	strd	r0, r1, [sp, #24]
    2256:	4652      	mov	r2, sl
    2258:	465b      	mov	r3, fp
    225a:	d1d1      	bne.n	2200 <_dtoa_r+0x2c8>
    225c:	46a0      	mov	r8, r4
    225e:	f8dd 902c 	ldr.w	r9, [sp, #44]	; 0x2c
    2262:	9c0c      	ldr	r4, [sp, #48]	; 0x30
    2264:	4606      	mov	r6, r0
    2266:	460f      	mov	r7, r1
    2268:	4632      	mov	r2, r6
    226a:	463b      	mov	r3, r7
    226c:	4630      	mov	r0, r6
    226e:	4639      	mov	r1, r7
    2270:	f002 feac 	bl	4fcc <__adddf3>
    2274:	4606      	mov	r6, r0
    2276:	460f      	mov	r7, r1
    2278:	4602      	mov	r2, r0
    227a:	460b      	mov	r3, r1
    227c:	e9dd 0108 	ldrd	r0, r1, [sp, #32]
    2280:	f003 fac8 	bl	5814 <__aeabi_dcmplt>
    2284:	b948      	cbnz	r0, 229a <_dtoa_r+0x362>
    2286:	4632      	mov	r2, r6
    2288:	463b      	mov	r3, r7
    228a:	e9dd 0108 	ldrd	r0, r1, [sp, #32]
    228e:	f003 fab7 	bl	5800 <__aeabi_dcmpeq>
    2292:	b1a8      	cbz	r0, 22c0 <_dtoa_r+0x388>
    2294:	f018 0f01 	tst.w	r8, #1
    2298:	d012      	beq.n	22c0 <_dtoa_r+0x388>
    229a:	f815 8c01 	ldrb.w	r8, [r5, #-1]
    229e:	9a04      	ldr	r2, [sp, #16]
    22a0:	1e6b      	subs	r3, r5, #1
    22a2:	e004      	b.n	22ae <_dtoa_r+0x376>
    22a4:	429a      	cmp	r2, r3
    22a6:	f000 8401 	beq.w	2aac <_dtoa_r+0xb74>
    22aa:	f813 8d01 	ldrb.w	r8, [r3, #-1]!
    22ae:	f1b8 0f39 	cmp.w	r8, #57	; 0x39
    22b2:	f103 0501 	add.w	r5, r3, #1
    22b6:	d0f5      	beq.n	22a4 <_dtoa_r+0x36c>
    22b8:	f108 0801 	add.w	r8, r8, #1
    22bc:	f883 8000 	strb.w	r8, [r3]
    22c0:	4649      	mov	r1, r9
    22c2:	4620      	mov	r0, r4
    22c4:	f001 fc70 	bl	3ba8 <_Bfree>
    22c8:	2200      	movs	r2, #0
    22ca:	9b02      	ldr	r3, [sp, #8]
    22cc:	702a      	strb	r2, [r5, #0]
    22ce:	9a26      	ldr	r2, [sp, #152]	; 0x98
    22d0:	3301      	adds	r3, #1
    22d2:	6013      	str	r3, [r2, #0]
    22d4:	9b28      	ldr	r3, [sp, #160]	; 0xa0
    22d6:	2b00      	cmp	r3, #0
    22d8:	f000 839e 	beq.w	2a18 <_dtoa_r+0xae0>
    22dc:	9804      	ldr	r0, [sp, #16]
    22de:	601d      	str	r5, [r3, #0]
    22e0:	b01b      	add	sp, #108	; 0x6c
    22e2:	e8bd 8ff0 	ldmia.w	sp!, {r4, r5, r6, r7, r8, r9, sl, fp, pc}
    22e6:	9a0b      	ldr	r2, [sp, #44]	; 0x2c
    22e8:	2a00      	cmp	r2, #0
    22ea:	d03e      	beq.n	236a <_dtoa_r+0x432>
    22ec:	9a24      	ldr	r2, [sp, #144]	; 0x90
    22ee:	2a01      	cmp	r2, #1
    22f0:	f340 8311 	ble.w	2916 <_dtoa_r+0x9de>
    22f4:	9b0a      	ldr	r3, [sp, #40]	; 0x28
    22f6:	9a0c      	ldr	r2, [sp, #48]	; 0x30
    22f8:	1e5f      	subs	r7, r3, #1
    22fa:	42ba      	cmp	r2, r7
    22fc:	f2c0 838f 	blt.w	2a1e <_dtoa_r+0xae6>
    2300:	1bd7      	subs	r7, r2, r7
    2302:	9b0a      	ldr	r3, [sp, #40]	; 0x28
    2304:	2b00      	cmp	r3, #0
    2306:	f2c0 848b 	blt.w	2c20 <_dtoa_r+0xce8>
    230a:	9d08      	ldr	r5, [sp, #32]
    230c:	9b0a      	ldr	r3, [sp, #40]	; 0x28
    230e:	9a08      	ldr	r2, [sp, #32]
    2310:	441a      	add	r2, r3
    2312:	9208      	str	r2, [sp, #32]
    2314:	9a06      	ldr	r2, [sp, #24]
    2316:	2101      	movs	r1, #1
    2318:	441a      	add	r2, r3
    231a:	4620      	mov	r0, r4
    231c:	9206      	str	r2, [sp, #24]
    231e:	f001 fcdd 	bl	3cdc <__i2b>
    2322:	4606      	mov	r6, r0
    2324:	e024      	b.n	2370 <_dtoa_r+0x438>
    2326:	2301      	movs	r3, #1
    2328:	930e      	str	r3, [sp, #56]	; 0x38
    232a:	e6af      	b.n	208c <_dtoa_r+0x154>
    232c:	9a08      	ldr	r2, [sp, #32]
    232e:	9b02      	ldr	r3, [sp, #8]
    2330:	1ad2      	subs	r2, r2, r3
    2332:	425b      	negs	r3, r3
    2334:	930c      	str	r3, [sp, #48]	; 0x30
    2336:	2300      	movs	r3, #0
    2338:	9208      	str	r2, [sp, #32]
    233a:	930d      	str	r3, [sp, #52]	; 0x34
    233c:	e6b8      	b.n	20b0 <_dtoa_r+0x178>
    233e:	f1c7 0301 	rsb	r3, r7, #1
    2342:	9308      	str	r3, [sp, #32]
    2344:	2300      	movs	r3, #0
    2346:	9306      	str	r3, [sp, #24]
    2348:	e6a7      	b.n	209a <_dtoa_r+0x162>
    234a:	9d02      	ldr	r5, [sp, #8]
    234c:	4628      	mov	r0, r5
    234e:	f002 ff89 	bl	5264 <__aeabi_i2d>
    2352:	4602      	mov	r2, r0
    2354:	460b      	mov	r3, r1
    2356:	e9dd 0104 	ldrd	r0, r1, [sp, #16]
    235a:	f003 fa51 	bl	5800 <__aeabi_dcmpeq>
    235e:	2800      	cmp	r0, #0
    2360:	f47f ae80 	bne.w	2064 <_dtoa_r+0x12c>
    2364:	1e6b      	subs	r3, r5, #1
    2366:	9302      	str	r3, [sp, #8]
    2368:	e67c      	b.n	2064 <_dtoa_r+0x12c>
    236a:	9f0c      	ldr	r7, [sp, #48]	; 0x30
    236c:	9d08      	ldr	r5, [sp, #32]
    236e:	9e0b      	ldr	r6, [sp, #44]	; 0x2c
    2370:	2d00      	cmp	r5, #0
    2372:	dd0c      	ble.n	238e <_dtoa_r+0x456>
    2374:	9906      	ldr	r1, [sp, #24]
    2376:	2900      	cmp	r1, #0
    2378:	460b      	mov	r3, r1
    237a:	dd08      	ble.n	238e <_dtoa_r+0x456>
    237c:	42a9      	cmp	r1, r5
    237e:	9a08      	ldr	r2, [sp, #32]
    2380:	bfa8      	it	ge
    2382:	462b      	movge	r3, r5
    2384:	1ad2      	subs	r2, r2, r3
    2386:	1aed      	subs	r5, r5, r3
    2388:	1acb      	subs	r3, r1, r3
    238a:	9208      	str	r2, [sp, #32]
    238c:	9306      	str	r3, [sp, #24]
    238e:	9b0c      	ldr	r3, [sp, #48]	; 0x30
    2390:	b1d3      	cbz	r3, 23c8 <_dtoa_r+0x490>
    2392:	9b0b      	ldr	r3, [sp, #44]	; 0x2c
    2394:	2b00      	cmp	r3, #0
    2396:	f000 82b7 	beq.w	2908 <_dtoa_r+0x9d0>
    239a:	2f00      	cmp	r7, #0
    239c:	dd10      	ble.n	23c0 <_dtoa_r+0x488>
    239e:	4631      	mov	r1, r6
    23a0:	463a      	mov	r2, r7
    23a2:	4620      	mov	r0, r4
    23a4:	f001 fd36 	bl	3e14 <__pow5mult>
    23a8:	464a      	mov	r2, r9
    23aa:	4601      	mov	r1, r0
    23ac:	4606      	mov	r6, r0
    23ae:	4620      	mov	r0, r4
    23b0:	f001 fc9e 	bl	3cf0 <__multiply>
    23b4:	4649      	mov	r1, r9
    23b6:	4680      	mov	r8, r0
    23b8:	4620      	mov	r0, r4
    23ba:	f001 fbf5 	bl	3ba8 <_Bfree>
    23be:	46c1      	mov	r9, r8
    23c0:	9b0c      	ldr	r3, [sp, #48]	; 0x30
    23c2:	1bda      	subs	r2, r3, r7
    23c4:	f040 82a1 	bne.w	290a <_dtoa_r+0x9d2>
    23c8:	2101      	movs	r1, #1
    23ca:	4620      	mov	r0, r4
    23cc:	f001 fc86 	bl	3cdc <__i2b>
    23d0:	9b0d      	ldr	r3, [sp, #52]	; 0x34
    23d2:	2b00      	cmp	r3, #0
    23d4:	4680      	mov	r8, r0
    23d6:	dd1c      	ble.n	2412 <_dtoa_r+0x4da>
    23d8:	4601      	mov	r1, r0
    23da:	461a      	mov	r2, r3
    23dc:	4620      	mov	r0, r4
    23de:	f001 fd19 	bl	3e14 <__pow5mult>
    23e2:	9b24      	ldr	r3, [sp, #144]	; 0x90
    23e4:	2b01      	cmp	r3, #1
    23e6:	4680      	mov	r8, r0
    23e8:	f340 8254 	ble.w	2894 <_dtoa_r+0x95c>
    23ec:	2300      	movs	r3, #0
    23ee:	930c      	str	r3, [sp, #48]	; 0x30
    23f0:	f8d8 3010 	ldr.w	r3, [r8, #16]
    23f4:	eb08 0383 	add.w	r3, r8, r3, lsl #2
    23f8:	6918      	ldr	r0, [r3, #16]
    23fa:	f001 fc1f 	bl	3c3c <__hi0bits>
    23fe:	f1c0 0020 	rsb	r0, r0, #32
    2402:	e010      	b.n	2426 <_dtoa_r+0x4ee>
    2404:	f1c3 0520 	rsb	r5, r3, #32
    2408:	fa0a f005 	lsl.w	r0, sl, r5
    240c:	e674      	b.n	20f8 <_dtoa_r+0x1c0>
    240e:	900e      	str	r0, [sp, #56]	; 0x38
    2410:	e63c      	b.n	208c <_dtoa_r+0x154>
    2412:	9b24      	ldr	r3, [sp, #144]	; 0x90
    2414:	2b01      	cmp	r3, #1
    2416:	f340 8287 	ble.w	2928 <_dtoa_r+0x9f0>
    241a:	2300      	movs	r3, #0
    241c:	930c      	str	r3, [sp, #48]	; 0x30
    241e:	9b0d      	ldr	r3, [sp, #52]	; 0x34
    2420:	2001      	movs	r0, #1
    2422:	2b00      	cmp	r3, #0
    2424:	d1e4      	bne.n	23f0 <_dtoa_r+0x4b8>
    2426:	9a06      	ldr	r2, [sp, #24]
    2428:	4410      	add	r0, r2
    242a:	f010 001f 	ands.w	r0, r0, #31
    242e:	f000 80a1 	beq.w	2574 <_dtoa_r+0x63c>
    2432:	f1c0 0320 	rsb	r3, r0, #32
    2436:	2b04      	cmp	r3, #4
    2438:	f340 849e 	ble.w	2d78 <_dtoa_r+0xe40>
    243c:	9b08      	ldr	r3, [sp, #32]
    243e:	f1c0 001c 	rsb	r0, r0, #28
    2442:	4403      	add	r3, r0
    2444:	9308      	str	r3, [sp, #32]
    2446:	4613      	mov	r3, r2
    2448:	4403      	add	r3, r0
    244a:	4405      	add	r5, r0
    244c:	9306      	str	r3, [sp, #24]
    244e:	9b08      	ldr	r3, [sp, #32]
    2450:	2b00      	cmp	r3, #0
    2452:	dd05      	ble.n	2460 <_dtoa_r+0x528>
    2454:	4649      	mov	r1, r9
    2456:	461a      	mov	r2, r3
    2458:	4620      	mov	r0, r4
    245a:	f001 fd2b 	bl	3eb4 <__lshift>
    245e:	4681      	mov	r9, r0
    2460:	9b06      	ldr	r3, [sp, #24]
    2462:	2b00      	cmp	r3, #0
    2464:	dd05      	ble.n	2472 <_dtoa_r+0x53a>
    2466:	4641      	mov	r1, r8
    2468:	461a      	mov	r2, r3
    246a:	4620      	mov	r0, r4
    246c:	f001 fd22 	bl	3eb4 <__lshift>
    2470:	4680      	mov	r8, r0
    2472:	9b0e      	ldr	r3, [sp, #56]	; 0x38
    2474:	2b00      	cmp	r3, #0
    2476:	f040 8086 	bne.w	2586 <_dtoa_r+0x64e>
    247a:	9b0a      	ldr	r3, [sp, #40]	; 0x28
    247c:	2b00      	cmp	r3, #0
    247e:	f340 8266 	ble.w	294e <_dtoa_r+0xa16>
    2482:	9b0b      	ldr	r3, [sp, #44]	; 0x2c
    2484:	2b00      	cmp	r3, #0
    2486:	f000 8098 	beq.w	25ba <_dtoa_r+0x682>
    248a:	2d00      	cmp	r5, #0
    248c:	dd05      	ble.n	249a <_dtoa_r+0x562>
    248e:	4631      	mov	r1, r6
    2490:	462a      	mov	r2, r5
    2492:	4620      	mov	r0, r4
    2494:	f001 fd0e 	bl	3eb4 <__lshift>
    2498:	4606      	mov	r6, r0
    249a:	9b0c      	ldr	r3, [sp, #48]	; 0x30
    249c:	2b00      	cmp	r3, #0
    249e:	f040 8337 	bne.w	2b10 <_dtoa_r+0xbd8>
    24a2:	9606      	str	r6, [sp, #24]
    24a4:	9b0a      	ldr	r3, [sp, #40]	; 0x28
    24a6:	9a04      	ldr	r2, [sp, #16]
    24a8:	f8dd b018 	ldr.w	fp, [sp, #24]
    24ac:	3b01      	subs	r3, #1
    24ae:	18d3      	adds	r3, r2, r3
    24b0:	930b      	str	r3, [sp, #44]	; 0x2c
    24b2:	f00a 0301 	and.w	r3, sl, #1
    24b6:	930c      	str	r3, [sp, #48]	; 0x30
    24b8:	4617      	mov	r7, r2
    24ba:	46c2      	mov	sl, r8
    24bc:	4651      	mov	r1, sl
    24be:	4648      	mov	r0, r9
    24c0:	f7ff fca6 	bl	1e10 <quorem>
    24c4:	4631      	mov	r1, r6
    24c6:	4605      	mov	r5, r0
    24c8:	4648      	mov	r0, r9
    24ca:	f001 fd45 	bl	3f58 <__mcmp>
    24ce:	465a      	mov	r2, fp
    24d0:	900a      	str	r0, [sp, #40]	; 0x28
    24d2:	4651      	mov	r1, sl
    24d4:	4620      	mov	r0, r4
    24d6:	f001 fd5b 	bl	3f90 <__mdiff>
    24da:	68c2      	ldr	r2, [r0, #12]
    24dc:	4680      	mov	r8, r0
    24de:	f105 0330 	add.w	r3, r5, #48	; 0x30
    24e2:	2a00      	cmp	r2, #0
    24e4:	f040 822b 	bne.w	293e <_dtoa_r+0xa06>
    24e8:	4601      	mov	r1, r0
    24ea:	4648      	mov	r0, r9
    24ec:	9308      	str	r3, [sp, #32]
    24ee:	f001 fd33 	bl	3f58 <__mcmp>
    24f2:	4641      	mov	r1, r8
    24f4:	9006      	str	r0, [sp, #24]
    24f6:	4620      	mov	r0, r4
    24f8:	f001 fb56 	bl	3ba8 <_Bfree>
    24fc:	9a06      	ldr	r2, [sp, #24]
    24fe:	9b08      	ldr	r3, [sp, #32]
    2500:	b932      	cbnz	r2, 2510 <_dtoa_r+0x5d8>
    2502:	9924      	ldr	r1, [sp, #144]	; 0x90
    2504:	b921      	cbnz	r1, 2510 <_dtoa_r+0x5d8>
    2506:	9a0c      	ldr	r2, [sp, #48]	; 0x30
    2508:	2a00      	cmp	r2, #0
    250a:	f000 83ef 	beq.w	2cec <_dtoa_r+0xdb4>
    250e:	9a24      	ldr	r2, [sp, #144]	; 0x90
    2510:	990a      	ldr	r1, [sp, #40]	; 0x28
    2512:	2900      	cmp	r1, #0
    2514:	f2c0 829f 	blt.w	2a56 <_dtoa_r+0xb1e>
    2518:	d105      	bne.n	2526 <_dtoa_r+0x5ee>
    251a:	9924      	ldr	r1, [sp, #144]	; 0x90
    251c:	b919      	cbnz	r1, 2526 <_dtoa_r+0x5ee>
    251e:	990c      	ldr	r1, [sp, #48]	; 0x30
    2520:	2900      	cmp	r1, #0
    2522:	f000 8298 	beq.w	2a56 <_dtoa_r+0xb1e>
    2526:	2a00      	cmp	r2, #0
    2528:	f300 8306 	bgt.w	2b38 <_dtoa_r+0xc00>
    252c:	9a0b      	ldr	r2, [sp, #44]	; 0x2c
    252e:	703b      	strb	r3, [r7, #0]
    2530:	f107 0801 	add.w	r8, r7, #1
    2534:	4297      	cmp	r7, r2
    2536:	4645      	mov	r5, r8
    2538:	f000 830c 	beq.w	2b54 <_dtoa_r+0xc1c>
    253c:	4649      	mov	r1, r9
    253e:	2300      	movs	r3, #0
    2540:	220a      	movs	r2, #10
    2542:	4620      	mov	r0, r4
    2544:	f001 fb3a 	bl	3bbc <__multadd>
    2548:	455e      	cmp	r6, fp
    254a:	4681      	mov	r9, r0
    254c:	4631      	mov	r1, r6
    254e:	f04f 0300 	mov.w	r3, #0
    2552:	f04f 020a 	mov.w	r2, #10
    2556:	4620      	mov	r0, r4
    2558:	f000 81eb 	beq.w	2932 <_dtoa_r+0x9fa>
    255c:	f001 fb2e 	bl	3bbc <__multadd>
    2560:	4659      	mov	r1, fp
    2562:	4606      	mov	r6, r0
    2564:	2300      	movs	r3, #0
    2566:	220a      	movs	r2, #10
    2568:	4620      	mov	r0, r4
    256a:	f001 fb27 	bl	3bbc <__multadd>
    256e:	4647      	mov	r7, r8
    2570:	4683      	mov	fp, r0
    2572:	e7a3      	b.n	24bc <_dtoa_r+0x584>
    2574:	201c      	movs	r0, #28
    2576:	9b08      	ldr	r3, [sp, #32]
    2578:	4403      	add	r3, r0
    257a:	9308      	str	r3, [sp, #32]
    257c:	9b06      	ldr	r3, [sp, #24]
    257e:	4403      	add	r3, r0
    2580:	4405      	add	r5, r0
    2582:	9306      	str	r3, [sp, #24]
    2584:	e763      	b.n	244e <_dtoa_r+0x516>
    2586:	4641      	mov	r1, r8
    2588:	4648      	mov	r0, r9
    258a:	f001 fce5 	bl	3f58 <__mcmp>
    258e:	2800      	cmp	r0, #0
    2590:	f6bf af73 	bge.w	247a <_dtoa_r+0x542>
    2594:	9f02      	ldr	r7, [sp, #8]
    2596:	4649      	mov	r1, r9
    2598:	2300      	movs	r3, #0
    259a:	220a      	movs	r2, #10
    259c:	4620      	mov	r0, r4
    259e:	3f01      	subs	r7, #1
    25a0:	9702      	str	r7, [sp, #8]
    25a2:	f001 fb0b 	bl	3bbc <__multadd>
    25a6:	9b0b      	ldr	r3, [sp, #44]	; 0x2c
    25a8:	4681      	mov	r9, r0
    25aa:	2b00      	cmp	r3, #0
    25ac:	f040 83b6 	bne.w	2d1c <_dtoa_r+0xde4>
    25b0:	9b0f      	ldr	r3, [sp, #60]	; 0x3c
    25b2:	2b00      	cmp	r3, #0
    25b4:	f340 83bf 	ble.w	2d36 <_dtoa_r+0xdfe>
    25b8:	930a      	str	r3, [sp, #40]	; 0x28
    25ba:	f8dd b010 	ldr.w	fp, [sp, #16]
    25be:	9f0a      	ldr	r7, [sp, #40]	; 0x28
    25c0:	465d      	mov	r5, fp
    25c2:	e002      	b.n	25ca <_dtoa_r+0x692>
    25c4:	f001 fafa 	bl	3bbc <__multadd>
    25c8:	4681      	mov	r9, r0
    25ca:	4641      	mov	r1, r8
    25cc:	4648      	mov	r0, r9
    25ce:	f7ff fc1f 	bl	1e10 <quorem>
    25d2:	f100 0a30 	add.w	sl, r0, #48	; 0x30
    25d6:	f805 ab01 	strb.w	sl, [r5], #1
    25da:	eba5 030b 	sub.w	r3, r5, fp
    25de:	42bb      	cmp	r3, r7
    25e0:	f04f 020a 	mov.w	r2, #10
    25e4:	f04f 0300 	mov.w	r3, #0
    25e8:	4649      	mov	r1, r9
    25ea:	4620      	mov	r0, r4
    25ec:	dbea      	blt.n	25c4 <_dtoa_r+0x68c>
    25ee:	9b04      	ldr	r3, [sp, #16]
    25f0:	9a0a      	ldr	r2, [sp, #40]	; 0x28
    25f2:	2a01      	cmp	r2, #1
    25f4:	bfac      	ite	ge
    25f6:	189b      	addge	r3, r3, r2
    25f8:	3301      	addlt	r3, #1
    25fa:	461d      	mov	r5, r3
    25fc:	f04f 0b00 	mov.w	fp, #0
    2600:	4649      	mov	r1, r9
    2602:	2201      	movs	r2, #1
    2604:	4620      	mov	r0, r4
    2606:	f001 fc55 	bl	3eb4 <__lshift>
    260a:	4641      	mov	r1, r8
    260c:	4681      	mov	r9, r0
    260e:	f001 fca3 	bl	3f58 <__mcmp>
    2612:	2800      	cmp	r0, #0
    2614:	f340 823d 	ble.w	2a92 <_dtoa_r+0xb5a>
    2618:	f815 2c01 	ldrb.w	r2, [r5, #-1]
    261c:	9904      	ldr	r1, [sp, #16]
    261e:	1e6b      	subs	r3, r5, #1
    2620:	e004      	b.n	262c <_dtoa_r+0x6f4>
    2622:	428b      	cmp	r3, r1
    2624:	f000 81ae 	beq.w	2984 <_dtoa_r+0xa4c>
    2628:	f813 2d01 	ldrb.w	r2, [r3, #-1]!
    262c:	2a39      	cmp	r2, #57	; 0x39
    262e:	f103 0501 	add.w	r5, r3, #1
    2632:	d0f6      	beq.n	2622 <_dtoa_r+0x6ea>
    2634:	3201      	adds	r2, #1
    2636:	701a      	strb	r2, [r3, #0]
    2638:	4641      	mov	r1, r8
    263a:	4620      	mov	r0, r4
    263c:	f001 fab4 	bl	3ba8 <_Bfree>
    2640:	2e00      	cmp	r6, #0
    2642:	f43f ae3d 	beq.w	22c0 <_dtoa_r+0x388>
    2646:	f1bb 0f00 	cmp.w	fp, #0
    264a:	d005      	beq.n	2658 <_dtoa_r+0x720>
    264c:	45b3      	cmp	fp, r6
    264e:	d003      	beq.n	2658 <_dtoa_r+0x720>
    2650:	4659      	mov	r1, fp
    2652:	4620      	mov	r0, r4
    2654:	f001 faa8 	bl	3ba8 <_Bfree>
    2658:	4631      	mov	r1, r6
    265a:	4620      	mov	r0, r4
    265c:	f001 faa4 	bl	3ba8 <_Bfree>
    2660:	e62e      	b.n	22c0 <_dtoa_r+0x388>
    2662:	2300      	movs	r3, #0
    2664:	930b      	str	r3, [sp, #44]	; 0x2c
    2666:	9b02      	ldr	r3, [sp, #8]
    2668:	9a25      	ldr	r2, [sp, #148]	; 0x94
    266a:	4413      	add	r3, r2
    266c:	930f      	str	r3, [sp, #60]	; 0x3c
    266e:	3301      	adds	r3, #1
    2670:	2b01      	cmp	r3, #1
    2672:	461f      	mov	r7, r3
    2674:	461e      	mov	r6, r3
    2676:	930a      	str	r3, [sp, #40]	; 0x28
    2678:	bfb8      	it	lt
    267a:	2701      	movlt	r7, #1
    267c:	2100      	movs	r1, #0
    267e:	2f17      	cmp	r7, #23
    2680:	6461      	str	r1, [r4, #68]	; 0x44
    2682:	d90a      	bls.n	269a <_dtoa_r+0x762>
    2684:	2201      	movs	r2, #1
    2686:	2304      	movs	r3, #4
    2688:	005b      	lsls	r3, r3, #1
    268a:	f103 0014 	add.w	r0, r3, #20
    268e:	4287      	cmp	r7, r0
    2690:	4611      	mov	r1, r2
    2692:	f102 0201 	add.w	r2, r2, #1
    2696:	d2f7      	bcs.n	2688 <_dtoa_r+0x750>
    2698:	6461      	str	r1, [r4, #68]	; 0x44
    269a:	4620      	mov	r0, r4
    269c:	f001 fa5e 	bl	3b5c <_Balloc>
    26a0:	2e0e      	cmp	r6, #14
    26a2:	9004      	str	r0, [sp, #16]
    26a4:	6420      	str	r0, [r4, #64]	; 0x40
    26a6:	f63f ad41 	bhi.w	212c <_dtoa_r+0x1f4>
    26aa:	2d00      	cmp	r5, #0
    26ac:	f43f ad3e 	beq.w	212c <_dtoa_r+0x1f4>
    26b0:	9902      	ldr	r1, [sp, #8]
    26b2:	2900      	cmp	r1, #0
    26b4:	e9cd ab10 	strd	sl, fp, [sp, #64]	; 0x40
    26b8:	f340 8202 	ble.w	2ac0 <_dtoa_r+0xb88>
    26bc:	4bb8      	ldr	r3, [pc, #736]	; (29a0 <_dtoa_r+0xa68>)
    26be:	f001 020f 	and.w	r2, r1, #15
    26c2:	110d      	asrs	r5, r1, #4
    26c4:	eb03 03c2 	add.w	r3, r3, r2, lsl #3
    26c8:	06e9      	lsls	r1, r5, #27
    26ca:	e9d3 6700 	ldrd	r6, r7, [r3]
    26ce:	f140 81ae 	bpl.w	2a2e <_dtoa_r+0xaf6>
    26d2:	4bb4      	ldr	r3, [pc, #720]	; (29a4 <_dtoa_r+0xa6c>)
    26d4:	4650      	mov	r0, sl
    26d6:	4659      	mov	r1, fp
    26d8:	e9d3 2308 	ldrd	r2, r3, [r3, #32]
    26dc:	f002 ff52 	bl	5584 <__aeabi_ddiv>
    26e0:	e9cd 0112 	strd	r0, r1, [sp, #72]	; 0x48
    26e4:	f005 050f 	and.w	r5, r5, #15
    26e8:	f04f 0a03 	mov.w	sl, #3
    26ec:	b18d      	cbz	r5, 2712 <_dtoa_r+0x7da>
    26ee:	f8df 82b4 	ldr.w	r8, [pc, #692]	; 29a4 <_dtoa_r+0xa6c>
    26f2:	07ea      	lsls	r2, r5, #31
    26f4:	d509      	bpl.n	270a <_dtoa_r+0x7d2>
    26f6:	4630      	mov	r0, r6
    26f8:	4639      	mov	r1, r7
    26fa:	e9d8 2300 	ldrd	r2, r3, [r8]
    26fe:	f002 fe17 	bl	5330 <__aeabi_dmul>
    2702:	f10a 0a01 	add.w	sl, sl, #1
    2706:	4606      	mov	r6, r0
    2708:	460f      	mov	r7, r1
    270a:	106d      	asrs	r5, r5, #1
    270c:	f108 0808 	add.w	r8, r8, #8
    2710:	d1ef      	bne.n	26f2 <_dtoa_r+0x7ba>
    2712:	463b      	mov	r3, r7
    2714:	4632      	mov	r2, r6
    2716:	e9dd 0112 	ldrd	r0, r1, [sp, #72]	; 0x48
    271a:	f002 ff33 	bl	5584 <__aeabi_ddiv>
    271e:	4607      	mov	r7, r0
    2720:	4688      	mov	r8, r1
    2722:	9b0e      	ldr	r3, [sp, #56]	; 0x38
    2724:	b143      	cbz	r3, 2738 <_dtoa_r+0x800>
    2726:	2200      	movs	r2, #0
    2728:	4b9f      	ldr	r3, [pc, #636]	; (29a8 <_dtoa_r+0xa70>)
    272a:	4638      	mov	r0, r7
    272c:	4641      	mov	r1, r8
    272e:	f003 f871 	bl	5814 <__aeabi_dcmplt>
    2732:	2800      	cmp	r0, #0
    2734:	f040 8286 	bne.w	2c44 <_dtoa_r+0xd0c>
    2738:	4650      	mov	r0, sl
    273a:	f002 fd93 	bl	5264 <__aeabi_i2d>
    273e:	463a      	mov	r2, r7
    2740:	4643      	mov	r3, r8
    2742:	f002 fdf5 	bl	5330 <__aeabi_dmul>
    2746:	4b99      	ldr	r3, [pc, #612]	; (29ac <_dtoa_r+0xa74>)
    2748:	2200      	movs	r2, #0
    274a:	f002 fc3f 	bl	4fcc <__adddf3>
    274e:	9b0a      	ldr	r3, [sp, #40]	; 0x28
    2750:	4605      	mov	r5, r0
    2752:	f1a1 7650 	sub.w	r6, r1, #54525952	; 0x3400000
    2756:	2b00      	cmp	r3, #0
    2758:	f000 813e 	beq.w	29d8 <_dtoa_r+0xaa0>
    275c:	9b02      	ldr	r3, [sp, #8]
    275e:	9315      	str	r3, [sp, #84]	; 0x54
    2760:	9b0a      	ldr	r3, [sp, #40]	; 0x28
    2762:	9312      	str	r3, [sp, #72]	; 0x48
    2764:	9b0b      	ldr	r3, [sp, #44]	; 0x2c
    2766:	2b00      	cmp	r3, #0
    2768:	f000 81fa 	beq.w	2b60 <_dtoa_r+0xc28>
    276c:	9a12      	ldr	r2, [sp, #72]	; 0x48
    276e:	4b8c      	ldr	r3, [pc, #560]	; (29a0 <_dtoa_r+0xa68>)
    2770:	498f      	ldr	r1, [pc, #572]	; (29b0 <_dtoa_r+0xa78>)
    2772:	eb03 03c2 	add.w	r3, r3, r2, lsl #3
    2776:	e953 2302 	ldrd	r2, r3, [r3, #-8]
    277a:	2000      	movs	r0, #0
    277c:	f002 ff02 	bl	5584 <__aeabi_ddiv>
    2780:	462a      	mov	r2, r5
    2782:	4633      	mov	r3, r6
    2784:	f002 fc20 	bl	4fc8 <__aeabi_dsub>
    2788:	4682      	mov	sl, r0
    278a:	468b      	mov	fp, r1
    278c:	4638      	mov	r0, r7
    278e:	4641      	mov	r1, r8
    2790:	f003 f87e 	bl	5890 <__aeabi_d2iz>
    2794:	4605      	mov	r5, r0
    2796:	f002 fd65 	bl	5264 <__aeabi_i2d>
    279a:	4602      	mov	r2, r0
    279c:	460b      	mov	r3, r1
    279e:	4638      	mov	r0, r7
    27a0:	4641      	mov	r1, r8
    27a2:	f002 fc11 	bl	4fc8 <__aeabi_dsub>
    27a6:	3530      	adds	r5, #48	; 0x30
    27a8:	fa5f f885 	uxtb.w	r8, r5
    27ac:	9d04      	ldr	r5, [sp, #16]
    27ae:	4606      	mov	r6, r0
    27b0:	460f      	mov	r7, r1
    27b2:	f885 8000 	strb.w	r8, [r5]
    27b6:	4602      	mov	r2, r0
    27b8:	460b      	mov	r3, r1
    27ba:	4650      	mov	r0, sl
    27bc:	4659      	mov	r1, fp
    27be:	3501      	adds	r5, #1
    27c0:	f003 f846 	bl	5850 <__aeabi_dcmpgt>
    27c4:	2800      	cmp	r0, #0
    27c6:	d154      	bne.n	2872 <_dtoa_r+0x93a>
    27c8:	4632      	mov	r2, r6
    27ca:	463b      	mov	r3, r7
    27cc:	2000      	movs	r0, #0
    27ce:	4976      	ldr	r1, [pc, #472]	; (29a8 <_dtoa_r+0xa70>)
    27d0:	f002 fbfa 	bl	4fc8 <__aeabi_dsub>
    27d4:	4602      	mov	r2, r0
    27d6:	460b      	mov	r3, r1
    27d8:	4650      	mov	r0, sl
    27da:	4659      	mov	r1, fp
    27dc:	f003 f838 	bl	5850 <__aeabi_dcmpgt>
    27e0:	2800      	cmp	r0, #0
    27e2:	f040 8270 	bne.w	2cc6 <_dtoa_r+0xd8e>
    27e6:	9a12      	ldr	r2, [sp, #72]	; 0x48
    27e8:	2a01      	cmp	r2, #1
    27ea:	f000 8111 	beq.w	2a10 <_dtoa_r+0xad8>
    27ee:	9b12      	ldr	r3, [sp, #72]	; 0x48
    27f0:	9a04      	ldr	r2, [sp, #16]
    27f2:	f8cd 9048 	str.w	r9, [sp, #72]	; 0x48
    27f6:	4413      	add	r3, r2
    27f8:	4699      	mov	r9, r3
    27fa:	e00d      	b.n	2818 <_dtoa_r+0x8e0>
    27fc:	2000      	movs	r0, #0
    27fe:	496a      	ldr	r1, [pc, #424]	; (29a8 <_dtoa_r+0xa70>)
    2800:	f002 fbe2 	bl	4fc8 <__aeabi_dsub>
    2804:	4652      	mov	r2, sl
    2806:	465b      	mov	r3, fp
    2808:	f003 f804 	bl	5814 <__aeabi_dcmplt>
    280c:	2800      	cmp	r0, #0
    280e:	f040 8258 	bne.w	2cc2 <_dtoa_r+0xd8a>
    2812:	454d      	cmp	r5, r9
    2814:	f000 80fa 	beq.w	2a0c <_dtoa_r+0xad4>
    2818:	4650      	mov	r0, sl
    281a:	4659      	mov	r1, fp
    281c:	2200      	movs	r2, #0
    281e:	4b65      	ldr	r3, [pc, #404]	; (29b4 <_dtoa_r+0xa7c>)
    2820:	f002 fd86 	bl	5330 <__aeabi_dmul>
    2824:	2200      	movs	r2, #0
    2826:	4b63      	ldr	r3, [pc, #396]	; (29b4 <_dtoa_r+0xa7c>)
    2828:	4682      	mov	sl, r0
    282a:	468b      	mov	fp, r1
    282c:	4630      	mov	r0, r6
    282e:	4639      	mov	r1, r7
    2830:	f002 fd7e 	bl	5330 <__aeabi_dmul>
    2834:	460f      	mov	r7, r1
    2836:	4606      	mov	r6, r0
    2838:	f003 f82a 	bl	5890 <__aeabi_d2iz>
    283c:	4680      	mov	r8, r0
    283e:	f002 fd11 	bl	5264 <__aeabi_i2d>
    2842:	4602      	mov	r2, r0
    2844:	460b      	mov	r3, r1
    2846:	4630      	mov	r0, r6
    2848:	4639      	mov	r1, r7
    284a:	f002 fbbd 	bl	4fc8 <__aeabi_dsub>
    284e:	f108 0830 	add.w	r8, r8, #48	; 0x30
    2852:	fa5f f888 	uxtb.w	r8, r8
    2856:	4652      	mov	r2, sl
    2858:	465b      	mov	r3, fp
    285a:	f805 8b01 	strb.w	r8, [r5], #1
    285e:	4606      	mov	r6, r0
    2860:	460f      	mov	r7, r1
    2862:	f002 ffd7 	bl	5814 <__aeabi_dcmplt>
    2866:	4632      	mov	r2, r6
    2868:	463b      	mov	r3, r7
    286a:	2800      	cmp	r0, #0
    286c:	d0c6      	beq.n	27fc <_dtoa_r+0x8c4>
    286e:	f8dd 9048 	ldr.w	r9, [sp, #72]	; 0x48
    2872:	9b15      	ldr	r3, [sp, #84]	; 0x54
    2874:	9302      	str	r3, [sp, #8]
    2876:	e523      	b.n	22c0 <_dtoa_r+0x388>
    2878:	2300      	movs	r3, #0
    287a:	930b      	str	r3, [sp, #44]	; 0x2c
    287c:	9b25      	ldr	r3, [sp, #148]	; 0x94
    287e:	2b00      	cmp	r3, #0
    2880:	f340 80dc 	ble.w	2a3c <_dtoa_r+0xb04>
    2884:	461f      	mov	r7, r3
    2886:	461e      	mov	r6, r3
    2888:	930f      	str	r3, [sp, #60]	; 0x3c
    288a:	930a      	str	r3, [sp, #40]	; 0x28
    288c:	e6f6      	b.n	267c <_dtoa_r+0x744>
    288e:	2301      	movs	r3, #1
    2890:	930b      	str	r3, [sp, #44]	; 0x2c
    2892:	e7f3      	b.n	287c <_dtoa_r+0x944>
    2894:	f1ba 0f00 	cmp.w	sl, #0
    2898:	f47f ada8 	bne.w	23ec <_dtoa_r+0x4b4>
    289c:	f3cb 0313 	ubfx	r3, fp, #0, #20
    28a0:	2b00      	cmp	r3, #0
    28a2:	f47f adba 	bne.w	241a <_dtoa_r+0x4e2>
    28a6:	f02b 4700 	bic.w	r7, fp, #2147483648	; 0x80000000
    28aa:	0d3f      	lsrs	r7, r7, #20
    28ac:	053f      	lsls	r7, r7, #20
    28ae:	2f00      	cmp	r7, #0
    28b0:	f000 820d 	beq.w	2cce <_dtoa_r+0xd96>
    28b4:	9b08      	ldr	r3, [sp, #32]
    28b6:	3301      	adds	r3, #1
    28b8:	9308      	str	r3, [sp, #32]
    28ba:	9b06      	ldr	r3, [sp, #24]
    28bc:	3301      	adds	r3, #1
    28be:	9306      	str	r3, [sp, #24]
    28c0:	2301      	movs	r3, #1
    28c2:	930c      	str	r3, [sp, #48]	; 0x30
    28c4:	e5ab      	b.n	241e <_dtoa_r+0x4e6>
    28c6:	9b0a      	ldr	r3, [sp, #40]	; 0x28
    28c8:	2b00      	cmp	r3, #0
    28ca:	f73f ac42 	bgt.w	2152 <_dtoa_r+0x21a>
    28ce:	f040 8221 	bne.w	2d14 <_dtoa_r+0xddc>
    28d2:	2200      	movs	r2, #0
    28d4:	4b38      	ldr	r3, [pc, #224]	; (29b8 <_dtoa_r+0xa80>)
    28d6:	e9dd 0108 	ldrd	r0, r1, [sp, #32]
    28da:	f002 fd29 	bl	5330 <__aeabi_dmul>
    28de:	4652      	mov	r2, sl
    28e0:	465b      	mov	r3, fp
    28e2:	f002 ffab 	bl	583c <__aeabi_dcmpge>
    28e6:	f8dd 8028 	ldr.w	r8, [sp, #40]	; 0x28
    28ea:	4646      	mov	r6, r8
    28ec:	2800      	cmp	r0, #0
    28ee:	d041      	beq.n	2974 <_dtoa_r+0xa3c>
    28f0:	9b25      	ldr	r3, [sp, #148]	; 0x94
    28f2:	9d04      	ldr	r5, [sp, #16]
    28f4:	43db      	mvns	r3, r3
    28f6:	9302      	str	r3, [sp, #8]
    28f8:	4641      	mov	r1, r8
    28fa:	4620      	mov	r0, r4
    28fc:	f001 f954 	bl	3ba8 <_Bfree>
    2900:	2e00      	cmp	r6, #0
    2902:	f43f acdd 	beq.w	22c0 <_dtoa_r+0x388>
    2906:	e6a7      	b.n	2658 <_dtoa_r+0x720>
    2908:	9a0c      	ldr	r2, [sp, #48]	; 0x30
    290a:	4649      	mov	r1, r9
    290c:	4620      	mov	r0, r4
    290e:	f001 fa81 	bl	3e14 <__pow5mult>
    2912:	4681      	mov	r9, r0
    2914:	e558      	b.n	23c8 <_dtoa_r+0x490>
    2916:	9a14      	ldr	r2, [sp, #80]	; 0x50
    2918:	2a00      	cmp	r2, #0
    291a:	f000 8187 	beq.w	2c2c <_dtoa_r+0xcf4>
    291e:	f203 4333 	addw	r3, r3, #1075	; 0x433
    2922:	9f0c      	ldr	r7, [sp, #48]	; 0x30
    2924:	9d08      	ldr	r5, [sp, #32]
    2926:	e4f2      	b.n	230e <_dtoa_r+0x3d6>
    2928:	f1ba 0f00 	cmp.w	sl, #0
    292c:	f47f ad75 	bne.w	241a <_dtoa_r+0x4e2>
    2930:	e7b4      	b.n	289c <_dtoa_r+0x964>
    2932:	f001 f943 	bl	3bbc <__multadd>
    2936:	4647      	mov	r7, r8
    2938:	4606      	mov	r6, r0
    293a:	4683      	mov	fp, r0
    293c:	e5be      	b.n	24bc <_dtoa_r+0x584>
    293e:	4601      	mov	r1, r0
    2940:	4620      	mov	r0, r4
    2942:	9306      	str	r3, [sp, #24]
    2944:	f001 f930 	bl	3ba8 <_Bfree>
    2948:	2201      	movs	r2, #1
    294a:	9b06      	ldr	r3, [sp, #24]
    294c:	e5e0      	b.n	2510 <_dtoa_r+0x5d8>
    294e:	9b24      	ldr	r3, [sp, #144]	; 0x90
    2950:	2b02      	cmp	r3, #2
    2952:	f77f ad96 	ble.w	2482 <_dtoa_r+0x54a>
    2956:	9b0a      	ldr	r3, [sp, #40]	; 0x28
    2958:	2b00      	cmp	r3, #0
    295a:	d1c9      	bne.n	28f0 <_dtoa_r+0x9b8>
    295c:	4641      	mov	r1, r8
    295e:	2205      	movs	r2, #5
    2960:	4620      	mov	r0, r4
    2962:	f001 f92b 	bl	3bbc <__multadd>
    2966:	4601      	mov	r1, r0
    2968:	4680      	mov	r8, r0
    296a:	4648      	mov	r0, r9
    296c:	f001 faf4 	bl	3f58 <__mcmp>
    2970:	2800      	cmp	r0, #0
    2972:	ddbd      	ble.n	28f0 <_dtoa_r+0x9b8>
    2974:	9a02      	ldr	r2, [sp, #8]
    2976:	9904      	ldr	r1, [sp, #16]
    2978:	2331      	movs	r3, #49	; 0x31
    297a:	3201      	adds	r2, #1
    297c:	9202      	str	r2, [sp, #8]
    297e:	700b      	strb	r3, [r1, #0]
    2980:	1c4d      	adds	r5, r1, #1
    2982:	e7b9      	b.n	28f8 <_dtoa_r+0x9c0>
    2984:	9a02      	ldr	r2, [sp, #8]
    2986:	3201      	adds	r2, #1
    2988:	9202      	str	r2, [sp, #8]
    298a:	9a04      	ldr	r2, [sp, #16]
    298c:	2331      	movs	r3, #49	; 0x31
    298e:	7013      	strb	r3, [r2, #0]
    2990:	e652      	b.n	2638 <_dtoa_r+0x700>
    2992:	2301      	movs	r3, #1
    2994:	930b      	str	r3, [sp, #44]	; 0x2c
    2996:	e666      	b.n	2666 <_dtoa_r+0x72e>
    2998:	f8dd 902c 	ldr.w	r9, [sp, #44]	; 0x2c
    299c:	9c0c      	ldr	r4, [sp, #48]	; 0x30
    299e:	e48f      	b.n	22c0 <_dtoa_r+0x388>
    29a0:	00005ca8 	.word	0x00005ca8
    29a4:	00005c80 	.word	0x00005c80
    29a8:	3ff00000 	.word	0x3ff00000
    29ac:	401c0000 	.word	0x401c0000
    29b0:	3fe00000 	.word	0x3fe00000
    29b4:	40240000 	.word	0x40240000
    29b8:	40140000 	.word	0x40140000
    29bc:	4650      	mov	r0, sl
    29be:	f002 fc51 	bl	5264 <__aeabi_i2d>
    29c2:	463a      	mov	r2, r7
    29c4:	4643      	mov	r3, r8
    29c6:	f002 fcb3 	bl	5330 <__aeabi_dmul>
    29ca:	2200      	movs	r2, #0
    29cc:	4bc1      	ldr	r3, [pc, #772]	; (2cd4 <_dtoa_r+0xd9c>)
    29ce:	f002 fafd 	bl	4fcc <__adddf3>
    29d2:	4605      	mov	r5, r0
    29d4:	f1a1 7650 	sub.w	r6, r1, #54525952	; 0x3400000
    29d8:	4641      	mov	r1, r8
    29da:	2200      	movs	r2, #0
    29dc:	4bbe      	ldr	r3, [pc, #760]	; (2cd8 <_dtoa_r+0xda0>)
    29de:	4638      	mov	r0, r7
    29e0:	f002 faf2 	bl	4fc8 <__aeabi_dsub>
    29e4:	462a      	mov	r2, r5
    29e6:	4633      	mov	r3, r6
    29e8:	4682      	mov	sl, r0
    29ea:	468b      	mov	fp, r1
    29ec:	f002 ff30 	bl	5850 <__aeabi_dcmpgt>
    29f0:	4680      	mov	r8, r0
    29f2:	2800      	cmp	r0, #0
    29f4:	f040 8110 	bne.w	2c18 <_dtoa_r+0xce0>
    29f8:	462a      	mov	r2, r5
    29fa:	f106 4300 	add.w	r3, r6, #2147483648	; 0x80000000
    29fe:	4650      	mov	r0, sl
    2a00:	4659      	mov	r1, fp
    2a02:	f002 ff07 	bl	5814 <__aeabi_dcmplt>
    2a06:	b118      	cbz	r0, 2a10 <_dtoa_r+0xad8>
    2a08:	4646      	mov	r6, r8
    2a0a:	e771      	b.n	28f0 <_dtoa_r+0x9b8>
    2a0c:	f8dd 9048 	ldr.w	r9, [sp, #72]	; 0x48
    2a10:	e9dd ab10 	ldrd	sl, fp, [sp, #64]	; 0x40
    2a14:	f7ff bb8a 	b.w	212c <_dtoa_r+0x1f4>
    2a18:	9804      	ldr	r0, [sp, #16]
    2a1a:	f7ff babb 	b.w	1f94 <_dtoa_r+0x5c>
    2a1e:	9b0c      	ldr	r3, [sp, #48]	; 0x30
    2a20:	9a0d      	ldr	r2, [sp, #52]	; 0x34
    2a22:	970c      	str	r7, [sp, #48]	; 0x30
    2a24:	1afb      	subs	r3, r7, r3
    2a26:	441a      	add	r2, r3
    2a28:	920d      	str	r2, [sp, #52]	; 0x34
    2a2a:	2700      	movs	r7, #0
    2a2c:	e469      	b.n	2302 <_dtoa_r+0x3ca>
    2a2e:	e9dd 2310 	ldrd	r2, r3, [sp, #64]	; 0x40
    2a32:	f04f 0a02 	mov.w	sl, #2
    2a36:	e9cd 2312 	strd	r2, r3, [sp, #72]	; 0x48
    2a3a:	e657      	b.n	26ec <_dtoa_r+0x7b4>
    2a3c:	2100      	movs	r1, #0
    2a3e:	2301      	movs	r3, #1
    2a40:	6461      	str	r1, [r4, #68]	; 0x44
    2a42:	4620      	mov	r0, r4
    2a44:	9325      	str	r3, [sp, #148]	; 0x94
    2a46:	f001 f889 	bl	3b5c <_Balloc>
    2a4a:	9b25      	ldr	r3, [sp, #148]	; 0x94
    2a4c:	9004      	str	r0, [sp, #16]
    2a4e:	6420      	str	r0, [r4, #64]	; 0x40
    2a50:	930a      	str	r3, [sp, #40]	; 0x28
    2a52:	930f      	str	r3, [sp, #60]	; 0x3c
    2a54:	e629      	b.n	26aa <_dtoa_r+0x772>
    2a56:	2a00      	cmp	r2, #0
    2a58:	46d0      	mov	r8, sl
    2a5a:	f8cd b018 	str.w	fp, [sp, #24]
    2a5e:	469a      	mov	sl, r3
    2a60:	dd11      	ble.n	2a86 <_dtoa_r+0xb4e>
    2a62:	4649      	mov	r1, r9
    2a64:	2201      	movs	r2, #1
    2a66:	4620      	mov	r0, r4
    2a68:	f001 fa24 	bl	3eb4 <__lshift>
    2a6c:	4641      	mov	r1, r8
    2a6e:	4681      	mov	r9, r0
    2a70:	f001 fa72 	bl	3f58 <__mcmp>
    2a74:	2800      	cmp	r0, #0
    2a76:	f340 8146 	ble.w	2d06 <_dtoa_r+0xdce>
    2a7a:	f1ba 0f39 	cmp.w	sl, #57	; 0x39
    2a7e:	f000 8106 	beq.w	2c8e <_dtoa_r+0xd56>
    2a82:	f105 0a31 	add.w	sl, r5, #49	; 0x31
    2a86:	46b3      	mov	fp, r6
    2a88:	f887 a000 	strb.w	sl, [r7]
    2a8c:	1c7d      	adds	r5, r7, #1
    2a8e:	9e06      	ldr	r6, [sp, #24]
    2a90:	e5d2      	b.n	2638 <_dtoa_r+0x700>
    2a92:	d104      	bne.n	2a9e <_dtoa_r+0xb66>
    2a94:	f01a 0f01 	tst.w	sl, #1
    2a98:	d001      	beq.n	2a9e <_dtoa_r+0xb66>
    2a9a:	e5bd      	b.n	2618 <_dtoa_r+0x6e0>
    2a9c:	4615      	mov	r5, r2
    2a9e:	f815 3c01 	ldrb.w	r3, [r5, #-1]
    2aa2:	2b30      	cmp	r3, #48	; 0x30
    2aa4:	f105 32ff 	add.w	r2, r5, #4294967295
    2aa8:	d0f8      	beq.n	2a9c <_dtoa_r+0xb64>
    2aaa:	e5c5      	b.n	2638 <_dtoa_r+0x700>
    2aac:	9904      	ldr	r1, [sp, #16]
    2aae:	2230      	movs	r2, #48	; 0x30
    2ab0:	700a      	strb	r2, [r1, #0]
    2ab2:	9a02      	ldr	r2, [sp, #8]
    2ab4:	f815 8c01 	ldrb.w	r8, [r5, #-1]
    2ab8:	3201      	adds	r2, #1
    2aba:	9202      	str	r2, [sp, #8]
    2abc:	f7ff bbfc 	b.w	22b8 <_dtoa_r+0x380>
    2ac0:	f000 80bb 	beq.w	2c3a <_dtoa_r+0xd02>
    2ac4:	9b02      	ldr	r3, [sp, #8]
    2ac6:	425d      	negs	r5, r3
    2ac8:	4b84      	ldr	r3, [pc, #528]	; (2cdc <_dtoa_r+0xda4>)
    2aca:	f005 020f 	and.w	r2, r5, #15
    2ace:	eb03 03c2 	add.w	r3, r3, r2, lsl #3
    2ad2:	e9d3 2300 	ldrd	r2, r3, [r3]
    2ad6:	e9dd 0110 	ldrd	r0, r1, [sp, #64]	; 0x40
    2ada:	f002 fc29 	bl	5330 <__aeabi_dmul>
    2ade:	112d      	asrs	r5, r5, #4
    2ae0:	4607      	mov	r7, r0
    2ae2:	4688      	mov	r8, r1
    2ae4:	f000 812c 	beq.w	2d40 <_dtoa_r+0xe08>
    2ae8:	4e7d      	ldr	r6, [pc, #500]	; (2ce0 <_dtoa_r+0xda8>)
    2aea:	f04f 0a02 	mov.w	sl, #2
    2aee:	07eb      	lsls	r3, r5, #31
    2af0:	d509      	bpl.n	2b06 <_dtoa_r+0xbce>
    2af2:	4638      	mov	r0, r7
    2af4:	4641      	mov	r1, r8
    2af6:	e9d6 2300 	ldrd	r2, r3, [r6]
    2afa:	f002 fc19 	bl	5330 <__aeabi_dmul>
    2afe:	f10a 0a01 	add.w	sl, sl, #1
    2b02:	4607      	mov	r7, r0
    2b04:	4688      	mov	r8, r1
    2b06:	106d      	asrs	r5, r5, #1
    2b08:	f106 0608 	add.w	r6, r6, #8
    2b0c:	d1ef      	bne.n	2aee <_dtoa_r+0xbb6>
    2b0e:	e608      	b.n	2722 <_dtoa_r+0x7ea>
    2b10:	6871      	ldr	r1, [r6, #4]
    2b12:	4620      	mov	r0, r4
    2b14:	f001 f822 	bl	3b5c <_Balloc>
    2b18:	6933      	ldr	r3, [r6, #16]
    2b1a:	3302      	adds	r3, #2
    2b1c:	009a      	lsls	r2, r3, #2
    2b1e:	4605      	mov	r5, r0
    2b20:	f106 010c 	add.w	r1, r6, #12
    2b24:	300c      	adds	r0, #12
    2b26:	f000 ff73 	bl	3a10 <memcpy>
    2b2a:	4629      	mov	r1, r5
    2b2c:	2201      	movs	r2, #1
    2b2e:	4620      	mov	r0, r4
    2b30:	f001 f9c0 	bl	3eb4 <__lshift>
    2b34:	9006      	str	r0, [sp, #24]
    2b36:	e4b5      	b.n	24a4 <_dtoa_r+0x56c>
    2b38:	2b39      	cmp	r3, #57	; 0x39
    2b3a:	f8cd b018 	str.w	fp, [sp, #24]
    2b3e:	46d0      	mov	r8, sl
    2b40:	f000 80a5 	beq.w	2c8e <_dtoa_r+0xd56>
    2b44:	f103 0a01 	add.w	sl, r3, #1
    2b48:	46b3      	mov	fp, r6
    2b4a:	f887 a000 	strb.w	sl, [r7]
    2b4e:	1c7d      	adds	r5, r7, #1
    2b50:	9e06      	ldr	r6, [sp, #24]
    2b52:	e571      	b.n	2638 <_dtoa_r+0x700>
    2b54:	465a      	mov	r2, fp
    2b56:	46d0      	mov	r8, sl
    2b58:	46b3      	mov	fp, r6
    2b5a:	469a      	mov	sl, r3
    2b5c:	4616      	mov	r6, r2
    2b5e:	e54f      	b.n	2600 <_dtoa_r+0x6c8>
    2b60:	9b12      	ldr	r3, [sp, #72]	; 0x48
    2b62:	495e      	ldr	r1, [pc, #376]	; (2cdc <_dtoa_r+0xda4>)
    2b64:	eb01 01c3 	add.w	r1, r1, r3, lsl #3
    2b68:	462a      	mov	r2, r5
    2b6a:	4633      	mov	r3, r6
    2b6c:	e951 0102 	ldrd	r0, r1, [r1, #-8]
    2b70:	f002 fbde 	bl	5330 <__aeabi_dmul>
    2b74:	e9cd 0116 	strd	r0, r1, [sp, #88]	; 0x58
    2b78:	4638      	mov	r0, r7
    2b7a:	4641      	mov	r1, r8
    2b7c:	f002 fe88 	bl	5890 <__aeabi_d2iz>
    2b80:	4605      	mov	r5, r0
    2b82:	f002 fb6f 	bl	5264 <__aeabi_i2d>
    2b86:	460b      	mov	r3, r1
    2b88:	4602      	mov	r2, r0
    2b8a:	4641      	mov	r1, r8
    2b8c:	4638      	mov	r0, r7
    2b8e:	f002 fa1b 	bl	4fc8 <__aeabi_dsub>
    2b92:	9b12      	ldr	r3, [sp, #72]	; 0x48
    2b94:	460f      	mov	r7, r1
    2b96:	9904      	ldr	r1, [sp, #16]
    2b98:	3530      	adds	r5, #48	; 0x30
    2b9a:	2b01      	cmp	r3, #1
    2b9c:	700d      	strb	r5, [r1, #0]
    2b9e:	4606      	mov	r6, r0
    2ba0:	f101 0501 	add.w	r5, r1, #1
    2ba4:	d026      	beq.n	2bf4 <_dtoa_r+0xcbc>
    2ba6:	9b12      	ldr	r3, [sp, #72]	; 0x48
    2ba8:	9a04      	ldr	r2, [sp, #16]
    2baa:	f8df b13c 	ldr.w	fp, [pc, #316]	; 2ce8 <_dtoa_r+0xdb0>
    2bae:	f8cd 9048 	str.w	r9, [sp, #72]	; 0x48
    2bb2:	4413      	add	r3, r2
    2bb4:	f04f 0a00 	mov.w	sl, #0
    2bb8:	4699      	mov	r9, r3
    2bba:	4652      	mov	r2, sl
    2bbc:	465b      	mov	r3, fp
    2bbe:	4630      	mov	r0, r6
    2bc0:	4639      	mov	r1, r7
    2bc2:	f002 fbb5 	bl	5330 <__aeabi_dmul>
    2bc6:	460f      	mov	r7, r1
    2bc8:	4606      	mov	r6, r0
    2bca:	f002 fe61 	bl	5890 <__aeabi_d2iz>
    2bce:	4680      	mov	r8, r0
    2bd0:	f002 fb48 	bl	5264 <__aeabi_i2d>
    2bd4:	f108 0830 	add.w	r8, r8, #48	; 0x30
    2bd8:	4602      	mov	r2, r0
    2bda:	460b      	mov	r3, r1
    2bdc:	4630      	mov	r0, r6
    2bde:	4639      	mov	r1, r7
    2be0:	f002 f9f2 	bl	4fc8 <__aeabi_dsub>
    2be4:	f805 8b01 	strb.w	r8, [r5], #1
    2be8:	454d      	cmp	r5, r9
    2bea:	4606      	mov	r6, r0
    2bec:	460f      	mov	r7, r1
    2bee:	d1e4      	bne.n	2bba <_dtoa_r+0xc82>
    2bf0:	f8dd 9048 	ldr.w	r9, [sp, #72]	; 0x48
    2bf4:	4b3b      	ldr	r3, [pc, #236]	; (2ce4 <_dtoa_r+0xdac>)
    2bf6:	2200      	movs	r2, #0
    2bf8:	e9dd 0116 	ldrd	r0, r1, [sp, #88]	; 0x58
    2bfc:	f002 f9e6 	bl	4fcc <__adddf3>
    2c00:	4632      	mov	r2, r6
    2c02:	463b      	mov	r3, r7
    2c04:	f002 fe06 	bl	5814 <__aeabi_dcmplt>
    2c08:	2800      	cmp	r0, #0
    2c0a:	d046      	beq.n	2c9a <_dtoa_r+0xd62>
    2c0c:	9b15      	ldr	r3, [sp, #84]	; 0x54
    2c0e:	9302      	str	r3, [sp, #8]
    2c10:	f815 8c01 	ldrb.w	r8, [r5, #-1]
    2c14:	f7ff bb43 	b.w	229e <_dtoa_r+0x366>
    2c18:	f04f 0800 	mov.w	r8, #0
    2c1c:	4646      	mov	r6, r8
    2c1e:	e6a9      	b.n	2974 <_dtoa_r+0xa3c>
    2c20:	9b08      	ldr	r3, [sp, #32]
    2c22:	9a0a      	ldr	r2, [sp, #40]	; 0x28
    2c24:	1a9d      	subs	r5, r3, r2
    2c26:	2300      	movs	r3, #0
    2c28:	f7ff bb71 	b.w	230e <_dtoa_r+0x3d6>
    2c2c:	9b18      	ldr	r3, [sp, #96]	; 0x60
    2c2e:	9f0c      	ldr	r7, [sp, #48]	; 0x30
    2c30:	9d08      	ldr	r5, [sp, #32]
    2c32:	f1c3 0336 	rsb	r3, r3, #54	; 0x36
    2c36:	f7ff bb6a 	b.w	230e <_dtoa_r+0x3d6>
    2c3a:	e9dd 7810 	ldrd	r7, r8, [sp, #64]	; 0x40
    2c3e:	f04f 0a02 	mov.w	sl, #2
    2c42:	e56e      	b.n	2722 <_dtoa_r+0x7ea>
    2c44:	9b0a      	ldr	r3, [sp, #40]	; 0x28
    2c46:	2b00      	cmp	r3, #0
    2c48:	f43f aeb8 	beq.w	29bc <_dtoa_r+0xa84>
    2c4c:	9b0f      	ldr	r3, [sp, #60]	; 0x3c
    2c4e:	2b00      	cmp	r3, #0
    2c50:	f77f aede 	ble.w	2a10 <_dtoa_r+0xad8>
    2c54:	2200      	movs	r2, #0
    2c56:	4b24      	ldr	r3, [pc, #144]	; (2ce8 <_dtoa_r+0xdb0>)
    2c58:	4638      	mov	r0, r7
    2c5a:	4641      	mov	r1, r8
    2c5c:	f002 fb68 	bl	5330 <__aeabi_dmul>
    2c60:	4607      	mov	r7, r0
    2c62:	4688      	mov	r8, r1
    2c64:	f10a 0001 	add.w	r0, sl, #1
    2c68:	f002 fafc 	bl	5264 <__aeabi_i2d>
    2c6c:	463a      	mov	r2, r7
    2c6e:	4643      	mov	r3, r8
    2c70:	f002 fb5e 	bl	5330 <__aeabi_dmul>
    2c74:	2200      	movs	r2, #0
    2c76:	4b17      	ldr	r3, [pc, #92]	; (2cd4 <_dtoa_r+0xd9c>)
    2c78:	f002 f9a8 	bl	4fcc <__adddf3>
    2c7c:	9a02      	ldr	r2, [sp, #8]
    2c7e:	9b0f      	ldr	r3, [sp, #60]	; 0x3c
    2c80:	9312      	str	r3, [sp, #72]	; 0x48
    2c82:	3a01      	subs	r2, #1
    2c84:	4605      	mov	r5, r0
    2c86:	f1a1 7650 	sub.w	r6, r1, #54525952	; 0x3400000
    2c8a:	9215      	str	r2, [sp, #84]	; 0x54
    2c8c:	e56a      	b.n	2764 <_dtoa_r+0x82c>
    2c8e:	2239      	movs	r2, #57	; 0x39
    2c90:	46b3      	mov	fp, r6
    2c92:	703a      	strb	r2, [r7, #0]
    2c94:	9e06      	ldr	r6, [sp, #24]
    2c96:	1c7d      	adds	r5, r7, #1
    2c98:	e4c0      	b.n	261c <_dtoa_r+0x6e4>
    2c9a:	e9dd 2316 	ldrd	r2, r3, [sp, #88]	; 0x58
    2c9e:	2000      	movs	r0, #0
    2ca0:	4910      	ldr	r1, [pc, #64]	; (2ce4 <_dtoa_r+0xdac>)
    2ca2:	f002 f991 	bl	4fc8 <__aeabi_dsub>
    2ca6:	4632      	mov	r2, r6
    2ca8:	463b      	mov	r3, r7
    2caa:	f002 fdd1 	bl	5850 <__aeabi_dcmpgt>
    2cae:	b908      	cbnz	r0, 2cb4 <_dtoa_r+0xd7c>
    2cb0:	e6ae      	b.n	2a10 <_dtoa_r+0xad8>
    2cb2:	4615      	mov	r5, r2
    2cb4:	f815 3c01 	ldrb.w	r3, [r5, #-1]
    2cb8:	2b30      	cmp	r3, #48	; 0x30
    2cba:	f105 32ff 	add.w	r2, r5, #4294967295
    2cbe:	d0f8      	beq.n	2cb2 <_dtoa_r+0xd7a>
    2cc0:	e5d7      	b.n	2872 <_dtoa_r+0x93a>
    2cc2:	f8dd 9048 	ldr.w	r9, [sp, #72]	; 0x48
    2cc6:	9b15      	ldr	r3, [sp, #84]	; 0x54
    2cc8:	9302      	str	r3, [sp, #8]
    2cca:	f7ff bae8 	b.w	229e <_dtoa_r+0x366>
    2cce:	970c      	str	r7, [sp, #48]	; 0x30
    2cd0:	f7ff bba5 	b.w	241e <_dtoa_r+0x4e6>
    2cd4:	401c0000 	.word	0x401c0000
    2cd8:	40140000 	.word	0x40140000
    2cdc:	00005ca8 	.word	0x00005ca8
    2ce0:	00005c80 	.word	0x00005c80
    2ce4:	3fe00000 	.word	0x3fe00000
    2ce8:	40240000 	.word	0x40240000
    2cec:	2b39      	cmp	r3, #57	; 0x39
    2cee:	f8cd b018 	str.w	fp, [sp, #24]
    2cf2:	46d0      	mov	r8, sl
    2cf4:	f8dd b028 	ldr.w	fp, [sp, #40]	; 0x28
    2cf8:	469a      	mov	sl, r3
    2cfa:	d0c8      	beq.n	2c8e <_dtoa_r+0xd56>
    2cfc:	f1bb 0f00 	cmp.w	fp, #0
    2d00:	f73f aebf 	bgt.w	2a82 <_dtoa_r+0xb4a>
    2d04:	e6bf      	b.n	2a86 <_dtoa_r+0xb4e>
    2d06:	f47f aebe 	bne.w	2a86 <_dtoa_r+0xb4e>
    2d0a:	f01a 0f01 	tst.w	sl, #1
    2d0e:	f43f aeba 	beq.w	2a86 <_dtoa_r+0xb4e>
    2d12:	e6b2      	b.n	2a7a <_dtoa_r+0xb42>
    2d14:	f04f 0800 	mov.w	r8, #0
    2d18:	4646      	mov	r6, r8
    2d1a:	e5e9      	b.n	28f0 <_dtoa_r+0x9b8>
    2d1c:	4631      	mov	r1, r6
    2d1e:	2300      	movs	r3, #0
    2d20:	220a      	movs	r2, #10
    2d22:	4620      	mov	r0, r4
    2d24:	f000 ff4a 	bl	3bbc <__multadd>
    2d28:	9b0f      	ldr	r3, [sp, #60]	; 0x3c
    2d2a:	2b00      	cmp	r3, #0
    2d2c:	4606      	mov	r6, r0
    2d2e:	dd0a      	ble.n	2d46 <_dtoa_r+0xe0e>
    2d30:	930a      	str	r3, [sp, #40]	; 0x28
    2d32:	f7ff bbaa 	b.w	248a <_dtoa_r+0x552>
    2d36:	9b24      	ldr	r3, [sp, #144]	; 0x90
    2d38:	2b02      	cmp	r3, #2
    2d3a:	dc23      	bgt.n	2d84 <_dtoa_r+0xe4c>
    2d3c:	9b0f      	ldr	r3, [sp, #60]	; 0x3c
    2d3e:	e43b      	b.n	25b8 <_dtoa_r+0x680>
    2d40:	f04f 0a02 	mov.w	sl, #2
    2d44:	e4ed      	b.n	2722 <_dtoa_r+0x7ea>
    2d46:	9b24      	ldr	r3, [sp, #144]	; 0x90
    2d48:	2b02      	cmp	r3, #2
    2d4a:	dc1b      	bgt.n	2d84 <_dtoa_r+0xe4c>
    2d4c:	9b0f      	ldr	r3, [sp, #60]	; 0x3c
    2d4e:	e7ef      	b.n	2d30 <_dtoa_r+0xdf8>
    2d50:	2500      	movs	r5, #0
    2d52:	6465      	str	r5, [r4, #68]	; 0x44
    2d54:	4629      	mov	r1, r5
    2d56:	4620      	mov	r0, r4
    2d58:	f000 ff00 	bl	3b5c <_Balloc>
    2d5c:	f04f 33ff 	mov.w	r3, #4294967295
    2d60:	930a      	str	r3, [sp, #40]	; 0x28
    2d62:	930f      	str	r3, [sp, #60]	; 0x3c
    2d64:	2301      	movs	r3, #1
    2d66:	9004      	str	r0, [sp, #16]
    2d68:	9525      	str	r5, [sp, #148]	; 0x94
    2d6a:	6420      	str	r0, [r4, #64]	; 0x40
    2d6c:	930b      	str	r3, [sp, #44]	; 0x2c
    2d6e:	f7ff b9dd 	b.w	212c <_dtoa_r+0x1f4>
    2d72:	2501      	movs	r5, #1
    2d74:	f7ff b9a5 	b.w	20c2 <_dtoa_r+0x18a>
    2d78:	f43f ab69 	beq.w	244e <_dtoa_r+0x516>
    2d7c:	f1c0 003c 	rsb	r0, r0, #60	; 0x3c
    2d80:	f7ff bbf9 	b.w	2576 <_dtoa_r+0x63e>
    2d84:	9b0f      	ldr	r3, [sp, #60]	; 0x3c
    2d86:	930a      	str	r3, [sp, #40]	; 0x28
    2d88:	e5e5      	b.n	2956 <_dtoa_r+0xa1e>
    2d8a:	bf00      	nop

00002d8c <__sflush_r>:
    2d8c:	f9b1 300c 	ldrsh.w	r3, [r1, #12]
    2d90:	b29a      	uxth	r2, r3
    2d92:	e92d 41f0 	stmdb	sp!, {r4, r5, r6, r7, r8, lr}
    2d96:	460d      	mov	r5, r1
    2d98:	0711      	lsls	r1, r2, #28
    2d9a:	4680      	mov	r8, r0
    2d9c:	d43a      	bmi.n	2e14 <__sflush_r+0x88>
    2d9e:	686a      	ldr	r2, [r5, #4]
    2da0:	f443 6300 	orr.w	r3, r3, #2048	; 0x800
    2da4:	2a00      	cmp	r2, #0
    2da6:	81ab      	strh	r3, [r5, #12]
    2da8:	dd6f      	ble.n	2e8a <__sflush_r+0xfe>
    2daa:	6aac      	ldr	r4, [r5, #40]	; 0x28
    2dac:	2c00      	cmp	r4, #0
    2dae:	d049      	beq.n	2e44 <__sflush_r+0xb8>
    2db0:	2200      	movs	r2, #0
    2db2:	b29b      	uxth	r3, r3
    2db4:	f8d8 6000 	ldr.w	r6, [r8]
    2db8:	f8c8 2000 	str.w	r2, [r8]
    2dbc:	f413 5280 	ands.w	r2, r3, #4096	; 0x1000
    2dc0:	d067      	beq.n	2e92 <__sflush_r+0x106>
    2dc2:	6d2a      	ldr	r2, [r5, #80]	; 0x50
    2dc4:	075f      	lsls	r7, r3, #29
    2dc6:	d505      	bpl.n	2dd4 <__sflush_r+0x48>
    2dc8:	6869      	ldr	r1, [r5, #4]
    2dca:	6b2b      	ldr	r3, [r5, #48]	; 0x30
    2dcc:	1a52      	subs	r2, r2, r1
    2dce:	b10b      	cbz	r3, 2dd4 <__sflush_r+0x48>
    2dd0:	6beb      	ldr	r3, [r5, #60]	; 0x3c
    2dd2:	1ad2      	subs	r2, r2, r3
    2dd4:	2300      	movs	r3, #0
    2dd6:	69e9      	ldr	r1, [r5, #28]
    2dd8:	4640      	mov	r0, r8
    2dda:	47a0      	blx	r4
    2ddc:	1c44      	adds	r4, r0, #1
    2dde:	d03c      	beq.n	2e5a <__sflush_r+0xce>
    2de0:	f9b5 300c 	ldrsh.w	r3, [r5, #12]
    2de4:	692a      	ldr	r2, [r5, #16]
    2de6:	602a      	str	r2, [r5, #0]
    2de8:	f423 6300 	bic.w	r3, r3, #2048	; 0x800
    2dec:	2200      	movs	r2, #0
    2dee:	81ab      	strh	r3, [r5, #12]
    2df0:	04db      	lsls	r3, r3, #19
    2df2:	606a      	str	r2, [r5, #4]
    2df4:	d447      	bmi.n	2e86 <__sflush_r+0xfa>
    2df6:	6b29      	ldr	r1, [r5, #48]	; 0x30
    2df8:	f8c8 6000 	str.w	r6, [r8]
    2dfc:	b311      	cbz	r1, 2e44 <__sflush_r+0xb8>
    2dfe:	f105 0340 	add.w	r3, r5, #64	; 0x40
    2e02:	4299      	cmp	r1, r3
    2e04:	d002      	beq.n	2e0c <__sflush_r+0x80>
    2e06:	4640      	mov	r0, r8
    2e08:	f000 f95a 	bl	30c0 <_free_r>
    2e0c:	2000      	movs	r0, #0
    2e0e:	6328      	str	r0, [r5, #48]	; 0x30
    2e10:	e8bd 81f0 	ldmia.w	sp!, {r4, r5, r6, r7, r8, pc}
    2e14:	692e      	ldr	r6, [r5, #16]
    2e16:	b1ae      	cbz	r6, 2e44 <__sflush_r+0xb8>
    2e18:	682c      	ldr	r4, [r5, #0]
    2e1a:	602e      	str	r6, [r5, #0]
    2e1c:	0791      	lsls	r1, r2, #30
    2e1e:	bf0c      	ite	eq
    2e20:	696b      	ldreq	r3, [r5, #20]
    2e22:	2300      	movne	r3, #0
    2e24:	1ba4      	subs	r4, r4, r6
    2e26:	60ab      	str	r3, [r5, #8]
    2e28:	e00a      	b.n	2e40 <__sflush_r+0xb4>
    2e2a:	4623      	mov	r3, r4
    2e2c:	4632      	mov	r2, r6
    2e2e:	6a6f      	ldr	r7, [r5, #36]	; 0x24
    2e30:	69e9      	ldr	r1, [r5, #28]
    2e32:	4640      	mov	r0, r8
    2e34:	47b8      	blx	r7
    2e36:	2800      	cmp	r0, #0
    2e38:	eba4 0400 	sub.w	r4, r4, r0
    2e3c:	4406      	add	r6, r0
    2e3e:	dd04      	ble.n	2e4a <__sflush_r+0xbe>
    2e40:	2c00      	cmp	r4, #0
    2e42:	dcf2      	bgt.n	2e2a <__sflush_r+0x9e>
    2e44:	2000      	movs	r0, #0
    2e46:	e8bd 81f0 	ldmia.w	sp!, {r4, r5, r6, r7, r8, pc}
    2e4a:	89ab      	ldrh	r3, [r5, #12]
    2e4c:	f043 0340 	orr.w	r3, r3, #64	; 0x40
    2e50:	81ab      	strh	r3, [r5, #12]
    2e52:	f04f 30ff 	mov.w	r0, #4294967295
    2e56:	e8bd 81f0 	ldmia.w	sp!, {r4, r5, r6, r7, r8, pc}
    2e5a:	f8d8 4000 	ldr.w	r4, [r8]
    2e5e:	2c1d      	cmp	r4, #29
    2e60:	d8f3      	bhi.n	2e4a <__sflush_r+0xbe>
    2e62:	4b19      	ldr	r3, [pc, #100]	; (2ec8 <__sflush_r+0x13c>)
    2e64:	40e3      	lsrs	r3, r4
    2e66:	43db      	mvns	r3, r3
    2e68:	f013 0301 	ands.w	r3, r3, #1
    2e6c:	d1ed      	bne.n	2e4a <__sflush_r+0xbe>
    2e6e:	f9b5 200c 	ldrsh.w	r2, [r5, #12]
    2e72:	606b      	str	r3, [r5, #4]
    2e74:	f422 6300 	bic.w	r3, r2, #2048	; 0x800
    2e78:	6929      	ldr	r1, [r5, #16]
    2e7a:	81ab      	strh	r3, [r5, #12]
    2e7c:	04da      	lsls	r2, r3, #19
    2e7e:	6029      	str	r1, [r5, #0]
    2e80:	d5b9      	bpl.n	2df6 <__sflush_r+0x6a>
    2e82:	2c00      	cmp	r4, #0
    2e84:	d1b7      	bne.n	2df6 <__sflush_r+0x6a>
    2e86:	6528      	str	r0, [r5, #80]	; 0x50
    2e88:	e7b5      	b.n	2df6 <__sflush_r+0x6a>
    2e8a:	6bea      	ldr	r2, [r5, #60]	; 0x3c
    2e8c:	2a00      	cmp	r2, #0
    2e8e:	dc8c      	bgt.n	2daa <__sflush_r+0x1e>
    2e90:	e7d8      	b.n	2e44 <__sflush_r+0xb8>
    2e92:	2301      	movs	r3, #1
    2e94:	69e9      	ldr	r1, [r5, #28]
    2e96:	4640      	mov	r0, r8
    2e98:	47a0      	blx	r4
    2e9a:	1c43      	adds	r3, r0, #1
    2e9c:	4602      	mov	r2, r0
    2e9e:	d002      	beq.n	2ea6 <__sflush_r+0x11a>
    2ea0:	89ab      	ldrh	r3, [r5, #12]
    2ea2:	6aac      	ldr	r4, [r5, #40]	; 0x28
    2ea4:	e78e      	b.n	2dc4 <__sflush_r+0x38>
    2ea6:	f8d8 3000 	ldr.w	r3, [r8]
    2eaa:	2b00      	cmp	r3, #0
    2eac:	d0f8      	beq.n	2ea0 <__sflush_r+0x114>
    2eae:	2b1d      	cmp	r3, #29
    2eb0:	d001      	beq.n	2eb6 <__sflush_r+0x12a>
    2eb2:	2b16      	cmp	r3, #22
    2eb4:	d102      	bne.n	2ebc <__sflush_r+0x130>
    2eb6:	f8c8 6000 	str.w	r6, [r8]
    2eba:	e7c3      	b.n	2e44 <__sflush_r+0xb8>
    2ebc:	89ab      	ldrh	r3, [r5, #12]
    2ebe:	f043 0340 	orr.w	r3, r3, #64	; 0x40
    2ec2:	81ab      	strh	r3, [r5, #12]
    2ec4:	e8bd 81f0 	ldmia.w	sp!, {r4, r5, r6, r7, r8, pc}
    2ec8:	20400001 	.word	0x20400001

00002ecc <_fflush_r>:
    2ecc:	b538      	push	{r3, r4, r5, lr}
    2ece:	460d      	mov	r5, r1
    2ed0:	4604      	mov	r4, r0
    2ed2:	b108      	cbz	r0, 2ed8 <_fflush_r+0xc>
    2ed4:	6b83      	ldr	r3, [r0, #56]	; 0x38
    2ed6:	b1bb      	cbz	r3, 2f08 <_fflush_r+0x3c>
    2ed8:	f9b5 000c 	ldrsh.w	r0, [r5, #12]
    2edc:	b188      	cbz	r0, 2f02 <_fflush_r+0x36>
    2ede:	6e6b      	ldr	r3, [r5, #100]	; 0x64
    2ee0:	07db      	lsls	r3, r3, #31
    2ee2:	d401      	bmi.n	2ee8 <_fflush_r+0x1c>
    2ee4:	0581      	lsls	r1, r0, #22
    2ee6:	d517      	bpl.n	2f18 <_fflush_r+0x4c>
    2ee8:	4620      	mov	r0, r4
    2eea:	4629      	mov	r1, r5
    2eec:	f7ff ff4e 	bl	2d8c <__sflush_r>
    2ef0:	6e6b      	ldr	r3, [r5, #100]	; 0x64
    2ef2:	07da      	lsls	r2, r3, #31
    2ef4:	4604      	mov	r4, r0
    2ef6:	d402      	bmi.n	2efe <_fflush_r+0x32>
    2ef8:	89ab      	ldrh	r3, [r5, #12]
    2efa:	059b      	lsls	r3, r3, #22
    2efc:	d507      	bpl.n	2f0e <_fflush_r+0x42>
    2efe:	4620      	mov	r0, r4
    2f00:	bd38      	pop	{r3, r4, r5, pc}
    2f02:	4604      	mov	r4, r0
    2f04:	4620      	mov	r0, r4
    2f06:	bd38      	pop	{r3, r4, r5, pc}
    2f08:	f000 f838 	bl	2f7c <__sinit>
    2f0c:	e7e4      	b.n	2ed8 <_fflush_r+0xc>
    2f0e:	6da8      	ldr	r0, [r5, #88]	; 0x58
    2f10:	f000 f9fa 	bl	3308 <__retarget_lock_release_recursive>
    2f14:	4620      	mov	r0, r4
    2f16:	bd38      	pop	{r3, r4, r5, pc}
    2f18:	6da8      	ldr	r0, [r5, #88]	; 0x58
    2f1a:	f000 f9f3 	bl	3304 <__retarget_lock_acquire_recursive>
    2f1e:	e7e3      	b.n	2ee8 <_fflush_r+0x1c>

00002f20 <_cleanup_r>:
    2f20:	4901      	ldr	r1, [pc, #4]	; (2f28 <_cleanup_r+0x8>)
    2f22:	f000 b9b3 	b.w	328c <_fwalk_reent>
    2f26:	bf00      	nop
    2f28:	000044e5 	.word	0x000044e5

00002f2c <std.isra.0>:
    2f2c:	b510      	push	{r4, lr}
    2f2e:	2300      	movs	r3, #0
    2f30:	4604      	mov	r4, r0
    2f32:	8181      	strh	r1, [r0, #12]
    2f34:	81c2      	strh	r2, [r0, #14]
    2f36:	6003      	str	r3, [r0, #0]
    2f38:	6043      	str	r3, [r0, #4]
    2f3a:	6083      	str	r3, [r0, #8]
    2f3c:	6643      	str	r3, [r0, #100]	; 0x64
    2f3e:	6103      	str	r3, [r0, #16]
    2f40:	6143      	str	r3, [r0, #20]
    2f42:	6183      	str	r3, [r0, #24]
    2f44:	4619      	mov	r1, r3
    2f46:	2208      	movs	r2, #8
    2f48:	305c      	adds	r0, #92	; 0x5c
    2f4a:	f7fd fb9d 	bl	688 <memset>
    2f4e:	4807      	ldr	r0, [pc, #28]	; (2f6c <std.isra.0+0x40>)
    2f50:	4907      	ldr	r1, [pc, #28]	; (2f70 <std.isra.0+0x44>)
    2f52:	4a08      	ldr	r2, [pc, #32]	; (2f74 <std.isra.0+0x48>)
    2f54:	4b08      	ldr	r3, [pc, #32]	; (2f78 <std.isra.0+0x4c>)
    2f56:	6220      	str	r0, [r4, #32]
    2f58:	61e4      	str	r4, [r4, #28]
    2f5a:	6261      	str	r1, [r4, #36]	; 0x24
    2f5c:	62a2      	str	r2, [r4, #40]	; 0x28
    2f5e:	62e3      	str	r3, [r4, #44]	; 0x2c
    2f60:	f104 0058 	add.w	r0, r4, #88	; 0x58
    2f64:	e8bd 4010 	ldmia.w	sp!, {r4, lr}
    2f68:	f000 b9c8 	b.w	32fc <__retarget_lock_init_recursive>
    2f6c:	00004175 	.word	0x00004175
    2f70:	00004199 	.word	0x00004199
    2f74:	000041d5 	.word	0x000041d5
    2f78:	000041f5 	.word	0x000041f5

00002f7c <__sinit>:
    2f7c:	b510      	push	{r4, lr}
    2f7e:	4604      	mov	r4, r0
    2f80:	4812      	ldr	r0, [pc, #72]	; (2fcc <__sinit+0x50>)
    2f82:	f000 f9bf 	bl	3304 <__retarget_lock_acquire_recursive>
    2f86:	6ba2      	ldr	r2, [r4, #56]	; 0x38
    2f88:	b9d2      	cbnz	r2, 2fc0 <__sinit+0x44>
    2f8a:	f504 733b 	add.w	r3, r4, #748	; 0x2ec
    2f8e:	4810      	ldr	r0, [pc, #64]	; (2fd0 <__sinit+0x54>)
    2f90:	f8c4 32e8 	str.w	r3, [r4, #744]	; 0x2e8
    2f94:	2103      	movs	r1, #3
    2f96:	f8c4 22e0 	str.w	r2, [r4, #736]	; 0x2e0
    2f9a:	63e0      	str	r0, [r4, #60]	; 0x3c
    2f9c:	f8c4 12e4 	str.w	r1, [r4, #740]	; 0x2e4
    2fa0:	6860      	ldr	r0, [r4, #4]
    2fa2:	2104      	movs	r1, #4
    2fa4:	f7ff ffc2 	bl	2f2c <std.isra.0>
    2fa8:	2201      	movs	r2, #1
    2faa:	2109      	movs	r1, #9
    2fac:	68a0      	ldr	r0, [r4, #8]
    2fae:	f7ff ffbd 	bl	2f2c <std.isra.0>
    2fb2:	2202      	movs	r2, #2
    2fb4:	2112      	movs	r1, #18
    2fb6:	68e0      	ldr	r0, [r4, #12]
    2fb8:	f7ff ffb8 	bl	2f2c <std.isra.0>
    2fbc:	2301      	movs	r3, #1
    2fbe:	63a3      	str	r3, [r4, #56]	; 0x38
    2fc0:	4802      	ldr	r0, [pc, #8]	; (2fcc <__sinit+0x50>)
    2fc2:	e8bd 4010 	ldmia.w	sp!, {r4, lr}
    2fc6:	f000 b99f 	b.w	3308 <__retarget_lock_release_recursive>
    2fca:	bf00      	nop
    2fcc:	20000a10 	.word	0x20000a10
    2fd0:	00002f21 	.word	0x00002f21

00002fd4 <__sfp_lock_acquire>:
    2fd4:	4801      	ldr	r0, [pc, #4]	; (2fdc <__sfp_lock_acquire+0x8>)
    2fd6:	f000 b995 	b.w	3304 <__retarget_lock_acquire_recursive>
    2fda:	bf00      	nop
    2fdc:	20000a24 	.word	0x20000a24

00002fe0 <__sfp_lock_release>:
    2fe0:	4801      	ldr	r0, [pc, #4]	; (2fe8 <__sfp_lock_release+0x8>)
    2fe2:	f000 b991 	b.w	3308 <__retarget_lock_release_recursive>
    2fe6:	bf00      	nop
    2fe8:	20000a24 	.word	0x20000a24

00002fec <__libc_fini_array>:
    2fec:	b538      	push	{r3, r4, r5, lr}
    2fee:	4c0a      	ldr	r4, [pc, #40]	; (3018 <__libc_fini_array+0x2c>)
    2ff0:	4d0a      	ldr	r5, [pc, #40]	; (301c <__libc_fini_array+0x30>)
    2ff2:	1b64      	subs	r4, r4, r5
    2ff4:	10a4      	asrs	r4, r4, #2
    2ff6:	d00a      	beq.n	300e <__libc_fini_array+0x22>
    2ff8:	f104 4380 	add.w	r3, r4, #1073741824	; 0x40000000
    2ffc:	3b01      	subs	r3, #1
    2ffe:	eb05 0583 	add.w	r5, r5, r3, lsl #2
    3002:	3c01      	subs	r4, #1
    3004:	f855 3904 	ldr.w	r3, [r5], #-4
    3008:	4798      	blx	r3
    300a:	2c00      	cmp	r4, #0
    300c:	d1f9      	bne.n	3002 <__libc_fini_array+0x16>
    300e:	e8bd 4038 	ldmia.w	sp!, {r3, r4, r5, lr}
    3012:	f002 bf47 	b.w	5ea4 <_fini>
    3016:	bf00      	nop
    3018:	00005eb4 	.word	0x00005eb4
    301c:	00005eb0 	.word	0x00005eb0

00003020 <_malloc_trim_r>:
    3020:	b5f8      	push	{r3, r4, r5, r6, r7, lr}
    3022:	4f24      	ldr	r7, [pc, #144]	; (30b4 <_malloc_trim_r+0x94>)
    3024:	460c      	mov	r4, r1
    3026:	4606      	mov	r6, r0
    3028:	f000 fd8c 	bl	3b44 <__malloc_lock>
    302c:	68bb      	ldr	r3, [r7, #8]
    302e:	685d      	ldr	r5, [r3, #4]
    3030:	f5c4 617e 	rsb	r1, r4, #4064	; 0xfe0
    3034:	310f      	adds	r1, #15
    3036:	f025 0503 	bic.w	r5, r5, #3
    303a:	4429      	add	r1, r5
    303c:	f421 617f 	bic.w	r1, r1, #4080	; 0xff0
    3040:	f021 010f 	bic.w	r1, r1, #15
    3044:	f5a1 5480 	sub.w	r4, r1, #4096	; 0x1000
    3048:	f5b4 5f80 	cmp.w	r4, #4096	; 0x1000
    304c:	db07      	blt.n	305e <_malloc_trim_r+0x3e>
    304e:	2100      	movs	r1, #0
    3050:	4630      	mov	r0, r6
    3052:	f001 f87d 	bl	4150 <_sbrk_r>
    3056:	68bb      	ldr	r3, [r7, #8]
    3058:	442b      	add	r3, r5
    305a:	4298      	cmp	r0, r3
    305c:	d004      	beq.n	3068 <_malloc_trim_r+0x48>
    305e:	4630      	mov	r0, r6
    3060:	f000 fd76 	bl	3b50 <__malloc_unlock>
    3064:	2000      	movs	r0, #0
    3066:	bdf8      	pop	{r3, r4, r5, r6, r7, pc}
    3068:	4261      	negs	r1, r4
    306a:	4630      	mov	r0, r6
    306c:	f001 f870 	bl	4150 <_sbrk_r>
    3070:	3001      	adds	r0, #1
    3072:	d00d      	beq.n	3090 <_malloc_trim_r+0x70>
    3074:	4b10      	ldr	r3, [pc, #64]	; (30b8 <_malloc_trim_r+0x98>)
    3076:	68ba      	ldr	r2, [r7, #8]
    3078:	6819      	ldr	r1, [r3, #0]
    307a:	1b2d      	subs	r5, r5, r4
    307c:	f045 0501 	orr.w	r5, r5, #1
    3080:	4630      	mov	r0, r6
    3082:	1b09      	subs	r1, r1, r4
    3084:	6055      	str	r5, [r2, #4]
    3086:	6019      	str	r1, [r3, #0]
    3088:	f000 fd62 	bl	3b50 <__malloc_unlock>
    308c:	2001      	movs	r0, #1
    308e:	bdf8      	pop	{r3, r4, r5, r6, r7, pc}
    3090:	2100      	movs	r1, #0
    3092:	4630      	mov	r0, r6
    3094:	f001 f85c 	bl	4150 <_sbrk_r>
    3098:	68ba      	ldr	r2, [r7, #8]
    309a:	1a83      	subs	r3, r0, r2
    309c:	2b0f      	cmp	r3, #15
    309e:	ddde      	ble.n	305e <_malloc_trim_r+0x3e>
    30a0:	4c06      	ldr	r4, [pc, #24]	; (30bc <_malloc_trim_r+0x9c>)
    30a2:	4905      	ldr	r1, [pc, #20]	; (30b8 <_malloc_trim_r+0x98>)
    30a4:	6824      	ldr	r4, [r4, #0]
    30a6:	f043 0301 	orr.w	r3, r3, #1
    30aa:	1b00      	subs	r0, r0, r4
    30ac:	6053      	str	r3, [r2, #4]
    30ae:	6008      	str	r0, [r1, #0]
    30b0:	e7d5      	b.n	305e <_malloc_trim_r+0x3e>
    30b2:	bf00      	nop
    30b4:	20000434 	.word	0x20000434
    30b8:	200009d0 	.word	0x200009d0
    30bc:	2000083c 	.word	0x2000083c

000030c0 <_free_r>:
    30c0:	2900      	cmp	r1, #0
    30c2:	d044      	beq.n	314e <_free_r+0x8e>
    30c4:	e92d 41f0 	stmdb	sp!, {r4, r5, r6, r7, r8, lr}
    30c8:	460d      	mov	r5, r1
    30ca:	4680      	mov	r8, r0
    30cc:	f000 fd3a 	bl	3b44 <__malloc_lock>
    30d0:	f855 7c04 	ldr.w	r7, [r5, #-4]
    30d4:	4969      	ldr	r1, [pc, #420]	; (327c <_free_r+0x1bc>)
    30d6:	f027 0301 	bic.w	r3, r7, #1
    30da:	f1a5 0408 	sub.w	r4, r5, #8
    30de:	18e2      	adds	r2, r4, r3
    30e0:	688e      	ldr	r6, [r1, #8]
    30e2:	6850      	ldr	r0, [r2, #4]
    30e4:	42b2      	cmp	r2, r6
    30e6:	f020 0003 	bic.w	r0, r0, #3
    30ea:	d05e      	beq.n	31aa <_free_r+0xea>
    30ec:	07fe      	lsls	r6, r7, #31
    30ee:	6050      	str	r0, [r2, #4]
    30f0:	d40b      	bmi.n	310a <_free_r+0x4a>
    30f2:	f855 7c08 	ldr.w	r7, [r5, #-8]
    30f6:	1be4      	subs	r4, r4, r7
    30f8:	f101 0e08 	add.w	lr, r1, #8
    30fc:	68a5      	ldr	r5, [r4, #8]
    30fe:	4575      	cmp	r5, lr
    3100:	443b      	add	r3, r7
    3102:	d06d      	beq.n	31e0 <_free_r+0x120>
    3104:	68e7      	ldr	r7, [r4, #12]
    3106:	60ef      	str	r7, [r5, #12]
    3108:	60bd      	str	r5, [r7, #8]
    310a:	1815      	adds	r5, r2, r0
    310c:	686d      	ldr	r5, [r5, #4]
    310e:	07ed      	lsls	r5, r5, #31
    3110:	d53e      	bpl.n	3190 <_free_r+0xd0>
    3112:	f043 0201 	orr.w	r2, r3, #1
    3116:	6062      	str	r2, [r4, #4]
    3118:	50e3      	str	r3, [r4, r3]
    311a:	f5b3 7f00 	cmp.w	r3, #512	; 0x200
    311e:	d217      	bcs.n	3150 <_free_r+0x90>
    3120:	08db      	lsrs	r3, r3, #3
    3122:	1c58      	adds	r0, r3, #1
    3124:	109a      	asrs	r2, r3, #2
    3126:	684d      	ldr	r5, [r1, #4]
    3128:	f851 7030 	ldr.w	r7, [r1, r0, lsl #3]
    312c:	60a7      	str	r7, [r4, #8]
    312e:	2301      	movs	r3, #1
    3130:	4093      	lsls	r3, r2
    3132:	eb01 02c0 	add.w	r2, r1, r0, lsl #3
    3136:	432b      	orrs	r3, r5
    3138:	3a08      	subs	r2, #8
    313a:	60e2      	str	r2, [r4, #12]
    313c:	604b      	str	r3, [r1, #4]
    313e:	f841 4030 	str.w	r4, [r1, r0, lsl #3]
    3142:	60fc      	str	r4, [r7, #12]
    3144:	4640      	mov	r0, r8
    3146:	e8bd 41f0 	ldmia.w	sp!, {r4, r5, r6, r7, r8, lr}
    314a:	f000 bd01 	b.w	3b50 <__malloc_unlock>
    314e:	4770      	bx	lr
    3150:	0a5a      	lsrs	r2, r3, #9
    3152:	2a04      	cmp	r2, #4
    3154:	d852      	bhi.n	31fc <_free_r+0x13c>
    3156:	099a      	lsrs	r2, r3, #6
    3158:	f102 0739 	add.w	r7, r2, #57	; 0x39
    315c:	00ff      	lsls	r7, r7, #3
    315e:	f102 0538 	add.w	r5, r2, #56	; 0x38
    3162:	19c8      	adds	r0, r1, r7
    3164:	59ca      	ldr	r2, [r1, r7]
    3166:	3808      	subs	r0, #8
    3168:	4290      	cmp	r0, r2
    316a:	d04f      	beq.n	320c <_free_r+0x14c>
    316c:	6851      	ldr	r1, [r2, #4]
    316e:	f021 0103 	bic.w	r1, r1, #3
    3172:	428b      	cmp	r3, r1
    3174:	d232      	bcs.n	31dc <_free_r+0x11c>
    3176:	6892      	ldr	r2, [r2, #8]
    3178:	4290      	cmp	r0, r2
    317a:	d1f7      	bne.n	316c <_free_r+0xac>
    317c:	68c3      	ldr	r3, [r0, #12]
    317e:	60a0      	str	r0, [r4, #8]
    3180:	60e3      	str	r3, [r4, #12]
    3182:	609c      	str	r4, [r3, #8]
    3184:	60c4      	str	r4, [r0, #12]
    3186:	4640      	mov	r0, r8
    3188:	e8bd 41f0 	ldmia.w	sp!, {r4, r5, r6, r7, r8, lr}
    318c:	f000 bce0 	b.w	3b50 <__malloc_unlock>
    3190:	6895      	ldr	r5, [r2, #8]
    3192:	4f3b      	ldr	r7, [pc, #236]	; (3280 <_free_r+0x1c0>)
    3194:	42bd      	cmp	r5, r7
    3196:	4403      	add	r3, r0
    3198:	d040      	beq.n	321c <_free_r+0x15c>
    319a:	68d0      	ldr	r0, [r2, #12]
    319c:	60e8      	str	r0, [r5, #12]
    319e:	f043 0201 	orr.w	r2, r3, #1
    31a2:	6085      	str	r5, [r0, #8]
    31a4:	6062      	str	r2, [r4, #4]
    31a6:	50e3      	str	r3, [r4, r3]
    31a8:	e7b7      	b.n	311a <_free_r+0x5a>
    31aa:	07ff      	lsls	r7, r7, #31
    31ac:	4403      	add	r3, r0
    31ae:	d407      	bmi.n	31c0 <_free_r+0x100>
    31b0:	f855 2c08 	ldr.w	r2, [r5, #-8]
    31b4:	1aa4      	subs	r4, r4, r2
    31b6:	4413      	add	r3, r2
    31b8:	68a0      	ldr	r0, [r4, #8]
    31ba:	68e2      	ldr	r2, [r4, #12]
    31bc:	60c2      	str	r2, [r0, #12]
    31be:	6090      	str	r0, [r2, #8]
    31c0:	4a30      	ldr	r2, [pc, #192]	; (3284 <_free_r+0x1c4>)
    31c2:	6812      	ldr	r2, [r2, #0]
    31c4:	f043 0001 	orr.w	r0, r3, #1
    31c8:	4293      	cmp	r3, r2
    31ca:	6060      	str	r0, [r4, #4]
    31cc:	608c      	str	r4, [r1, #8]
    31ce:	d3b9      	bcc.n	3144 <_free_r+0x84>
    31d0:	4b2d      	ldr	r3, [pc, #180]	; (3288 <_free_r+0x1c8>)
    31d2:	4640      	mov	r0, r8
    31d4:	6819      	ldr	r1, [r3, #0]
    31d6:	f7ff ff23 	bl	3020 <_malloc_trim_r>
    31da:	e7b3      	b.n	3144 <_free_r+0x84>
    31dc:	4610      	mov	r0, r2
    31de:	e7cd      	b.n	317c <_free_r+0xbc>
    31e0:	1811      	adds	r1, r2, r0
    31e2:	6849      	ldr	r1, [r1, #4]
    31e4:	07c9      	lsls	r1, r1, #31
    31e6:	d444      	bmi.n	3272 <_free_r+0x1b2>
    31e8:	6891      	ldr	r1, [r2, #8]
    31ea:	68d2      	ldr	r2, [r2, #12]
    31ec:	60ca      	str	r2, [r1, #12]
    31ee:	4403      	add	r3, r0
    31f0:	f043 0001 	orr.w	r0, r3, #1
    31f4:	6091      	str	r1, [r2, #8]
    31f6:	6060      	str	r0, [r4, #4]
    31f8:	50e3      	str	r3, [r4, r3]
    31fa:	e7a3      	b.n	3144 <_free_r+0x84>
    31fc:	2a14      	cmp	r2, #20
    31fe:	d816      	bhi.n	322e <_free_r+0x16e>
    3200:	f102 075c 	add.w	r7, r2, #92	; 0x5c
    3204:	00ff      	lsls	r7, r7, #3
    3206:	f102 055b 	add.w	r5, r2, #91	; 0x5b
    320a:	e7aa      	b.n	3162 <_free_r+0xa2>
    320c:	10aa      	asrs	r2, r5, #2
    320e:	2301      	movs	r3, #1
    3210:	684d      	ldr	r5, [r1, #4]
    3212:	4093      	lsls	r3, r2
    3214:	432b      	orrs	r3, r5
    3216:	604b      	str	r3, [r1, #4]
    3218:	4603      	mov	r3, r0
    321a:	e7b0      	b.n	317e <_free_r+0xbe>
    321c:	f043 0201 	orr.w	r2, r3, #1
    3220:	614c      	str	r4, [r1, #20]
    3222:	610c      	str	r4, [r1, #16]
    3224:	60e5      	str	r5, [r4, #12]
    3226:	60a5      	str	r5, [r4, #8]
    3228:	6062      	str	r2, [r4, #4]
    322a:	50e3      	str	r3, [r4, r3]
    322c:	e78a      	b.n	3144 <_free_r+0x84>
    322e:	2a54      	cmp	r2, #84	; 0x54
    3230:	d806      	bhi.n	3240 <_free_r+0x180>
    3232:	0b1a      	lsrs	r2, r3, #12
    3234:	f102 076f 	add.w	r7, r2, #111	; 0x6f
    3238:	00ff      	lsls	r7, r7, #3
    323a:	f102 056e 	add.w	r5, r2, #110	; 0x6e
    323e:	e790      	b.n	3162 <_free_r+0xa2>
    3240:	f5b2 7faa 	cmp.w	r2, #340	; 0x154
    3244:	d806      	bhi.n	3254 <_free_r+0x194>
    3246:	0bda      	lsrs	r2, r3, #15
    3248:	f102 0778 	add.w	r7, r2, #120	; 0x78
    324c:	00ff      	lsls	r7, r7, #3
    324e:	f102 0577 	add.w	r5, r2, #119	; 0x77
    3252:	e786      	b.n	3162 <_free_r+0xa2>
    3254:	f240 5054 	movw	r0, #1364	; 0x554
    3258:	4282      	cmp	r2, r0
    325a:	d806      	bhi.n	326a <_free_r+0x1aa>
    325c:	0c9a      	lsrs	r2, r3, #18
    325e:	f102 077d 	add.w	r7, r2, #125	; 0x7d
    3262:	00ff      	lsls	r7, r7, #3
    3264:	f102 057c 	add.w	r5, r2, #124	; 0x7c
    3268:	e77b      	b.n	3162 <_free_r+0xa2>
    326a:	f44f 777e 	mov.w	r7, #1016	; 0x3f8
    326e:	257e      	movs	r5, #126	; 0x7e
    3270:	e777      	b.n	3162 <_free_r+0xa2>
    3272:	f043 0101 	orr.w	r1, r3, #1
    3276:	6061      	str	r1, [r4, #4]
    3278:	6013      	str	r3, [r2, #0]
    327a:	e763      	b.n	3144 <_free_r+0x84>
    327c:	20000434 	.word	0x20000434
    3280:	2000043c 	.word	0x2000043c
    3284:	20000840 	.word	0x20000840
    3288:	20000a00 	.word	0x20000a00

0000328c <_fwalk_reent>:
    328c:	e92d 43f8 	stmdb	sp!, {r3, r4, r5, r6, r7, r8, r9, lr}
    3290:	f510 7738 	adds.w	r7, r0, #736	; 0x2e0
    3294:	d01f      	beq.n	32d6 <_fwalk_reent+0x4a>
    3296:	4688      	mov	r8, r1
    3298:	4606      	mov	r6, r0
    329a:	f04f 0900 	mov.w	r9, #0
    329e:	687d      	ldr	r5, [r7, #4]
    32a0:	68bc      	ldr	r4, [r7, #8]
    32a2:	3d01      	subs	r5, #1
    32a4:	d411      	bmi.n	32ca <_fwalk_reent+0x3e>
    32a6:	89a3      	ldrh	r3, [r4, #12]
    32a8:	2b01      	cmp	r3, #1
    32aa:	f105 35ff 	add.w	r5, r5, #4294967295
    32ae:	d908      	bls.n	32c2 <_fwalk_reent+0x36>
    32b0:	f9b4 300e 	ldrsh.w	r3, [r4, #14]
    32b4:	3301      	adds	r3, #1
    32b6:	4621      	mov	r1, r4
    32b8:	4630      	mov	r0, r6
    32ba:	d002      	beq.n	32c2 <_fwalk_reent+0x36>
    32bc:	47c0      	blx	r8
    32be:	ea49 0900 	orr.w	r9, r9, r0
    32c2:	1c6b      	adds	r3, r5, #1
    32c4:	f104 0468 	add.w	r4, r4, #104	; 0x68
    32c8:	d1ed      	bne.n	32a6 <_fwalk_reent+0x1a>
    32ca:	683f      	ldr	r7, [r7, #0]
    32cc:	2f00      	cmp	r7, #0
    32ce:	d1e6      	bne.n	329e <_fwalk_reent+0x12>
    32d0:	4648      	mov	r0, r9
    32d2:	e8bd 83f8 	ldmia.w	sp!, {r3, r4, r5, r6, r7, r8, r9, pc}
    32d6:	46b9      	mov	r9, r7
    32d8:	4648      	mov	r0, r9
    32da:	e8bd 83f8 	ldmia.w	sp!, {r3, r4, r5, r6, r7, r8, r9, pc}
    32de:	bf00      	nop

000032e0 <_localeconv_r>:
    32e0:	4a04      	ldr	r2, [pc, #16]	; (32f4 <_localeconv_r+0x14>)
    32e2:	4b05      	ldr	r3, [pc, #20]	; (32f8 <_localeconv_r+0x18>)
    32e4:	6812      	ldr	r2, [r2, #0]
    32e6:	6b50      	ldr	r0, [r2, #52]	; 0x34
    32e8:	2800      	cmp	r0, #0
    32ea:	bf08      	it	eq
    32ec:	4618      	moveq	r0, r3
    32ee:	30f0      	adds	r0, #240	; 0xf0
    32f0:	4770      	bx	lr
    32f2:	bf00      	nop
    32f4:	20000004 	.word	0x20000004
    32f8:	20000844 	.word	0x20000844

000032fc <__retarget_lock_init_recursive>:
    32fc:	4770      	bx	lr
    32fe:	bf00      	nop

00003300 <__retarget_lock_close_recursive>:
    3300:	4770      	bx	lr
    3302:	bf00      	nop

00003304 <__retarget_lock_acquire_recursive>:
    3304:	4770      	bx	lr
    3306:	bf00      	nop

00003308 <__retarget_lock_release_recursive>:
    3308:	4770      	bx	lr
    330a:	bf00      	nop

0000330c <__swhatbuf_r>:
    330c:	b570      	push	{r4, r5, r6, lr}
    330e:	460c      	mov	r4, r1
    3310:	f9b1 100e 	ldrsh.w	r1, [r1, #14]
    3314:	2900      	cmp	r1, #0
    3316:	b090      	sub	sp, #64	; 0x40
    3318:	4615      	mov	r5, r2
    331a:	461e      	mov	r6, r3
    331c:	db14      	blt.n	3348 <__swhatbuf_r+0x3c>
    331e:	aa01      	add	r2, sp, #4
    3320:	f001 f9c6 	bl	46b0 <_fstat_r>
    3324:	2800      	cmp	r0, #0
    3326:	db0f      	blt.n	3348 <__swhatbuf_r+0x3c>
    3328:	9a02      	ldr	r2, [sp, #8]
    332a:	f402 4270 	and.w	r2, r2, #61440	; 0xf000
    332e:	f5a2 5200 	sub.w	r2, r2, #8192	; 0x2000
    3332:	fab2 f282 	clz	r2, r2
    3336:	0952      	lsrs	r2, r2, #5
    3338:	f44f 6380 	mov.w	r3, #1024	; 0x400
    333c:	f44f 6000 	mov.w	r0, #2048	; 0x800
    3340:	6032      	str	r2, [r6, #0]
    3342:	602b      	str	r3, [r5, #0]
    3344:	b010      	add	sp, #64	; 0x40
    3346:	bd70      	pop	{r4, r5, r6, pc}
    3348:	89a2      	ldrh	r2, [r4, #12]
    334a:	2300      	movs	r3, #0
    334c:	f012 0080 	ands.w	r0, r2, #128	; 0x80
    3350:	6033      	str	r3, [r6, #0]
    3352:	d004      	beq.n	335e <__swhatbuf_r+0x52>
    3354:	2240      	movs	r2, #64	; 0x40
    3356:	4618      	mov	r0, r3
    3358:	602a      	str	r2, [r5, #0]
    335a:	b010      	add	sp, #64	; 0x40
    335c:	bd70      	pop	{r4, r5, r6, pc}
    335e:	f44f 6380 	mov.w	r3, #1024	; 0x400
    3362:	602b      	str	r3, [r5, #0]
    3364:	b010      	add	sp, #64	; 0x40
    3366:	bd70      	pop	{r4, r5, r6, pc}

00003368 <__smakebuf_r>:
    3368:	898a      	ldrh	r2, [r1, #12]
    336a:	0792      	lsls	r2, r2, #30
    336c:	460b      	mov	r3, r1
    336e:	d506      	bpl.n	337e <__smakebuf_r+0x16>
    3370:	f101 0243 	add.w	r2, r1, #67	; 0x43
    3374:	2101      	movs	r1, #1
    3376:	601a      	str	r2, [r3, #0]
    3378:	611a      	str	r2, [r3, #16]
    337a:	6159      	str	r1, [r3, #20]
    337c:	4770      	bx	lr
    337e:	b5f0      	push	{r4, r5, r6, r7, lr}
    3380:	b083      	sub	sp, #12
    3382:	ab01      	add	r3, sp, #4
    3384:	466a      	mov	r2, sp
    3386:	460c      	mov	r4, r1
    3388:	4606      	mov	r6, r0
    338a:	f7ff ffbf 	bl	330c <__swhatbuf_r>
    338e:	9900      	ldr	r1, [sp, #0]
    3390:	4605      	mov	r5, r0
    3392:	4630      	mov	r0, r6
    3394:	f000 f83a 	bl	340c <_malloc_r>
    3398:	f9b4 300c 	ldrsh.w	r3, [r4, #12]
    339c:	b1d8      	cbz	r0, 33d6 <__smakebuf_r+0x6e>
    339e:	9a01      	ldr	r2, [sp, #4]
    33a0:	4f15      	ldr	r7, [pc, #84]	; (33f8 <__smakebuf_r+0x90>)
    33a2:	9900      	ldr	r1, [sp, #0]
    33a4:	63f7      	str	r7, [r6, #60]	; 0x3c
    33a6:	f043 0380 	orr.w	r3, r3, #128	; 0x80
    33aa:	81a3      	strh	r3, [r4, #12]
    33ac:	6020      	str	r0, [r4, #0]
    33ae:	6120      	str	r0, [r4, #16]
    33b0:	6161      	str	r1, [r4, #20]
    33b2:	b91a      	cbnz	r2, 33bc <__smakebuf_r+0x54>
    33b4:	432b      	orrs	r3, r5
    33b6:	81a3      	strh	r3, [r4, #12]
    33b8:	b003      	add	sp, #12
    33ba:	bdf0      	pop	{r4, r5, r6, r7, pc}
    33bc:	4630      	mov	r0, r6
    33be:	f9b4 100e 	ldrsh.w	r1, [r4, #14]
    33c2:	f001 fb01 	bl	49c8 <_isatty_r>
    33c6:	b1a0      	cbz	r0, 33f2 <__smakebuf_r+0x8a>
    33c8:	89a3      	ldrh	r3, [r4, #12]
    33ca:	f023 0303 	bic.w	r3, r3, #3
    33ce:	f043 0301 	orr.w	r3, r3, #1
    33d2:	b21b      	sxth	r3, r3
    33d4:	e7ee      	b.n	33b4 <__smakebuf_r+0x4c>
    33d6:	059a      	lsls	r2, r3, #22
    33d8:	d4ee      	bmi.n	33b8 <__smakebuf_r+0x50>
    33da:	f023 0303 	bic.w	r3, r3, #3
    33de:	f104 0243 	add.w	r2, r4, #67	; 0x43
    33e2:	f043 0302 	orr.w	r3, r3, #2
    33e6:	2101      	movs	r1, #1
    33e8:	81a3      	strh	r3, [r4, #12]
    33ea:	6022      	str	r2, [r4, #0]
    33ec:	6122      	str	r2, [r4, #16]
    33ee:	6161      	str	r1, [r4, #20]
    33f0:	e7e2      	b.n	33b8 <__smakebuf_r+0x50>
    33f2:	f9b4 300c 	ldrsh.w	r3, [r4, #12]
    33f6:	e7dd      	b.n	33b4 <__smakebuf_r+0x4c>
    33f8:	00002f21 	.word	0x00002f21

000033fc <malloc>:
    33fc:	4b02      	ldr	r3, [pc, #8]	; (3408 <malloc+0xc>)
    33fe:	4601      	mov	r1, r0
    3400:	6818      	ldr	r0, [r3, #0]
    3402:	f000 b803 	b.w	340c <_malloc_r>
    3406:	bf00      	nop
    3408:	20000004 	.word	0x20000004

0000340c <_malloc_r>:
    340c:	e92d 4ff0 	stmdb	sp!, {r4, r5, r6, r7, r8, r9, sl, fp, lr}
    3410:	f101 060b 	add.w	r6, r1, #11
    3414:	2e16      	cmp	r6, #22
    3416:	b083      	sub	sp, #12
    3418:	4605      	mov	r5, r0
    341a:	f240 809e 	bls.w	355a <_malloc_r+0x14e>
    341e:	f036 0607 	bics.w	r6, r6, #7
    3422:	f100 80bd 	bmi.w	35a0 <_malloc_r+0x194>
    3426:	42b1      	cmp	r1, r6
    3428:	f200 80ba 	bhi.w	35a0 <_malloc_r+0x194>
    342c:	f000 fb8a 	bl	3b44 <__malloc_lock>
    3430:	f5b6 7ffc 	cmp.w	r6, #504	; 0x1f8
    3434:	f0c0 8293 	bcc.w	395e <_malloc_r+0x552>
    3438:	0a73      	lsrs	r3, r6, #9
    343a:	f000 80b8 	beq.w	35ae <_malloc_r+0x1a2>
    343e:	2b04      	cmp	r3, #4
    3440:	f200 8179 	bhi.w	3736 <_malloc_r+0x32a>
    3444:	09b3      	lsrs	r3, r6, #6
    3446:	f103 0039 	add.w	r0, r3, #57	; 0x39
    344a:	f103 0e38 	add.w	lr, r3, #56	; 0x38
    344e:	00c3      	lsls	r3, r0, #3
    3450:	4fbf      	ldr	r7, [pc, #764]	; (3750 <_malloc_r+0x344>)
    3452:	443b      	add	r3, r7
    3454:	f1a3 0108 	sub.w	r1, r3, #8
    3458:	685c      	ldr	r4, [r3, #4]
    345a:	42a1      	cmp	r1, r4
    345c:	d106      	bne.n	346c <_malloc_r+0x60>
    345e:	e00c      	b.n	347a <_malloc_r+0x6e>
    3460:	2a00      	cmp	r2, #0
    3462:	f280 80aa 	bge.w	35ba <_malloc_r+0x1ae>
    3466:	68e4      	ldr	r4, [r4, #12]
    3468:	42a1      	cmp	r1, r4
    346a:	d006      	beq.n	347a <_malloc_r+0x6e>
    346c:	6863      	ldr	r3, [r4, #4]
    346e:	f023 0303 	bic.w	r3, r3, #3
    3472:	1b9a      	subs	r2, r3, r6
    3474:	2a0f      	cmp	r2, #15
    3476:	ddf3      	ble.n	3460 <_malloc_r+0x54>
    3478:	4670      	mov	r0, lr
    347a:	693c      	ldr	r4, [r7, #16]
    347c:	f8df e2e4 	ldr.w	lr, [pc, #740]	; 3764 <_malloc_r+0x358>
    3480:	4574      	cmp	r4, lr
    3482:	f000 81ab 	beq.w	37dc <_malloc_r+0x3d0>
    3486:	6863      	ldr	r3, [r4, #4]
    3488:	f023 0303 	bic.w	r3, r3, #3
    348c:	1b9a      	subs	r2, r3, r6
    348e:	2a0f      	cmp	r2, #15
    3490:	f300 8190 	bgt.w	37b4 <_malloc_r+0x3a8>
    3494:	2a00      	cmp	r2, #0
    3496:	f8c7 e014 	str.w	lr, [r7, #20]
    349a:	f8c7 e010 	str.w	lr, [r7, #16]
    349e:	f280 809d 	bge.w	35dc <_malloc_r+0x1d0>
    34a2:	f5b3 7f00 	cmp.w	r3, #512	; 0x200
    34a6:	f080 8161 	bcs.w	376c <_malloc_r+0x360>
    34aa:	08db      	lsrs	r3, r3, #3
    34ac:	f103 0c01 	add.w	ip, r3, #1
    34b0:	1099      	asrs	r1, r3, #2
    34b2:	687a      	ldr	r2, [r7, #4]
    34b4:	f857 803c 	ldr.w	r8, [r7, ip, lsl #3]
    34b8:	f8c4 8008 	str.w	r8, [r4, #8]
    34bc:	2301      	movs	r3, #1
    34be:	408b      	lsls	r3, r1
    34c0:	eb07 01cc 	add.w	r1, r7, ip, lsl #3
    34c4:	4313      	orrs	r3, r2
    34c6:	3908      	subs	r1, #8
    34c8:	60e1      	str	r1, [r4, #12]
    34ca:	607b      	str	r3, [r7, #4]
    34cc:	f847 403c 	str.w	r4, [r7, ip, lsl #3]
    34d0:	f8c8 400c 	str.w	r4, [r8, #12]
    34d4:	1082      	asrs	r2, r0, #2
    34d6:	2401      	movs	r4, #1
    34d8:	4094      	lsls	r4, r2
    34da:	429c      	cmp	r4, r3
    34dc:	f200 808b 	bhi.w	35f6 <_malloc_r+0x1ea>
    34e0:	421c      	tst	r4, r3
    34e2:	d106      	bne.n	34f2 <_malloc_r+0xe6>
    34e4:	f020 0003 	bic.w	r0, r0, #3
    34e8:	0064      	lsls	r4, r4, #1
    34ea:	421c      	tst	r4, r3
    34ec:	f100 0004 	add.w	r0, r0, #4
    34f0:	d0fa      	beq.n	34e8 <_malloc_r+0xdc>
    34f2:	eb07 09c0 	add.w	r9, r7, r0, lsl #3
    34f6:	46cc      	mov	ip, r9
    34f8:	4680      	mov	r8, r0
    34fa:	f8dc 300c 	ldr.w	r3, [ip, #12]
    34fe:	459c      	cmp	ip, r3
    3500:	d107      	bne.n	3512 <_malloc_r+0x106>
    3502:	e16d      	b.n	37e0 <_malloc_r+0x3d4>
    3504:	2a00      	cmp	r2, #0
    3506:	f280 817b 	bge.w	3800 <_malloc_r+0x3f4>
    350a:	68db      	ldr	r3, [r3, #12]
    350c:	459c      	cmp	ip, r3
    350e:	f000 8167 	beq.w	37e0 <_malloc_r+0x3d4>
    3512:	6859      	ldr	r1, [r3, #4]
    3514:	f021 0103 	bic.w	r1, r1, #3
    3518:	1b8a      	subs	r2, r1, r6
    351a:	2a0f      	cmp	r2, #15
    351c:	ddf2      	ble.n	3504 <_malloc_r+0xf8>
    351e:	f8d3 c00c 	ldr.w	ip, [r3, #12]
    3522:	f8d3 8008 	ldr.w	r8, [r3, #8]
    3526:	9300      	str	r3, [sp, #0]
    3528:	199c      	adds	r4, r3, r6
    352a:	4628      	mov	r0, r5
    352c:	f046 0601 	orr.w	r6, r6, #1
    3530:	f042 0501 	orr.w	r5, r2, #1
    3534:	605e      	str	r6, [r3, #4]
    3536:	f8c8 c00c 	str.w	ip, [r8, #12]
    353a:	f8cc 8008 	str.w	r8, [ip, #8]
    353e:	617c      	str	r4, [r7, #20]
    3540:	613c      	str	r4, [r7, #16]
    3542:	f8c4 e00c 	str.w	lr, [r4, #12]
    3546:	f8c4 e008 	str.w	lr, [r4, #8]
    354a:	6065      	str	r5, [r4, #4]
    354c:	505a      	str	r2, [r3, r1]
    354e:	f000 faff 	bl	3b50 <__malloc_unlock>
    3552:	9b00      	ldr	r3, [sp, #0]
    3554:	f103 0408 	add.w	r4, r3, #8
    3558:	e01e      	b.n	3598 <_malloc_r+0x18c>
    355a:	2910      	cmp	r1, #16
    355c:	d820      	bhi.n	35a0 <_malloc_r+0x194>
    355e:	f000 faf1 	bl	3b44 <__malloc_lock>
    3562:	2610      	movs	r6, #16
    3564:	2318      	movs	r3, #24
    3566:	2002      	movs	r0, #2
    3568:	4f79      	ldr	r7, [pc, #484]	; (3750 <_malloc_r+0x344>)
    356a:	443b      	add	r3, r7
    356c:	f1a3 0208 	sub.w	r2, r3, #8
    3570:	685c      	ldr	r4, [r3, #4]
    3572:	4294      	cmp	r4, r2
    3574:	f000 813d 	beq.w	37f2 <_malloc_r+0x3e6>
    3578:	6863      	ldr	r3, [r4, #4]
    357a:	68e1      	ldr	r1, [r4, #12]
    357c:	68a6      	ldr	r6, [r4, #8]
    357e:	f023 0303 	bic.w	r3, r3, #3
    3582:	4423      	add	r3, r4
    3584:	4628      	mov	r0, r5
    3586:	685a      	ldr	r2, [r3, #4]
    3588:	60f1      	str	r1, [r6, #12]
    358a:	f042 0201 	orr.w	r2, r2, #1
    358e:	608e      	str	r6, [r1, #8]
    3590:	605a      	str	r2, [r3, #4]
    3592:	f000 fadd 	bl	3b50 <__malloc_unlock>
    3596:	3408      	adds	r4, #8
    3598:	4620      	mov	r0, r4
    359a:	b003      	add	sp, #12
    359c:	e8bd 8ff0 	ldmia.w	sp!, {r4, r5, r6, r7, r8, r9, sl, fp, pc}
    35a0:	2400      	movs	r4, #0
    35a2:	230c      	movs	r3, #12
    35a4:	4620      	mov	r0, r4
    35a6:	602b      	str	r3, [r5, #0]
    35a8:	b003      	add	sp, #12
    35aa:	e8bd 8ff0 	ldmia.w	sp!, {r4, r5, r6, r7, r8, r9, sl, fp, pc}
    35ae:	2040      	movs	r0, #64	; 0x40
    35b0:	f44f 7300 	mov.w	r3, #512	; 0x200
    35b4:	f04f 0e3f 	mov.w	lr, #63	; 0x3f
    35b8:	e74a      	b.n	3450 <_malloc_r+0x44>
    35ba:	4423      	add	r3, r4
    35bc:	68e1      	ldr	r1, [r4, #12]
    35be:	685a      	ldr	r2, [r3, #4]
    35c0:	68a6      	ldr	r6, [r4, #8]
    35c2:	f042 0201 	orr.w	r2, r2, #1
    35c6:	60f1      	str	r1, [r6, #12]
    35c8:	4628      	mov	r0, r5
    35ca:	608e      	str	r6, [r1, #8]
    35cc:	605a      	str	r2, [r3, #4]
    35ce:	f000 fabf 	bl	3b50 <__malloc_unlock>
    35d2:	3408      	adds	r4, #8
    35d4:	4620      	mov	r0, r4
    35d6:	b003      	add	sp, #12
    35d8:	e8bd 8ff0 	ldmia.w	sp!, {r4, r5, r6, r7, r8, r9, sl, fp, pc}
    35dc:	4423      	add	r3, r4
    35de:	4628      	mov	r0, r5
    35e0:	685a      	ldr	r2, [r3, #4]
    35e2:	f042 0201 	orr.w	r2, r2, #1
    35e6:	605a      	str	r2, [r3, #4]
    35e8:	f000 fab2 	bl	3b50 <__malloc_unlock>
    35ec:	3408      	adds	r4, #8
    35ee:	4620      	mov	r0, r4
    35f0:	b003      	add	sp, #12
    35f2:	e8bd 8ff0 	ldmia.w	sp!, {r4, r5, r6, r7, r8, r9, sl, fp, pc}
    35f6:	68bc      	ldr	r4, [r7, #8]
    35f8:	6863      	ldr	r3, [r4, #4]
    35fa:	f023 0803 	bic.w	r8, r3, #3
    35fe:	45b0      	cmp	r8, r6
    3600:	d304      	bcc.n	360c <_malloc_r+0x200>
    3602:	eba8 0306 	sub.w	r3, r8, r6
    3606:	2b0f      	cmp	r3, #15
    3608:	f300 8085 	bgt.w	3716 <_malloc_r+0x30a>
    360c:	f8df 9158 	ldr.w	r9, [pc, #344]	; 3768 <_malloc_r+0x35c>
    3610:	4b50      	ldr	r3, [pc, #320]	; (3754 <_malloc_r+0x348>)
    3612:	f8d9 2000 	ldr.w	r2, [r9]
    3616:	681b      	ldr	r3, [r3, #0]
    3618:	3201      	adds	r2, #1
    361a:	4433      	add	r3, r6
    361c:	eb04 0a08 	add.w	sl, r4, r8
    3620:	f000 8155 	beq.w	38ce <_malloc_r+0x4c2>
    3624:	f503 5380 	add.w	r3, r3, #4096	; 0x1000
    3628:	330f      	adds	r3, #15
    362a:	f423 6b7f 	bic.w	fp, r3, #4080	; 0xff0
    362e:	f02b 0b0f 	bic.w	fp, fp, #15
    3632:	4659      	mov	r1, fp
    3634:	4628      	mov	r0, r5
    3636:	f000 fd8b 	bl	4150 <_sbrk_r>
    363a:	1c41      	adds	r1, r0, #1
    363c:	4602      	mov	r2, r0
    363e:	f000 80fc 	beq.w	383a <_malloc_r+0x42e>
    3642:	4582      	cmp	sl, r0
    3644:	f200 80f7 	bhi.w	3836 <_malloc_r+0x42a>
    3648:	4b43      	ldr	r3, [pc, #268]	; (3758 <_malloc_r+0x34c>)
    364a:	6819      	ldr	r1, [r3, #0]
    364c:	4459      	add	r1, fp
    364e:	6019      	str	r1, [r3, #0]
    3650:	f000 814d 	beq.w	38ee <_malloc_r+0x4e2>
    3654:	f8d9 0000 	ldr.w	r0, [r9]
    3658:	3001      	adds	r0, #1
    365a:	bf1b      	ittet	ne
    365c:	eba2 0a0a 	subne.w	sl, r2, sl
    3660:	4451      	addne	r1, sl
    3662:	f8c9 2000 	streq.w	r2, [r9]
    3666:	6019      	strne	r1, [r3, #0]
    3668:	f012 0107 	ands.w	r1, r2, #7
    366c:	f000 8115 	beq.w	389a <_malloc_r+0x48e>
    3670:	f1c1 0008 	rsb	r0, r1, #8
    3674:	f5c1 5180 	rsb	r1, r1, #4096	; 0x1000
    3678:	4402      	add	r2, r0
    367a:	3108      	adds	r1, #8
    367c:	eb02 090b 	add.w	r9, r2, fp
    3680:	f3c9 090b 	ubfx	r9, r9, #0, #12
    3684:	eba1 0909 	sub.w	r9, r1, r9
    3688:	4649      	mov	r1, r9
    368a:	4628      	mov	r0, r5
    368c:	9301      	str	r3, [sp, #4]
    368e:	9200      	str	r2, [sp, #0]
    3690:	f000 fd5e 	bl	4150 <_sbrk_r>
    3694:	1c43      	adds	r3, r0, #1
    3696:	e89d 000c 	ldmia.w	sp, {r2, r3}
    369a:	f000 8143 	beq.w	3924 <_malloc_r+0x518>
    369e:	1a80      	subs	r0, r0, r2
    36a0:	4448      	add	r0, r9
    36a2:	f040 0001 	orr.w	r0, r0, #1
    36a6:	6819      	ldr	r1, [r3, #0]
    36a8:	60ba      	str	r2, [r7, #8]
    36aa:	4449      	add	r1, r9
    36ac:	42bc      	cmp	r4, r7
    36ae:	6050      	str	r0, [r2, #4]
    36b0:	6019      	str	r1, [r3, #0]
    36b2:	d017      	beq.n	36e4 <_malloc_r+0x2d8>
    36b4:	f1b8 0f0f 	cmp.w	r8, #15
    36b8:	f240 80fb 	bls.w	38b2 <_malloc_r+0x4a6>
    36bc:	6860      	ldr	r0, [r4, #4]
    36be:	f1a8 020c 	sub.w	r2, r8, #12
    36c2:	f022 0207 	bic.w	r2, r2, #7
    36c6:	eb04 0e02 	add.w	lr, r4, r2
    36ca:	f000 0001 	and.w	r0, r0, #1
    36ce:	f04f 0c05 	mov.w	ip, #5
    36d2:	4310      	orrs	r0, r2
    36d4:	2a0f      	cmp	r2, #15
    36d6:	6060      	str	r0, [r4, #4]
    36d8:	f8ce c004 	str.w	ip, [lr, #4]
    36dc:	f8ce c008 	str.w	ip, [lr, #8]
    36e0:	f200 8117 	bhi.w	3912 <_malloc_r+0x506>
    36e4:	4b1d      	ldr	r3, [pc, #116]	; (375c <_malloc_r+0x350>)
    36e6:	68bc      	ldr	r4, [r7, #8]
    36e8:	681a      	ldr	r2, [r3, #0]
    36ea:	4291      	cmp	r1, r2
    36ec:	bf88      	it	hi
    36ee:	6019      	strhi	r1, [r3, #0]
    36f0:	4b1b      	ldr	r3, [pc, #108]	; (3760 <_malloc_r+0x354>)
    36f2:	681a      	ldr	r2, [r3, #0]
    36f4:	4291      	cmp	r1, r2
    36f6:	6862      	ldr	r2, [r4, #4]
    36f8:	bf88      	it	hi
    36fa:	6019      	strhi	r1, [r3, #0]
    36fc:	f022 0203 	bic.w	r2, r2, #3
    3700:	4296      	cmp	r6, r2
    3702:	eba2 0306 	sub.w	r3, r2, r6
    3706:	d801      	bhi.n	370c <_malloc_r+0x300>
    3708:	2b0f      	cmp	r3, #15
    370a:	dc04      	bgt.n	3716 <_malloc_r+0x30a>
    370c:	4628      	mov	r0, r5
    370e:	f000 fa1f 	bl	3b50 <__malloc_unlock>
    3712:	2400      	movs	r4, #0
    3714:	e740      	b.n	3598 <_malloc_r+0x18c>
    3716:	19a2      	adds	r2, r4, r6
    3718:	f043 0301 	orr.w	r3, r3, #1
    371c:	f046 0601 	orr.w	r6, r6, #1
    3720:	6066      	str	r6, [r4, #4]
    3722:	4628      	mov	r0, r5
    3724:	60ba      	str	r2, [r7, #8]
    3726:	6053      	str	r3, [r2, #4]
    3728:	f000 fa12 	bl	3b50 <__malloc_unlock>
    372c:	3408      	adds	r4, #8
    372e:	4620      	mov	r0, r4
    3730:	b003      	add	sp, #12
    3732:	e8bd 8ff0 	ldmia.w	sp!, {r4, r5, r6, r7, r8, r9, sl, fp, pc}
    3736:	2b14      	cmp	r3, #20
    3738:	d971      	bls.n	381e <_malloc_r+0x412>
    373a:	2b54      	cmp	r3, #84	; 0x54
    373c:	f200 80a3 	bhi.w	3886 <_malloc_r+0x47a>
    3740:	0b33      	lsrs	r3, r6, #12
    3742:	f103 006f 	add.w	r0, r3, #111	; 0x6f
    3746:	f103 0e6e 	add.w	lr, r3, #110	; 0x6e
    374a:	00c3      	lsls	r3, r0, #3
    374c:	e680      	b.n	3450 <_malloc_r+0x44>
    374e:	bf00      	nop
    3750:	20000434 	.word	0x20000434
    3754:	20000a00 	.word	0x20000a00
    3758:	200009d0 	.word	0x200009d0
    375c:	200009f8 	.word	0x200009f8
    3760:	200009fc 	.word	0x200009fc
    3764:	2000043c 	.word	0x2000043c
    3768:	2000083c 	.word	0x2000083c
    376c:	0a5a      	lsrs	r2, r3, #9
    376e:	2a04      	cmp	r2, #4
    3770:	d95b      	bls.n	382a <_malloc_r+0x41e>
    3772:	2a14      	cmp	r2, #20
    3774:	f200 80ae 	bhi.w	38d4 <_malloc_r+0x4c8>
    3778:	f102 015c 	add.w	r1, r2, #92	; 0x5c
    377c:	00c9      	lsls	r1, r1, #3
    377e:	325b      	adds	r2, #91	; 0x5b
    3780:	eb07 0c01 	add.w	ip, r7, r1
    3784:	5879      	ldr	r1, [r7, r1]
    3786:	f1ac 0c08 	sub.w	ip, ip, #8
    378a:	458c      	cmp	ip, r1
    378c:	f000 8088 	beq.w	38a0 <_malloc_r+0x494>
    3790:	684a      	ldr	r2, [r1, #4]
    3792:	f022 0203 	bic.w	r2, r2, #3
    3796:	4293      	cmp	r3, r2
    3798:	d273      	bcs.n	3882 <_malloc_r+0x476>
    379a:	6889      	ldr	r1, [r1, #8]
    379c:	458c      	cmp	ip, r1
    379e:	d1f7      	bne.n	3790 <_malloc_r+0x384>
    37a0:	f8dc 200c 	ldr.w	r2, [ip, #12]
    37a4:	687b      	ldr	r3, [r7, #4]
    37a6:	60e2      	str	r2, [r4, #12]
    37a8:	f8c4 c008 	str.w	ip, [r4, #8]
    37ac:	6094      	str	r4, [r2, #8]
    37ae:	f8cc 400c 	str.w	r4, [ip, #12]
    37b2:	e68f      	b.n	34d4 <_malloc_r+0xc8>
    37b4:	19a1      	adds	r1, r4, r6
    37b6:	f046 0c01 	orr.w	ip, r6, #1
    37ba:	f042 0601 	orr.w	r6, r2, #1
    37be:	f8c4 c004 	str.w	ip, [r4, #4]
    37c2:	4628      	mov	r0, r5
    37c4:	6179      	str	r1, [r7, #20]
    37c6:	6139      	str	r1, [r7, #16]
    37c8:	f8c1 e00c 	str.w	lr, [r1, #12]
    37cc:	f8c1 e008 	str.w	lr, [r1, #8]
    37d0:	604e      	str	r6, [r1, #4]
    37d2:	50e2      	str	r2, [r4, r3]
    37d4:	f000 f9bc 	bl	3b50 <__malloc_unlock>
    37d8:	3408      	adds	r4, #8
    37da:	e6dd      	b.n	3598 <_malloc_r+0x18c>
    37dc:	687b      	ldr	r3, [r7, #4]
    37de:	e679      	b.n	34d4 <_malloc_r+0xc8>
    37e0:	f108 0801 	add.w	r8, r8, #1
    37e4:	f018 0f03 	tst.w	r8, #3
    37e8:	f10c 0c08 	add.w	ip, ip, #8
    37ec:	f47f ae85 	bne.w	34fa <_malloc_r+0xee>
    37f0:	e02d      	b.n	384e <_malloc_r+0x442>
    37f2:	68dc      	ldr	r4, [r3, #12]
    37f4:	42a3      	cmp	r3, r4
    37f6:	bf08      	it	eq
    37f8:	3002      	addeq	r0, #2
    37fa:	f43f ae3e 	beq.w	347a <_malloc_r+0x6e>
    37fe:	e6bb      	b.n	3578 <_malloc_r+0x16c>
    3800:	4419      	add	r1, r3
    3802:	461c      	mov	r4, r3
    3804:	684a      	ldr	r2, [r1, #4]
    3806:	68db      	ldr	r3, [r3, #12]
    3808:	f854 6f08 	ldr.w	r6, [r4, #8]!
    380c:	f042 0201 	orr.w	r2, r2, #1
    3810:	604a      	str	r2, [r1, #4]
    3812:	4628      	mov	r0, r5
    3814:	60f3      	str	r3, [r6, #12]
    3816:	609e      	str	r6, [r3, #8]
    3818:	f000 f99a 	bl	3b50 <__malloc_unlock>
    381c:	e6bc      	b.n	3598 <_malloc_r+0x18c>
    381e:	f103 005c 	add.w	r0, r3, #92	; 0x5c
    3822:	f103 0e5b 	add.w	lr, r3, #91	; 0x5b
    3826:	00c3      	lsls	r3, r0, #3
    3828:	e612      	b.n	3450 <_malloc_r+0x44>
    382a:	099a      	lsrs	r2, r3, #6
    382c:	f102 0139 	add.w	r1, r2, #57	; 0x39
    3830:	00c9      	lsls	r1, r1, #3
    3832:	3238      	adds	r2, #56	; 0x38
    3834:	e7a4      	b.n	3780 <_malloc_r+0x374>
    3836:	42bc      	cmp	r4, r7
    3838:	d054      	beq.n	38e4 <_malloc_r+0x4d8>
    383a:	68bc      	ldr	r4, [r7, #8]
    383c:	6862      	ldr	r2, [r4, #4]
    383e:	f022 0203 	bic.w	r2, r2, #3
    3842:	e75d      	b.n	3700 <_malloc_r+0x2f4>
    3844:	f859 3908 	ldr.w	r3, [r9], #-8
    3848:	4599      	cmp	r9, r3
    384a:	f040 8086 	bne.w	395a <_malloc_r+0x54e>
    384e:	f010 0f03 	tst.w	r0, #3
    3852:	f100 30ff 	add.w	r0, r0, #4294967295
    3856:	d1f5      	bne.n	3844 <_malloc_r+0x438>
    3858:	687b      	ldr	r3, [r7, #4]
    385a:	ea23 0304 	bic.w	r3, r3, r4
    385e:	607b      	str	r3, [r7, #4]
    3860:	0064      	lsls	r4, r4, #1
    3862:	429c      	cmp	r4, r3
    3864:	f63f aec7 	bhi.w	35f6 <_malloc_r+0x1ea>
    3868:	2c00      	cmp	r4, #0
    386a:	f43f aec4 	beq.w	35f6 <_malloc_r+0x1ea>
    386e:	421c      	tst	r4, r3
    3870:	4640      	mov	r0, r8
    3872:	f47f ae3e 	bne.w	34f2 <_malloc_r+0xe6>
    3876:	0064      	lsls	r4, r4, #1
    3878:	421c      	tst	r4, r3
    387a:	f100 0004 	add.w	r0, r0, #4
    387e:	d0fa      	beq.n	3876 <_malloc_r+0x46a>
    3880:	e637      	b.n	34f2 <_malloc_r+0xe6>
    3882:	468c      	mov	ip, r1
    3884:	e78c      	b.n	37a0 <_malloc_r+0x394>
    3886:	f5b3 7faa 	cmp.w	r3, #340	; 0x154
    388a:	d815      	bhi.n	38b8 <_malloc_r+0x4ac>
    388c:	0bf3      	lsrs	r3, r6, #15
    388e:	f103 0078 	add.w	r0, r3, #120	; 0x78
    3892:	f103 0e77 	add.w	lr, r3, #119	; 0x77
    3896:	00c3      	lsls	r3, r0, #3
    3898:	e5da      	b.n	3450 <_malloc_r+0x44>
    389a:	f44f 5180 	mov.w	r1, #4096	; 0x1000
    389e:	e6ed      	b.n	367c <_malloc_r+0x270>
    38a0:	687b      	ldr	r3, [r7, #4]
    38a2:	1092      	asrs	r2, r2, #2
    38a4:	2101      	movs	r1, #1
    38a6:	fa01 f202 	lsl.w	r2, r1, r2
    38aa:	4313      	orrs	r3, r2
    38ac:	607b      	str	r3, [r7, #4]
    38ae:	4662      	mov	r2, ip
    38b0:	e779      	b.n	37a6 <_malloc_r+0x39a>
    38b2:	2301      	movs	r3, #1
    38b4:	6053      	str	r3, [r2, #4]
    38b6:	e729      	b.n	370c <_malloc_r+0x300>
    38b8:	f240 5254 	movw	r2, #1364	; 0x554
    38bc:	4293      	cmp	r3, r2
    38be:	d822      	bhi.n	3906 <_malloc_r+0x4fa>
    38c0:	0cb3      	lsrs	r3, r6, #18
    38c2:	f103 007d 	add.w	r0, r3, #125	; 0x7d
    38c6:	f103 0e7c 	add.w	lr, r3, #124	; 0x7c
    38ca:	00c3      	lsls	r3, r0, #3
    38cc:	e5c0      	b.n	3450 <_malloc_r+0x44>
    38ce:	f103 0b10 	add.w	fp, r3, #16
    38d2:	e6ae      	b.n	3632 <_malloc_r+0x226>
    38d4:	2a54      	cmp	r2, #84	; 0x54
    38d6:	d829      	bhi.n	392c <_malloc_r+0x520>
    38d8:	0b1a      	lsrs	r2, r3, #12
    38da:	f102 016f 	add.w	r1, r2, #111	; 0x6f
    38de:	00c9      	lsls	r1, r1, #3
    38e0:	326e      	adds	r2, #110	; 0x6e
    38e2:	e74d      	b.n	3780 <_malloc_r+0x374>
    38e4:	4b20      	ldr	r3, [pc, #128]	; (3968 <_malloc_r+0x55c>)
    38e6:	6819      	ldr	r1, [r3, #0]
    38e8:	4459      	add	r1, fp
    38ea:	6019      	str	r1, [r3, #0]
    38ec:	e6b2      	b.n	3654 <_malloc_r+0x248>
    38ee:	f3ca 000b 	ubfx	r0, sl, #0, #12
    38f2:	2800      	cmp	r0, #0
    38f4:	f47f aeae 	bne.w	3654 <_malloc_r+0x248>
    38f8:	eb08 030b 	add.w	r3, r8, fp
    38fc:	68ba      	ldr	r2, [r7, #8]
    38fe:	f043 0301 	orr.w	r3, r3, #1
    3902:	6053      	str	r3, [r2, #4]
    3904:	e6ee      	b.n	36e4 <_malloc_r+0x2d8>
    3906:	207f      	movs	r0, #127	; 0x7f
    3908:	f44f 737e 	mov.w	r3, #1016	; 0x3f8
    390c:	f04f 0e7e 	mov.w	lr, #126	; 0x7e
    3910:	e59e      	b.n	3450 <_malloc_r+0x44>
    3912:	f104 0108 	add.w	r1, r4, #8
    3916:	4628      	mov	r0, r5
    3918:	9300      	str	r3, [sp, #0]
    391a:	f7ff fbd1 	bl	30c0 <_free_r>
    391e:	9b00      	ldr	r3, [sp, #0]
    3920:	6819      	ldr	r1, [r3, #0]
    3922:	e6df      	b.n	36e4 <_malloc_r+0x2d8>
    3924:	2001      	movs	r0, #1
    3926:	f04f 0900 	mov.w	r9, #0
    392a:	e6bc      	b.n	36a6 <_malloc_r+0x29a>
    392c:	f5b2 7faa 	cmp.w	r2, #340	; 0x154
    3930:	d805      	bhi.n	393e <_malloc_r+0x532>
    3932:	0bda      	lsrs	r2, r3, #15
    3934:	f102 0178 	add.w	r1, r2, #120	; 0x78
    3938:	00c9      	lsls	r1, r1, #3
    393a:	3277      	adds	r2, #119	; 0x77
    393c:	e720      	b.n	3780 <_malloc_r+0x374>
    393e:	f240 5154 	movw	r1, #1364	; 0x554
    3942:	428a      	cmp	r2, r1
    3944:	d805      	bhi.n	3952 <_malloc_r+0x546>
    3946:	0c9a      	lsrs	r2, r3, #18
    3948:	f102 017d 	add.w	r1, r2, #125	; 0x7d
    394c:	00c9      	lsls	r1, r1, #3
    394e:	327c      	adds	r2, #124	; 0x7c
    3950:	e716      	b.n	3780 <_malloc_r+0x374>
    3952:	f44f 717e 	mov.w	r1, #1016	; 0x3f8
    3956:	227e      	movs	r2, #126	; 0x7e
    3958:	e712      	b.n	3780 <_malloc_r+0x374>
    395a:	687b      	ldr	r3, [r7, #4]
    395c:	e780      	b.n	3860 <_malloc_r+0x454>
    395e:	08f0      	lsrs	r0, r6, #3
    3960:	f106 0308 	add.w	r3, r6, #8
    3964:	e600      	b.n	3568 <_malloc_r+0x15c>
    3966:	bf00      	nop
    3968:	200009d0 	.word	0x200009d0
    396c:	00000000 	.word	0x00000000

00003970 <memchr>:
    3970:	f001 01ff 	and.w	r1, r1, #255	; 0xff
    3974:	2a10      	cmp	r2, #16
    3976:	db2b      	blt.n	39d0 <memchr+0x60>
    3978:	f010 0f07 	tst.w	r0, #7
    397c:	d008      	beq.n	3990 <memchr+0x20>
    397e:	f810 3b01 	ldrb.w	r3, [r0], #1
    3982:	3a01      	subs	r2, #1
    3984:	428b      	cmp	r3, r1
    3986:	d02d      	beq.n	39e4 <memchr+0x74>
    3988:	f010 0f07 	tst.w	r0, #7
    398c:	b342      	cbz	r2, 39e0 <memchr+0x70>
    398e:	d1f6      	bne.n	397e <memchr+0xe>
    3990:	b4f0      	push	{r4, r5, r6, r7}
    3992:	ea41 2101 	orr.w	r1, r1, r1, lsl #8
    3996:	ea41 4101 	orr.w	r1, r1, r1, lsl #16
    399a:	f022 0407 	bic.w	r4, r2, #7
    399e:	f07f 0700 	mvns.w	r7, #0
    39a2:	2300      	movs	r3, #0
    39a4:	e8f0 5602 	ldrd	r5, r6, [r0], #8
    39a8:	3c08      	subs	r4, #8
    39aa:	ea85 0501 	eor.w	r5, r5, r1
    39ae:	ea86 0601 	eor.w	r6, r6, r1
    39b2:	fa85 f547 	uadd8	r5, r5, r7
    39b6:	faa3 f587 	sel	r5, r3, r7
    39ba:	fa86 f647 	uadd8	r6, r6, r7
    39be:	faa5 f687 	sel	r6, r5, r7
    39c2:	b98e      	cbnz	r6, 39e8 <memchr+0x78>
    39c4:	d1ee      	bne.n	39a4 <memchr+0x34>
    39c6:	bcf0      	pop	{r4, r5, r6, r7}
    39c8:	f001 01ff 	and.w	r1, r1, #255	; 0xff
    39cc:	f002 0207 	and.w	r2, r2, #7
    39d0:	b132      	cbz	r2, 39e0 <memchr+0x70>
    39d2:	f810 3b01 	ldrb.w	r3, [r0], #1
    39d6:	3a01      	subs	r2, #1
    39d8:	ea83 0301 	eor.w	r3, r3, r1
    39dc:	b113      	cbz	r3, 39e4 <memchr+0x74>
    39de:	d1f8      	bne.n	39d2 <memchr+0x62>
    39e0:	2000      	movs	r0, #0
    39e2:	4770      	bx	lr
    39e4:	3801      	subs	r0, #1
    39e6:	4770      	bx	lr
    39e8:	2d00      	cmp	r5, #0
    39ea:	bf06      	itte	eq
    39ec:	4635      	moveq	r5, r6
    39ee:	3803      	subeq	r0, #3
    39f0:	3807      	subne	r0, #7
    39f2:	f015 0f01 	tst.w	r5, #1
    39f6:	d107      	bne.n	3a08 <memchr+0x98>
    39f8:	3001      	adds	r0, #1
    39fa:	f415 7f80 	tst.w	r5, #256	; 0x100
    39fe:	bf02      	ittt	eq
    3a00:	3001      	addeq	r0, #1
    3a02:	f415 3fc0 	tsteq.w	r5, #98304	; 0x18000
    3a06:	3001      	addeq	r0, #1
    3a08:	bcf0      	pop	{r4, r5, r6, r7}
    3a0a:	3801      	subs	r0, #1
    3a0c:	4770      	bx	lr
    3a0e:	bf00      	nop

00003a10 <memcpy>:
    3a10:	4684      	mov	ip, r0
    3a12:	ea41 0300 	orr.w	r3, r1, r0
    3a16:	f013 0303 	ands.w	r3, r3, #3
    3a1a:	d16d      	bne.n	3af8 <memcpy+0xe8>
    3a1c:	3a40      	subs	r2, #64	; 0x40
    3a1e:	d341      	bcc.n	3aa4 <memcpy+0x94>
    3a20:	f851 3b04 	ldr.w	r3, [r1], #4
    3a24:	f840 3b04 	str.w	r3, [r0], #4
    3a28:	f851 3b04 	ldr.w	r3, [r1], #4
    3a2c:	f840 3b04 	str.w	r3, [r0], #4
    3a30:	f851 3b04 	ldr.w	r3, [r1], #4
    3a34:	f840 3b04 	str.w	r3, [r0], #4
    3a38:	f851 3b04 	ldr.w	r3, [r1], #4
    3a3c:	f840 3b04 	str.w	r3, [r0], #4
    3a40:	f851 3b04 	ldr.w	r3, [r1], #4
    3a44:	f840 3b04 	str.w	r3, [r0], #4
    3a48:	f851 3b04 	ldr.w	r3, [r1], #4
    3a4c:	f840 3b04 	str.w	r3, [r0], #4
    3a50:	f851 3b04 	ldr.w	r3, [r1], #4
    3a54:	f840 3b04 	str.w	r3, [r0], #4
    3a58:	f851 3b04 	ldr.w	r3, [r1], #4
    3a5c:	f840 3b04 	str.w	r3, [r0], #4
    3a60:	f851 3b04 	ldr.w	r3, [r1], #4
    3a64:	f840 3b04 	str.w	r3, [r0], #4
    3a68:	f851 3b04 	ldr.w	r3, [r1], #4
    3a6c:	f840 3b04 	str.w	r3, [r0], #4
    3a70:	f851 3b04 	ldr.w	r3, [r1], #4
    3a74:	f840 3b04 	str.w	r3, [r0], #4
    3a78:	f851 3b04 	ldr.w	r3, [r1], #4
    3a7c:	f840 3b04 	str.w	r3, [r0], #4
    3a80:	f851 3b04 	ldr.w	r3, [r1], #4
    3a84:	f840 3b04 	str.w	r3, [r0], #4
    3a88:	f851 3b04 	ldr.w	r3, [r1], #4
    3a8c:	f840 3b04 	str.w	r3, [r0], #4
    3a90:	f851 3b04 	ldr.w	r3, [r1], #4
    3a94:	f840 3b04 	str.w	r3, [r0], #4
    3a98:	f851 3b04 	ldr.w	r3, [r1], #4
    3a9c:	f840 3b04 	str.w	r3, [r0], #4
    3aa0:	3a40      	subs	r2, #64	; 0x40
    3aa2:	d2bd      	bcs.n	3a20 <memcpy+0x10>
    3aa4:	3230      	adds	r2, #48	; 0x30
    3aa6:	d311      	bcc.n	3acc <memcpy+0xbc>
    3aa8:	f851 3b04 	ldr.w	r3, [r1], #4
    3aac:	f840 3b04 	str.w	r3, [r0], #4
    3ab0:	f851 3b04 	ldr.w	r3, [r1], #4
    3ab4:	f840 3b04 	str.w	r3, [r0], #4
    3ab8:	f851 3b04 	ldr.w	r3, [r1], #4
    3abc:	f840 3b04 	str.w	r3, [r0], #4
    3ac0:	f851 3b04 	ldr.w	r3, [r1], #4
    3ac4:	f840 3b04 	str.w	r3, [r0], #4
    3ac8:	3a10      	subs	r2, #16
    3aca:	d2ed      	bcs.n	3aa8 <memcpy+0x98>
    3acc:	320c      	adds	r2, #12
    3ace:	d305      	bcc.n	3adc <memcpy+0xcc>
    3ad0:	f851 3b04 	ldr.w	r3, [r1], #4
    3ad4:	f840 3b04 	str.w	r3, [r0], #4
    3ad8:	3a04      	subs	r2, #4
    3ada:	d2f9      	bcs.n	3ad0 <memcpy+0xc0>
    3adc:	3204      	adds	r2, #4
    3ade:	d008      	beq.n	3af2 <memcpy+0xe2>
    3ae0:	07d2      	lsls	r2, r2, #31
    3ae2:	bf1c      	itt	ne
    3ae4:	f811 3b01 	ldrbne.w	r3, [r1], #1
    3ae8:	f800 3b01 	strbne.w	r3, [r0], #1
    3aec:	d301      	bcc.n	3af2 <memcpy+0xe2>
    3aee:	880b      	ldrh	r3, [r1, #0]
    3af0:	8003      	strh	r3, [r0, #0]
    3af2:	4660      	mov	r0, ip
    3af4:	4770      	bx	lr
    3af6:	bf00      	nop
    3af8:	2a08      	cmp	r2, #8
    3afa:	d313      	bcc.n	3b24 <memcpy+0x114>
    3afc:	078b      	lsls	r3, r1, #30
    3afe:	d08d      	beq.n	3a1c <memcpy+0xc>
    3b00:	f010 0303 	ands.w	r3, r0, #3
    3b04:	d08a      	beq.n	3a1c <memcpy+0xc>
    3b06:	f1c3 0304 	rsb	r3, r3, #4
    3b0a:	1ad2      	subs	r2, r2, r3
    3b0c:	07db      	lsls	r3, r3, #31
    3b0e:	bf1c      	itt	ne
    3b10:	f811 3b01 	ldrbne.w	r3, [r1], #1
    3b14:	f800 3b01 	strbne.w	r3, [r0], #1
    3b18:	d380      	bcc.n	3a1c <memcpy+0xc>
    3b1a:	f831 3b02 	ldrh.w	r3, [r1], #2
    3b1e:	f820 3b02 	strh.w	r3, [r0], #2
    3b22:	e77b      	b.n	3a1c <memcpy+0xc>
    3b24:	3a04      	subs	r2, #4
    3b26:	d3d9      	bcc.n	3adc <memcpy+0xcc>
    3b28:	3a01      	subs	r2, #1
    3b2a:	f811 3b01 	ldrb.w	r3, [r1], #1
    3b2e:	f800 3b01 	strb.w	r3, [r0], #1
    3b32:	d2f9      	bcs.n	3b28 <memcpy+0x118>
    3b34:	780b      	ldrb	r3, [r1, #0]
    3b36:	7003      	strb	r3, [r0, #0]
    3b38:	784b      	ldrb	r3, [r1, #1]
    3b3a:	7043      	strb	r3, [r0, #1]
    3b3c:	788b      	ldrb	r3, [r1, #2]
    3b3e:	7083      	strb	r3, [r0, #2]
    3b40:	4660      	mov	r0, ip
    3b42:	4770      	bx	lr

00003b44 <__malloc_lock>:
    3b44:	4801      	ldr	r0, [pc, #4]	; (3b4c <__malloc_lock+0x8>)
    3b46:	f7ff bbdd 	b.w	3304 <__retarget_lock_acquire_recursive>
    3b4a:	bf00      	nop
    3b4c:	20000a14 	.word	0x20000a14

00003b50 <__malloc_unlock>:
    3b50:	4801      	ldr	r0, [pc, #4]	; (3b58 <__malloc_unlock+0x8>)
    3b52:	f7ff bbd9 	b.w	3308 <__retarget_lock_release_recursive>
    3b56:	bf00      	nop
    3b58:	20000a14 	.word	0x20000a14

00003b5c <_Balloc>:
    3b5c:	6cc3      	ldr	r3, [r0, #76]	; 0x4c
    3b5e:	b570      	push	{r4, r5, r6, lr}
    3b60:	4605      	mov	r5, r0
    3b62:	460c      	mov	r4, r1
    3b64:	b14b      	cbz	r3, 3b7a <_Balloc+0x1e>
    3b66:	f853 0024 	ldr.w	r0, [r3, r4, lsl #2]
    3b6a:	b180      	cbz	r0, 3b8e <_Balloc+0x32>
    3b6c:	6802      	ldr	r2, [r0, #0]
    3b6e:	f843 2024 	str.w	r2, [r3, r4, lsl #2]
    3b72:	2300      	movs	r3, #0
    3b74:	6103      	str	r3, [r0, #16]
    3b76:	60c3      	str	r3, [r0, #12]
    3b78:	bd70      	pop	{r4, r5, r6, pc}
    3b7a:	2221      	movs	r2, #33	; 0x21
    3b7c:	2104      	movs	r1, #4
    3b7e:	f000 fc6f 	bl	4460 <_calloc_r>
    3b82:	64e8      	str	r0, [r5, #76]	; 0x4c
    3b84:	4603      	mov	r3, r0
    3b86:	2800      	cmp	r0, #0
    3b88:	d1ed      	bne.n	3b66 <_Balloc+0xa>
    3b8a:	2000      	movs	r0, #0
    3b8c:	bd70      	pop	{r4, r5, r6, pc}
    3b8e:	2101      	movs	r1, #1
    3b90:	fa01 f604 	lsl.w	r6, r1, r4
    3b94:	1d72      	adds	r2, r6, #5
    3b96:	4628      	mov	r0, r5
    3b98:	0092      	lsls	r2, r2, #2
    3b9a:	f000 fc61 	bl	4460 <_calloc_r>
    3b9e:	2800      	cmp	r0, #0
    3ba0:	d0f3      	beq.n	3b8a <_Balloc+0x2e>
    3ba2:	6044      	str	r4, [r0, #4]
    3ba4:	6086      	str	r6, [r0, #8]
    3ba6:	e7e4      	b.n	3b72 <_Balloc+0x16>

00003ba8 <_Bfree>:
    3ba8:	b131      	cbz	r1, 3bb8 <_Bfree+0x10>
    3baa:	6cc3      	ldr	r3, [r0, #76]	; 0x4c
    3bac:	684a      	ldr	r2, [r1, #4]
    3bae:	f853 0022 	ldr.w	r0, [r3, r2, lsl #2]
    3bb2:	6008      	str	r0, [r1, #0]
    3bb4:	f843 1022 	str.w	r1, [r3, r2, lsl #2]
    3bb8:	4770      	bx	lr
    3bba:	bf00      	nop

00003bbc <__multadd>:
    3bbc:	b5f0      	push	{r4, r5, r6, r7, lr}
    3bbe:	690c      	ldr	r4, [r1, #16]
    3bc0:	b083      	sub	sp, #12
    3bc2:	460d      	mov	r5, r1
    3bc4:	4606      	mov	r6, r0
    3bc6:	f101 0e14 	add.w	lr, r1, #20
    3bca:	2700      	movs	r7, #0
    3bcc:	f8de 0000 	ldr.w	r0, [lr]
    3bd0:	b281      	uxth	r1, r0
    3bd2:	fb02 3301 	mla	r3, r2, r1, r3
    3bd6:	0c01      	lsrs	r1, r0, #16
    3bd8:	0c18      	lsrs	r0, r3, #16
    3bda:	fb02 0101 	mla	r1, r2, r1, r0
    3bde:	b29b      	uxth	r3, r3
    3be0:	3701      	adds	r7, #1
    3be2:	eb03 4301 	add.w	r3, r3, r1, lsl #16
    3be6:	42bc      	cmp	r4, r7
    3be8:	f84e 3b04 	str.w	r3, [lr], #4
    3bec:	ea4f 4311 	mov.w	r3, r1, lsr #16
    3bf0:	dcec      	bgt.n	3bcc <__multadd+0x10>
    3bf2:	b13b      	cbz	r3, 3c04 <__multadd+0x48>
    3bf4:	68aa      	ldr	r2, [r5, #8]
    3bf6:	4294      	cmp	r4, r2
    3bf8:	da07      	bge.n	3c0a <__multadd+0x4e>
    3bfa:	eb05 0284 	add.w	r2, r5, r4, lsl #2
    3bfe:	3401      	adds	r4, #1
    3c00:	6153      	str	r3, [r2, #20]
    3c02:	612c      	str	r4, [r5, #16]
    3c04:	4628      	mov	r0, r5
    3c06:	b003      	add	sp, #12
    3c08:	bdf0      	pop	{r4, r5, r6, r7, pc}
    3c0a:	6869      	ldr	r1, [r5, #4]
    3c0c:	9301      	str	r3, [sp, #4]
    3c0e:	3101      	adds	r1, #1
    3c10:	4630      	mov	r0, r6
    3c12:	f7ff ffa3 	bl	3b5c <_Balloc>
    3c16:	692a      	ldr	r2, [r5, #16]
    3c18:	3202      	adds	r2, #2
    3c1a:	f105 010c 	add.w	r1, r5, #12
    3c1e:	4607      	mov	r7, r0
    3c20:	0092      	lsls	r2, r2, #2
    3c22:	300c      	adds	r0, #12
    3c24:	f7ff fef4 	bl	3a10 <memcpy>
    3c28:	6cf2      	ldr	r2, [r6, #76]	; 0x4c
    3c2a:	6869      	ldr	r1, [r5, #4]
    3c2c:	9b01      	ldr	r3, [sp, #4]
    3c2e:	f852 0021 	ldr.w	r0, [r2, r1, lsl #2]
    3c32:	6028      	str	r0, [r5, #0]
    3c34:	f842 5021 	str.w	r5, [r2, r1, lsl #2]
    3c38:	463d      	mov	r5, r7
    3c3a:	e7de      	b.n	3bfa <__multadd+0x3e>

00003c3c <__hi0bits>:
    3c3c:	0c02      	lsrs	r2, r0, #16
    3c3e:	0412      	lsls	r2, r2, #16
    3c40:	4603      	mov	r3, r0
    3c42:	b9b2      	cbnz	r2, 3c72 <__hi0bits+0x36>
    3c44:	0403      	lsls	r3, r0, #16
    3c46:	2010      	movs	r0, #16
    3c48:	f013 4f7f 	tst.w	r3, #4278190080	; 0xff000000
    3c4c:	bf04      	itt	eq
    3c4e:	021b      	lsleq	r3, r3, #8
    3c50:	3008      	addeq	r0, #8
    3c52:	f013 4f70 	tst.w	r3, #4026531840	; 0xf0000000
    3c56:	bf04      	itt	eq
    3c58:	011b      	lsleq	r3, r3, #4
    3c5a:	3004      	addeq	r0, #4
    3c5c:	f013 4f40 	tst.w	r3, #3221225472	; 0xc0000000
    3c60:	bf04      	itt	eq
    3c62:	009b      	lsleq	r3, r3, #2
    3c64:	3002      	addeq	r0, #2
    3c66:	2b00      	cmp	r3, #0
    3c68:	db02      	blt.n	3c70 <__hi0bits+0x34>
    3c6a:	005b      	lsls	r3, r3, #1
    3c6c:	d403      	bmi.n	3c76 <__hi0bits+0x3a>
    3c6e:	2020      	movs	r0, #32
    3c70:	4770      	bx	lr
    3c72:	2000      	movs	r0, #0
    3c74:	e7e8      	b.n	3c48 <__hi0bits+0xc>
    3c76:	3001      	adds	r0, #1
    3c78:	4770      	bx	lr
    3c7a:	bf00      	nop

00003c7c <__lo0bits>:
    3c7c:	6803      	ldr	r3, [r0, #0]
    3c7e:	f013 0207 	ands.w	r2, r3, #7
    3c82:	4601      	mov	r1, r0
    3c84:	d007      	beq.n	3c96 <__lo0bits+0x1a>
    3c86:	07da      	lsls	r2, r3, #31
    3c88:	d421      	bmi.n	3cce <__lo0bits+0x52>
    3c8a:	0798      	lsls	r0, r3, #30
    3c8c:	d421      	bmi.n	3cd2 <__lo0bits+0x56>
    3c8e:	089b      	lsrs	r3, r3, #2
    3c90:	600b      	str	r3, [r1, #0]
    3c92:	2002      	movs	r0, #2
    3c94:	4770      	bx	lr
    3c96:	b298      	uxth	r0, r3
    3c98:	b198      	cbz	r0, 3cc2 <__lo0bits+0x46>
    3c9a:	4610      	mov	r0, r2
    3c9c:	f013 0fff 	tst.w	r3, #255	; 0xff
    3ca0:	bf04      	itt	eq
    3ca2:	0a1b      	lsreq	r3, r3, #8
    3ca4:	3008      	addeq	r0, #8
    3ca6:	071a      	lsls	r2, r3, #28
    3ca8:	bf04      	itt	eq
    3caa:	091b      	lsreq	r3, r3, #4
    3cac:	3004      	addeq	r0, #4
    3cae:	079a      	lsls	r2, r3, #30
    3cb0:	bf04      	itt	eq
    3cb2:	089b      	lsreq	r3, r3, #2
    3cb4:	3002      	addeq	r0, #2
    3cb6:	07da      	lsls	r2, r3, #31
    3cb8:	d407      	bmi.n	3cca <__lo0bits+0x4e>
    3cba:	085b      	lsrs	r3, r3, #1
    3cbc:	d104      	bne.n	3cc8 <__lo0bits+0x4c>
    3cbe:	2020      	movs	r0, #32
    3cc0:	4770      	bx	lr
    3cc2:	0c1b      	lsrs	r3, r3, #16
    3cc4:	2010      	movs	r0, #16
    3cc6:	e7e9      	b.n	3c9c <__lo0bits+0x20>
    3cc8:	3001      	adds	r0, #1
    3cca:	600b      	str	r3, [r1, #0]
    3ccc:	4770      	bx	lr
    3cce:	2000      	movs	r0, #0
    3cd0:	4770      	bx	lr
    3cd2:	085b      	lsrs	r3, r3, #1
    3cd4:	600b      	str	r3, [r1, #0]
    3cd6:	2001      	movs	r0, #1
    3cd8:	4770      	bx	lr
    3cda:	bf00      	nop

00003cdc <__i2b>:
    3cdc:	b510      	push	{r4, lr}
    3cde:	460c      	mov	r4, r1
    3ce0:	2101      	movs	r1, #1
    3ce2:	f7ff ff3b 	bl	3b5c <_Balloc>
    3ce6:	2201      	movs	r2, #1
    3ce8:	6144      	str	r4, [r0, #20]
    3cea:	6102      	str	r2, [r0, #16]
    3cec:	bd10      	pop	{r4, pc}
    3cee:	bf00      	nop

00003cf0 <__multiply>:
    3cf0:	e92d 4ff0 	stmdb	sp!, {r4, r5, r6, r7, r8, r9, sl, fp, lr}
    3cf4:	690c      	ldr	r4, [r1, #16]
    3cf6:	6915      	ldr	r5, [r2, #16]
    3cf8:	42ac      	cmp	r4, r5
    3cfa:	b083      	sub	sp, #12
    3cfc:	468b      	mov	fp, r1
    3cfe:	4616      	mov	r6, r2
    3d00:	da04      	bge.n	3d0c <__multiply+0x1c>
    3d02:	4622      	mov	r2, r4
    3d04:	46b3      	mov	fp, r6
    3d06:	462c      	mov	r4, r5
    3d08:	460e      	mov	r6, r1
    3d0a:	4615      	mov	r5, r2
    3d0c:	f8db 3008 	ldr.w	r3, [fp, #8]
    3d10:	f8db 1004 	ldr.w	r1, [fp, #4]
    3d14:	eb04 0805 	add.w	r8, r4, r5
    3d18:	4598      	cmp	r8, r3
    3d1a:	bfc8      	it	gt
    3d1c:	3101      	addgt	r1, #1
    3d1e:	f7ff ff1d 	bl	3b5c <_Balloc>
    3d22:	f100 0914 	add.w	r9, r0, #20
    3d26:	eb09 0a88 	add.w	sl, r9, r8, lsl #2
    3d2a:	45d1      	cmp	r9, sl
    3d2c:	9000      	str	r0, [sp, #0]
    3d2e:	d205      	bcs.n	3d3c <__multiply+0x4c>
    3d30:	464b      	mov	r3, r9
    3d32:	2100      	movs	r1, #0
    3d34:	f843 1b04 	str.w	r1, [r3], #4
    3d38:	459a      	cmp	sl, r3
    3d3a:	d8fb      	bhi.n	3d34 <__multiply+0x44>
    3d3c:	f106 0c14 	add.w	ip, r6, #20
    3d40:	eb0c 0385 	add.w	r3, ip, r5, lsl #2
    3d44:	f10b 0b14 	add.w	fp, fp, #20
    3d48:	459c      	cmp	ip, r3
    3d4a:	eb0b 0e84 	add.w	lr, fp, r4, lsl #2
    3d4e:	d24c      	bcs.n	3dea <__multiply+0xfa>
    3d50:	f8cd a004 	str.w	sl, [sp, #4]
    3d54:	469a      	mov	sl, r3
    3d56:	f8dc 5000 	ldr.w	r5, [ip]
    3d5a:	b2af      	uxth	r7, r5
    3d5c:	b1ef      	cbz	r7, 3d9a <__multiply+0xaa>
    3d5e:	2100      	movs	r1, #0
    3d60:	464d      	mov	r5, r9
    3d62:	465e      	mov	r6, fp
    3d64:	460c      	mov	r4, r1
    3d66:	f856 2b04 	ldr.w	r2, [r6], #4
    3d6a:	6828      	ldr	r0, [r5, #0]
    3d6c:	b293      	uxth	r3, r2
    3d6e:	b281      	uxth	r1, r0
    3d70:	fb07 1303 	mla	r3, r7, r3, r1
    3d74:	0c12      	lsrs	r2, r2, #16
    3d76:	0c01      	lsrs	r1, r0, #16
    3d78:	4423      	add	r3, r4
    3d7a:	fb07 1102 	mla	r1, r7, r2, r1
    3d7e:	eb01 4113 	add.w	r1, r1, r3, lsr #16
    3d82:	b29b      	uxth	r3, r3
    3d84:	ea43 4301 	orr.w	r3, r3, r1, lsl #16
    3d88:	45b6      	cmp	lr, r6
    3d8a:	f845 3b04 	str.w	r3, [r5], #4
    3d8e:	ea4f 4411 	mov.w	r4, r1, lsr #16
    3d92:	d8e8      	bhi.n	3d66 <__multiply+0x76>
    3d94:	602c      	str	r4, [r5, #0]
    3d96:	f8dc 5000 	ldr.w	r5, [ip]
    3d9a:	0c2d      	lsrs	r5, r5, #16
    3d9c:	d01d      	beq.n	3dda <__multiply+0xea>
    3d9e:	f8d9 3000 	ldr.w	r3, [r9]
    3da2:	4648      	mov	r0, r9
    3da4:	461c      	mov	r4, r3
    3da6:	4659      	mov	r1, fp
    3da8:	2200      	movs	r2, #0
    3daa:	880e      	ldrh	r6, [r1, #0]
    3dac:	0c24      	lsrs	r4, r4, #16
    3dae:	fb05 4406 	mla	r4, r5, r6, r4
    3db2:	4422      	add	r2, r4
    3db4:	b29b      	uxth	r3, r3
    3db6:	ea43 4302 	orr.w	r3, r3, r2, lsl #16
    3dba:	f840 3b04 	str.w	r3, [r0], #4
    3dbe:	f851 3b04 	ldr.w	r3, [r1], #4
    3dc2:	6804      	ldr	r4, [r0, #0]
    3dc4:	0c1b      	lsrs	r3, r3, #16
    3dc6:	b2a6      	uxth	r6, r4
    3dc8:	fb05 6303 	mla	r3, r5, r3, r6
    3dcc:	eb03 4312 	add.w	r3, r3, r2, lsr #16
    3dd0:	458e      	cmp	lr, r1
    3dd2:	ea4f 4213 	mov.w	r2, r3, lsr #16
    3dd6:	d8e8      	bhi.n	3daa <__multiply+0xba>
    3dd8:	6003      	str	r3, [r0, #0]
    3dda:	f10c 0c04 	add.w	ip, ip, #4
    3dde:	45e2      	cmp	sl, ip
    3de0:	f109 0904 	add.w	r9, r9, #4
    3de4:	d8b7      	bhi.n	3d56 <__multiply+0x66>
    3de6:	f8dd a004 	ldr.w	sl, [sp, #4]
    3dea:	f1b8 0f00 	cmp.w	r8, #0
    3dee:	dd0b      	ble.n	3e08 <__multiply+0x118>
    3df0:	f85a 3c04 	ldr.w	r3, [sl, #-4]
    3df4:	f1aa 0a04 	sub.w	sl, sl, #4
    3df8:	b11b      	cbz	r3, 3e02 <__multiply+0x112>
    3dfa:	e005      	b.n	3e08 <__multiply+0x118>
    3dfc:	f85a 3d04 	ldr.w	r3, [sl, #-4]!
    3e00:	b913      	cbnz	r3, 3e08 <__multiply+0x118>
    3e02:	f1b8 0801 	subs.w	r8, r8, #1
    3e06:	d1f9      	bne.n	3dfc <__multiply+0x10c>
    3e08:	9800      	ldr	r0, [sp, #0]
    3e0a:	f8c0 8010 	str.w	r8, [r0, #16]
    3e0e:	b003      	add	sp, #12
    3e10:	e8bd 8ff0 	ldmia.w	sp!, {r4, r5, r6, r7, r8, r9, sl, fp, pc}

00003e14 <__pow5mult>:
    3e14:	f012 0303 	ands.w	r3, r2, #3
    3e18:	e92d 41f0 	stmdb	sp!, {r4, r5, r6, r7, r8, lr}
    3e1c:	4614      	mov	r4, r2
    3e1e:	4607      	mov	r7, r0
    3e20:	d12e      	bne.n	3e80 <__pow5mult+0x6c>
    3e22:	460d      	mov	r5, r1
    3e24:	10a4      	asrs	r4, r4, #2
    3e26:	d01c      	beq.n	3e62 <__pow5mult+0x4e>
    3e28:	6cbe      	ldr	r6, [r7, #72]	; 0x48
    3e2a:	b396      	cbz	r6, 3e92 <__pow5mult+0x7e>
    3e2c:	07e3      	lsls	r3, r4, #31
    3e2e:	f04f 0800 	mov.w	r8, #0
    3e32:	d406      	bmi.n	3e42 <__pow5mult+0x2e>
    3e34:	1064      	asrs	r4, r4, #1
    3e36:	d014      	beq.n	3e62 <__pow5mult+0x4e>
    3e38:	6830      	ldr	r0, [r6, #0]
    3e3a:	b1a8      	cbz	r0, 3e68 <__pow5mult+0x54>
    3e3c:	4606      	mov	r6, r0
    3e3e:	07e3      	lsls	r3, r4, #31
    3e40:	d5f8      	bpl.n	3e34 <__pow5mult+0x20>
    3e42:	4632      	mov	r2, r6
    3e44:	4629      	mov	r1, r5
    3e46:	4638      	mov	r0, r7
    3e48:	f7ff ff52 	bl	3cf0 <__multiply>
    3e4c:	b1b5      	cbz	r5, 3e7c <__pow5mult+0x68>
    3e4e:	686a      	ldr	r2, [r5, #4]
    3e50:	6cfb      	ldr	r3, [r7, #76]	; 0x4c
    3e52:	1064      	asrs	r4, r4, #1
    3e54:	f853 1022 	ldr.w	r1, [r3, r2, lsl #2]
    3e58:	6029      	str	r1, [r5, #0]
    3e5a:	f843 5022 	str.w	r5, [r3, r2, lsl #2]
    3e5e:	4605      	mov	r5, r0
    3e60:	d1ea      	bne.n	3e38 <__pow5mult+0x24>
    3e62:	4628      	mov	r0, r5
    3e64:	e8bd 81f0 	ldmia.w	sp!, {r4, r5, r6, r7, r8, pc}
    3e68:	4632      	mov	r2, r6
    3e6a:	4631      	mov	r1, r6
    3e6c:	4638      	mov	r0, r7
    3e6e:	f7ff ff3f 	bl	3cf0 <__multiply>
    3e72:	6030      	str	r0, [r6, #0]
    3e74:	f8c0 8000 	str.w	r8, [r0]
    3e78:	4606      	mov	r6, r0
    3e7a:	e7e0      	b.n	3e3e <__pow5mult+0x2a>
    3e7c:	4605      	mov	r5, r0
    3e7e:	e7d9      	b.n	3e34 <__pow5mult+0x20>
    3e80:	1e5a      	subs	r2, r3, #1
    3e82:	4d0b      	ldr	r5, [pc, #44]	; (3eb0 <__pow5mult+0x9c>)
    3e84:	2300      	movs	r3, #0
    3e86:	f855 2022 	ldr.w	r2, [r5, r2, lsl #2]
    3e8a:	f7ff fe97 	bl	3bbc <__multadd>
    3e8e:	4605      	mov	r5, r0
    3e90:	e7c8      	b.n	3e24 <__pow5mult+0x10>
    3e92:	2101      	movs	r1, #1
    3e94:	4638      	mov	r0, r7
    3e96:	f7ff fe61 	bl	3b5c <_Balloc>
    3e9a:	f240 2171 	movw	r1, #625	; 0x271
    3e9e:	2201      	movs	r2, #1
    3ea0:	2300      	movs	r3, #0
    3ea2:	6141      	str	r1, [r0, #20]
    3ea4:	6102      	str	r2, [r0, #16]
    3ea6:	4606      	mov	r6, r0
    3ea8:	64b8      	str	r0, [r7, #72]	; 0x48
    3eaa:	6003      	str	r3, [r0, #0]
    3eac:	e7be      	b.n	3e2c <__pow5mult+0x18>
    3eae:	bf00      	nop
    3eb0:	00005d70 	.word	0x00005d70

00003eb4 <__lshift>:
    3eb4:	e92d 43f8 	stmdb	sp!, {r3, r4, r5, r6, r7, r8, r9, lr}
    3eb8:	4691      	mov	r9, r2
    3eba:	690a      	ldr	r2, [r1, #16]
    3ebc:	688b      	ldr	r3, [r1, #8]
    3ebe:	ea4f 1469 	mov.w	r4, r9, asr #5
    3ec2:	eb04 0802 	add.w	r8, r4, r2
    3ec6:	f108 0501 	add.w	r5, r8, #1
    3eca:	429d      	cmp	r5, r3
    3ecc:	460e      	mov	r6, r1
    3ece:	4607      	mov	r7, r0
    3ed0:	6849      	ldr	r1, [r1, #4]
    3ed2:	dd04      	ble.n	3ede <__lshift+0x2a>
    3ed4:	005b      	lsls	r3, r3, #1
    3ed6:	429d      	cmp	r5, r3
    3ed8:	f101 0101 	add.w	r1, r1, #1
    3edc:	dcfa      	bgt.n	3ed4 <__lshift+0x20>
    3ede:	4638      	mov	r0, r7
    3ee0:	f7ff fe3c 	bl	3b5c <_Balloc>
    3ee4:	2c00      	cmp	r4, #0
    3ee6:	f100 0314 	add.w	r3, r0, #20
    3eea:	dd06      	ble.n	3efa <__lshift+0x46>
    3eec:	eb03 0284 	add.w	r2, r3, r4, lsl #2
    3ef0:	2100      	movs	r1, #0
    3ef2:	f843 1b04 	str.w	r1, [r3], #4
    3ef6:	429a      	cmp	r2, r3
    3ef8:	d1fb      	bne.n	3ef2 <__lshift+0x3e>
    3efa:	6934      	ldr	r4, [r6, #16]
    3efc:	f106 0114 	add.w	r1, r6, #20
    3f00:	f019 091f 	ands.w	r9, r9, #31
    3f04:	eb01 0e84 	add.w	lr, r1, r4, lsl #2
    3f08:	d01d      	beq.n	3f46 <__lshift+0x92>
    3f0a:	f1c9 0c20 	rsb	ip, r9, #32
    3f0e:	2200      	movs	r2, #0
    3f10:	680c      	ldr	r4, [r1, #0]
    3f12:	fa04 f409 	lsl.w	r4, r4, r9
    3f16:	4314      	orrs	r4, r2
    3f18:	f843 4b04 	str.w	r4, [r3], #4
    3f1c:	f851 2b04 	ldr.w	r2, [r1], #4
    3f20:	458e      	cmp	lr, r1
    3f22:	fa22 f20c 	lsr.w	r2, r2, ip
    3f26:	d8f3      	bhi.n	3f10 <__lshift+0x5c>
    3f28:	601a      	str	r2, [r3, #0]
    3f2a:	b10a      	cbz	r2, 3f30 <__lshift+0x7c>
    3f2c:	f108 0502 	add.w	r5, r8, #2
    3f30:	6cfb      	ldr	r3, [r7, #76]	; 0x4c
    3f32:	6872      	ldr	r2, [r6, #4]
    3f34:	3d01      	subs	r5, #1
    3f36:	f853 1022 	ldr.w	r1, [r3, r2, lsl #2]
    3f3a:	6105      	str	r5, [r0, #16]
    3f3c:	6031      	str	r1, [r6, #0]
    3f3e:	f843 6022 	str.w	r6, [r3, r2, lsl #2]
    3f42:	e8bd 83f8 	ldmia.w	sp!, {r3, r4, r5, r6, r7, r8, r9, pc}
    3f46:	3b04      	subs	r3, #4
    3f48:	f851 2b04 	ldr.w	r2, [r1], #4
    3f4c:	f843 2f04 	str.w	r2, [r3, #4]!
    3f50:	458e      	cmp	lr, r1
    3f52:	d8f9      	bhi.n	3f48 <__lshift+0x94>
    3f54:	e7ec      	b.n	3f30 <__lshift+0x7c>
    3f56:	bf00      	nop

00003f58 <__mcmp>:
    3f58:	b430      	push	{r4, r5}
    3f5a:	690b      	ldr	r3, [r1, #16]
    3f5c:	4605      	mov	r5, r0
    3f5e:	6900      	ldr	r0, [r0, #16]
    3f60:	1ac0      	subs	r0, r0, r3
    3f62:	d10f      	bne.n	3f84 <__mcmp+0x2c>
    3f64:	009b      	lsls	r3, r3, #2
    3f66:	3514      	adds	r5, #20
    3f68:	3114      	adds	r1, #20
    3f6a:	4419      	add	r1, r3
    3f6c:	442b      	add	r3, r5
    3f6e:	e001      	b.n	3f74 <__mcmp+0x1c>
    3f70:	429d      	cmp	r5, r3
    3f72:	d207      	bcs.n	3f84 <__mcmp+0x2c>
    3f74:	f853 4d04 	ldr.w	r4, [r3, #-4]!
    3f78:	f851 2d04 	ldr.w	r2, [r1, #-4]!
    3f7c:	4294      	cmp	r4, r2
    3f7e:	d0f7      	beq.n	3f70 <__mcmp+0x18>
    3f80:	d302      	bcc.n	3f88 <__mcmp+0x30>
    3f82:	2001      	movs	r0, #1
    3f84:	bc30      	pop	{r4, r5}
    3f86:	4770      	bx	lr
    3f88:	f04f 30ff 	mov.w	r0, #4294967295
    3f8c:	e7fa      	b.n	3f84 <__mcmp+0x2c>
    3f8e:	bf00      	nop

00003f90 <__mdiff>:
    3f90:	e92d 41f0 	stmdb	sp!, {r4, r5, r6, r7, r8, lr}
    3f94:	690f      	ldr	r7, [r1, #16]
    3f96:	460e      	mov	r6, r1
    3f98:	6911      	ldr	r1, [r2, #16]
    3f9a:	1a7f      	subs	r7, r7, r1
    3f9c:	2f00      	cmp	r7, #0
    3f9e:	4690      	mov	r8, r2
    3fa0:	d117      	bne.n	3fd2 <__mdiff+0x42>
    3fa2:	0089      	lsls	r1, r1, #2
    3fa4:	f106 0514 	add.w	r5, r6, #20
    3fa8:	f102 0e14 	add.w	lr, r2, #20
    3fac:	186b      	adds	r3, r5, r1
    3fae:	4471      	add	r1, lr
    3fb0:	e001      	b.n	3fb6 <__mdiff+0x26>
    3fb2:	429d      	cmp	r5, r3
    3fb4:	d25c      	bcs.n	4070 <__mdiff+0xe0>
    3fb6:	f853 2d04 	ldr.w	r2, [r3, #-4]!
    3fba:	f851 4d04 	ldr.w	r4, [r1, #-4]!
    3fbe:	42a2      	cmp	r2, r4
    3fc0:	d0f7      	beq.n	3fb2 <__mdiff+0x22>
    3fc2:	d25e      	bcs.n	4082 <__mdiff+0xf2>
    3fc4:	4633      	mov	r3, r6
    3fc6:	462c      	mov	r4, r5
    3fc8:	4646      	mov	r6, r8
    3fca:	4675      	mov	r5, lr
    3fcc:	4698      	mov	r8, r3
    3fce:	2701      	movs	r7, #1
    3fd0:	e005      	b.n	3fde <__mdiff+0x4e>
    3fd2:	db58      	blt.n	4086 <__mdiff+0xf6>
    3fd4:	f106 0514 	add.w	r5, r6, #20
    3fd8:	f108 0414 	add.w	r4, r8, #20
    3fdc:	2700      	movs	r7, #0
    3fde:	6871      	ldr	r1, [r6, #4]
    3fe0:	f7ff fdbc 	bl	3b5c <_Balloc>
    3fe4:	f8d8 3010 	ldr.w	r3, [r8, #16]
    3fe8:	6936      	ldr	r6, [r6, #16]
    3fea:	60c7      	str	r7, [r0, #12]
    3fec:	eb04 0c83 	add.w	ip, r4, r3, lsl #2
    3ff0:	46a6      	mov	lr, r4
    3ff2:	eb05 0786 	add.w	r7, r5, r6, lsl #2
    3ff6:	f100 0414 	add.w	r4, r0, #20
    3ffa:	2300      	movs	r3, #0
    3ffc:	f85e 1b04 	ldr.w	r1, [lr], #4
    4000:	f855 8b04 	ldr.w	r8, [r5], #4
    4004:	b28a      	uxth	r2, r1
    4006:	fa13 f388 	uxtah	r3, r3, r8
    400a:	0c09      	lsrs	r1, r1, #16
    400c:	1a9a      	subs	r2, r3, r2
    400e:	ebc1 4318 	rsb	r3, r1, r8, lsr #16
    4012:	eb03 4322 	add.w	r3, r3, r2, asr #16
    4016:	b292      	uxth	r2, r2
    4018:	ea42 4203 	orr.w	r2, r2, r3, lsl #16
    401c:	45f4      	cmp	ip, lr
    401e:	f844 2b04 	str.w	r2, [r4], #4
    4022:	ea4f 4323 	mov.w	r3, r3, asr #16
    4026:	d8e9      	bhi.n	3ffc <__mdiff+0x6c>
    4028:	42af      	cmp	r7, r5
    402a:	d917      	bls.n	405c <__mdiff+0xcc>
    402c:	46a4      	mov	ip, r4
    402e:	46ae      	mov	lr, r5
    4030:	f85e 2b04 	ldr.w	r2, [lr], #4
    4034:	fa13 f382 	uxtah	r3, r3, r2
    4038:	1419      	asrs	r1, r3, #16
    403a:	eb01 4112 	add.w	r1, r1, r2, lsr #16
    403e:	b29b      	uxth	r3, r3
    4040:	ea43 4201 	orr.w	r2, r3, r1, lsl #16
    4044:	4577      	cmp	r7, lr
    4046:	f84c 2b04 	str.w	r2, [ip], #4
    404a:	ea4f 4321 	mov.w	r3, r1, asr #16
    404e:	d8ef      	bhi.n	4030 <__mdiff+0xa0>
    4050:	43ed      	mvns	r5, r5
    4052:	442f      	add	r7, r5
    4054:	f027 0703 	bic.w	r7, r7, #3
    4058:	3704      	adds	r7, #4
    405a:	443c      	add	r4, r7
    405c:	3c04      	subs	r4, #4
    405e:	b922      	cbnz	r2, 406a <__mdiff+0xda>
    4060:	f854 3d04 	ldr.w	r3, [r4, #-4]!
    4064:	3e01      	subs	r6, #1
    4066:	2b00      	cmp	r3, #0
    4068:	d0fa      	beq.n	4060 <__mdiff+0xd0>
    406a:	6106      	str	r6, [r0, #16]
    406c:	e8bd 81f0 	ldmia.w	sp!, {r4, r5, r6, r7, r8, pc}
    4070:	2100      	movs	r1, #0
    4072:	f7ff fd73 	bl	3b5c <_Balloc>
    4076:	2201      	movs	r2, #1
    4078:	2300      	movs	r3, #0
    407a:	6102      	str	r2, [r0, #16]
    407c:	6143      	str	r3, [r0, #20]
    407e:	e8bd 81f0 	ldmia.w	sp!, {r4, r5, r6, r7, r8, pc}
    4082:	4674      	mov	r4, lr
    4084:	e7ab      	b.n	3fde <__mdiff+0x4e>
    4086:	4633      	mov	r3, r6
    4088:	f106 0414 	add.w	r4, r6, #20
    408c:	f102 0514 	add.w	r5, r2, #20
    4090:	4616      	mov	r6, r2
    4092:	2701      	movs	r7, #1
    4094:	4698      	mov	r8, r3
    4096:	e7a2      	b.n	3fde <__mdiff+0x4e>

00004098 <__d2b>:
    4098:	e92d 41f0 	stmdb	sp!, {r4, r5, r6, r7, r8, lr}
    409c:	b082      	sub	sp, #8
    409e:	2101      	movs	r1, #1
    40a0:	461c      	mov	r4, r3
    40a2:	f3c3 570a 	ubfx	r7, r3, #20, #11
    40a6:	4615      	mov	r5, r2
    40a8:	9e08      	ldr	r6, [sp, #32]
    40aa:	f7ff fd57 	bl	3b5c <_Balloc>
    40ae:	f3c4 0413 	ubfx	r4, r4, #0, #20
    40b2:	4680      	mov	r8, r0
    40b4:	b10f      	cbz	r7, 40ba <__d2b+0x22>
    40b6:	f444 1480 	orr.w	r4, r4, #1048576	; 0x100000
    40ba:	9401      	str	r4, [sp, #4]
    40bc:	b31d      	cbz	r5, 4106 <__d2b+0x6e>
    40be:	a802      	add	r0, sp, #8
    40c0:	f840 5d08 	str.w	r5, [r0, #-8]!
    40c4:	f7ff fdda 	bl	3c7c <__lo0bits>
    40c8:	2800      	cmp	r0, #0
    40ca:	d134      	bne.n	4136 <__d2b+0x9e>
    40cc:	e89d 000c 	ldmia.w	sp, {r2, r3}
    40d0:	f8c8 2014 	str.w	r2, [r8, #20]
    40d4:	2b00      	cmp	r3, #0
    40d6:	bf0c      	ite	eq
    40d8:	2101      	moveq	r1, #1
    40da:	2102      	movne	r1, #2
    40dc:	f8c8 3018 	str.w	r3, [r8, #24]
    40e0:	f8c8 1010 	str.w	r1, [r8, #16]
    40e4:	b9df      	cbnz	r7, 411e <__d2b+0x86>
    40e6:	eb08 0381 	add.w	r3, r8, r1, lsl #2
    40ea:	f2a0 4032 	subw	r0, r0, #1074	; 0x432
    40ee:	6030      	str	r0, [r6, #0]
    40f0:	6918      	ldr	r0, [r3, #16]
    40f2:	f7ff fda3 	bl	3c3c <__hi0bits>
    40f6:	9b09      	ldr	r3, [sp, #36]	; 0x24
    40f8:	ebc0 1041 	rsb	r0, r0, r1, lsl #5
    40fc:	6018      	str	r0, [r3, #0]
    40fe:	4640      	mov	r0, r8
    4100:	b002      	add	sp, #8
    4102:	e8bd 81f0 	ldmia.w	sp!, {r4, r5, r6, r7, r8, pc}
    4106:	a801      	add	r0, sp, #4
    4108:	f7ff fdb8 	bl	3c7c <__lo0bits>
    410c:	9b01      	ldr	r3, [sp, #4]
    410e:	f8c8 3014 	str.w	r3, [r8, #20]
    4112:	2101      	movs	r1, #1
    4114:	3020      	adds	r0, #32
    4116:	f8c8 1010 	str.w	r1, [r8, #16]
    411a:	2f00      	cmp	r7, #0
    411c:	d0e3      	beq.n	40e6 <__d2b+0x4e>
    411e:	9b09      	ldr	r3, [sp, #36]	; 0x24
    4120:	f2a7 4733 	subw	r7, r7, #1075	; 0x433
    4124:	4407      	add	r7, r0
    4126:	f1c0 0035 	rsb	r0, r0, #53	; 0x35
    412a:	6037      	str	r7, [r6, #0]
    412c:	6018      	str	r0, [r3, #0]
    412e:	4640      	mov	r0, r8
    4130:	b002      	add	sp, #8
    4132:	e8bd 81f0 	ldmia.w	sp!, {r4, r5, r6, r7, r8, pc}
    4136:	e89d 000a 	ldmia.w	sp, {r1, r3}
    413a:	f1c0 0220 	rsb	r2, r0, #32
    413e:	fa03 f202 	lsl.w	r2, r3, r2
    4142:	430a      	orrs	r2, r1
    4144:	40c3      	lsrs	r3, r0
    4146:	9301      	str	r3, [sp, #4]
    4148:	f8c8 2014 	str.w	r2, [r8, #20]
    414c:	e7c2      	b.n	40d4 <__d2b+0x3c>
    414e:	bf00      	nop

00004150 <_sbrk_r>:
    4150:	b538      	push	{r3, r4, r5, lr}
    4152:	4c07      	ldr	r4, [pc, #28]	; (4170 <_sbrk_r+0x20>)
    4154:	2300      	movs	r3, #0
    4156:	4605      	mov	r5, r0
    4158:	4608      	mov	r0, r1
    415a:	6023      	str	r3, [r4, #0]
    415c:	f7fc fa4e 	bl	5fc <_sbrk>
    4160:	1c43      	adds	r3, r0, #1
    4162:	d000      	beq.n	4166 <_sbrk_r+0x16>
    4164:	bd38      	pop	{r3, r4, r5, pc}
    4166:	6823      	ldr	r3, [r4, #0]
    4168:	2b00      	cmp	r3, #0
    416a:	d0fb      	beq.n	4164 <_sbrk_r+0x14>
    416c:	602b      	str	r3, [r5, #0]
    416e:	bd38      	pop	{r3, r4, r5, pc}
    4170:	20000a28 	.word	0x20000a28

00004174 <__sread>:
    4174:	b510      	push	{r4, lr}
    4176:	460c      	mov	r4, r1
    4178:	f9b1 100e 	ldrsh.w	r1, [r1, #14]
    417c:	f000 fcd4 	bl	4b28 <_read_r>
    4180:	2800      	cmp	r0, #0
    4182:	db03      	blt.n	418c <__sread+0x18>
    4184:	6d23      	ldr	r3, [r4, #80]	; 0x50
    4186:	4403      	add	r3, r0
    4188:	6523      	str	r3, [r4, #80]	; 0x50
    418a:	bd10      	pop	{r4, pc}
    418c:	89a3      	ldrh	r3, [r4, #12]
    418e:	f423 5380 	bic.w	r3, r3, #4096	; 0x1000
    4192:	81a3      	strh	r3, [r4, #12]
    4194:	bd10      	pop	{r4, pc}
    4196:	bf00      	nop

00004198 <__swrite>:
    4198:	e92d 41f0 	stmdb	sp!, {r4, r5, r6, r7, r8, lr}
    419c:	4616      	mov	r6, r2
    419e:	f9b1 200c 	ldrsh.w	r2, [r1, #12]
    41a2:	461f      	mov	r7, r3
    41a4:	05d3      	lsls	r3, r2, #23
    41a6:	460c      	mov	r4, r1
    41a8:	4605      	mov	r5, r0
    41aa:	d507      	bpl.n	41bc <__swrite+0x24>
    41ac:	2200      	movs	r2, #0
    41ae:	2302      	movs	r3, #2
    41b0:	f9b1 100e 	ldrsh.w	r1, [r1, #14]
    41b4:	f000 fc28 	bl	4a08 <_lseek_r>
    41b8:	f9b4 200c 	ldrsh.w	r2, [r4, #12]
    41bc:	f9b4 100e 	ldrsh.w	r1, [r4, #14]
    41c0:	f422 5280 	bic.w	r2, r2, #4096	; 0x1000
    41c4:	81a2      	strh	r2, [r4, #12]
    41c6:	463b      	mov	r3, r7
    41c8:	4632      	mov	r2, r6
    41ca:	4628      	mov	r0, r5
    41cc:	e8bd 41f0 	ldmia.w	sp!, {r4, r5, r6, r7, r8, lr}
    41d0:	f000 b8ce 	b.w	4370 <_write_r>

000041d4 <__sseek>:
    41d4:	b510      	push	{r4, lr}
    41d6:	460c      	mov	r4, r1
    41d8:	f9b1 100e 	ldrsh.w	r1, [r1, #14]
    41dc:	f000 fc14 	bl	4a08 <_lseek_r>
    41e0:	89a3      	ldrh	r3, [r4, #12]
    41e2:	1c42      	adds	r2, r0, #1
    41e4:	bf0e      	itee	eq
    41e6:	f423 5380 	biceq.w	r3, r3, #4096	; 0x1000
    41ea:	f443 5380 	orrne.w	r3, r3, #4096	; 0x1000
    41ee:	6520      	strne	r0, [r4, #80]	; 0x50
    41f0:	81a3      	strh	r3, [r4, #12]
    41f2:	bd10      	pop	{r4, pc}

000041f4 <__sclose>:
    41f4:	f9b1 100e 	ldrsh.w	r1, [r1, #14]
    41f8:	f000 b962 	b.w	44c0 <_close_r>
    41fc:	0000      	movs	r0, r0
	...

00004200 <strlen>:
    4200:	f890 f000 	pld	[r0]
    4204:	e96d 4502 	strd	r4, r5, [sp, #-8]!
    4208:	f020 0107 	bic.w	r1, r0, #7
    420c:	f06f 0c00 	mvn.w	ip, #0
    4210:	f010 0407 	ands.w	r4, r0, #7
    4214:	f891 f020 	pld	[r1, #32]
    4218:	f040 8049 	bne.w	42ae <strlen+0xae>
    421c:	f04f 0400 	mov.w	r4, #0
    4220:	f06f 0007 	mvn.w	r0, #7
    4224:	e9d1 2300 	ldrd	r2, r3, [r1]
    4228:	f891 f040 	pld	[r1, #64]	; 0x40
    422c:	f100 0008 	add.w	r0, r0, #8
    4230:	fa82 f24c 	uadd8	r2, r2, ip
    4234:	faa4 f28c 	sel	r2, r4, ip
    4238:	fa83 f34c 	uadd8	r3, r3, ip
    423c:	faa2 f38c 	sel	r3, r2, ip
    4240:	bb4b      	cbnz	r3, 4296 <strlen+0x96>
    4242:	e9d1 2302 	ldrd	r2, r3, [r1, #8]
    4246:	fa82 f24c 	uadd8	r2, r2, ip
    424a:	f100 0008 	add.w	r0, r0, #8
    424e:	faa4 f28c 	sel	r2, r4, ip
    4252:	fa83 f34c 	uadd8	r3, r3, ip
    4256:	faa2 f38c 	sel	r3, r2, ip
    425a:	b9e3      	cbnz	r3, 4296 <strlen+0x96>
    425c:	e9d1 2304 	ldrd	r2, r3, [r1, #16]
    4260:	fa82 f24c 	uadd8	r2, r2, ip
    4264:	f100 0008 	add.w	r0, r0, #8
    4268:	faa4 f28c 	sel	r2, r4, ip
    426c:	fa83 f34c 	uadd8	r3, r3, ip
    4270:	faa2 f38c 	sel	r3, r2, ip
    4274:	b97b      	cbnz	r3, 4296 <strlen+0x96>
    4276:	e9d1 2306 	ldrd	r2, r3, [r1, #24]
    427a:	f101 0120 	add.w	r1, r1, #32
    427e:	fa82 f24c 	uadd8	r2, r2, ip
    4282:	f100 0008 	add.w	r0, r0, #8
    4286:	faa4 f28c 	sel	r2, r4, ip
    428a:	fa83 f34c 	uadd8	r3, r3, ip
    428e:	faa2 f38c 	sel	r3, r2, ip
    4292:	2b00      	cmp	r3, #0
    4294:	d0c6      	beq.n	4224 <strlen+0x24>
    4296:	2a00      	cmp	r2, #0
    4298:	bf04      	itt	eq
    429a:	3004      	addeq	r0, #4
    429c:	461a      	moveq	r2, r3
    429e:	ba12      	rev	r2, r2
    42a0:	fab2 f282 	clz	r2, r2
    42a4:	e8fd 4502 	ldrd	r4, r5, [sp], #8
    42a8:	eb00 00d2 	add.w	r0, r0, r2, lsr #3
    42ac:	4770      	bx	lr
    42ae:	e9d1 2300 	ldrd	r2, r3, [r1]
    42b2:	f004 0503 	and.w	r5, r4, #3
    42b6:	f1c4 0000 	rsb	r0, r4, #0
    42ba:	ea4f 05c5 	mov.w	r5, r5, lsl #3
    42be:	f014 0f04 	tst.w	r4, #4
    42c2:	f891 f040 	pld	[r1, #64]	; 0x40
    42c6:	fa0c f505 	lsl.w	r5, ip, r5
    42ca:	ea62 0205 	orn	r2, r2, r5
    42ce:	bf1c      	itt	ne
    42d0:	ea63 0305 	ornne	r3, r3, r5
    42d4:	4662      	movne	r2, ip
    42d6:	f04f 0400 	mov.w	r4, #0
    42da:	e7a9      	b.n	4230 <strlen+0x30>

000042dc <__sprint_r.part.0>:
    42dc:	e92d 4ff8 	stmdb	sp!, {r3, r4, r5, r6, r7, r8, r9, sl, fp, lr}
    42e0:	6e4b      	ldr	r3, [r1, #100]	; 0x64
    42e2:	049c      	lsls	r4, r3, #18
    42e4:	4693      	mov	fp, r2
    42e6:	d52f      	bpl.n	4348 <__sprint_r.part.0+0x6c>
    42e8:	6893      	ldr	r3, [r2, #8]
    42ea:	6812      	ldr	r2, [r2, #0]
    42ec:	b353      	cbz	r3, 4344 <__sprint_r.part.0+0x68>
    42ee:	460e      	mov	r6, r1
    42f0:	4607      	mov	r7, r0
    42f2:	f102 0908 	add.w	r9, r2, #8
    42f6:	e919 0420 	ldmdb	r9, {r5, sl}
    42fa:	ea5f 089a 	movs.w	r8, sl, lsr #2
    42fe:	d017      	beq.n	4330 <__sprint_r.part.0+0x54>
    4300:	3d04      	subs	r5, #4
    4302:	2400      	movs	r4, #0
    4304:	e001      	b.n	430a <__sprint_r.part.0+0x2e>
    4306:	45a0      	cmp	r8, r4
    4308:	d010      	beq.n	432c <__sprint_r.part.0+0x50>
    430a:	4632      	mov	r2, r6
    430c:	f855 1f04 	ldr.w	r1, [r5, #4]!
    4310:	4638      	mov	r0, r7
    4312:	f000 f999 	bl	4648 <_fputwc_r>
    4316:	1c43      	adds	r3, r0, #1
    4318:	f104 0401 	add.w	r4, r4, #1
    431c:	d1f3      	bne.n	4306 <__sprint_r.part.0+0x2a>
    431e:	2300      	movs	r3, #0
    4320:	f8cb 3008 	str.w	r3, [fp, #8]
    4324:	f8cb 3004 	str.w	r3, [fp, #4]
    4328:	e8bd 8ff8 	ldmia.w	sp!, {r3, r4, r5, r6, r7, r8, r9, sl, fp, pc}
    432c:	f8db 3008 	ldr.w	r3, [fp, #8]
    4330:	f02a 0a03 	bic.w	sl, sl, #3
    4334:	eba3 030a 	sub.w	r3, r3, sl
    4338:	f8cb 3008 	str.w	r3, [fp, #8]
    433c:	f109 0908 	add.w	r9, r9, #8
    4340:	2b00      	cmp	r3, #0
    4342:	d1d8      	bne.n	42f6 <__sprint_r.part.0+0x1a>
    4344:	2000      	movs	r0, #0
    4346:	e7ea      	b.n	431e <__sprint_r.part.0+0x42>
    4348:	f000 f9c6 	bl	46d8 <__sfvwrite_r>
    434c:	2300      	movs	r3, #0
    434e:	f8cb 3008 	str.w	r3, [fp, #8]
    4352:	f8cb 3004 	str.w	r3, [fp, #4]
    4356:	e8bd 8ff8 	ldmia.w	sp!, {r3, r4, r5, r6, r7, r8, r9, sl, fp, pc}
    435a:	bf00      	nop

0000435c <__sprint_r>:
    435c:	6893      	ldr	r3, [r2, #8]
    435e:	b10b      	cbz	r3, 4364 <__sprint_r+0x8>
    4360:	f7ff bfbc 	b.w	42dc <__sprint_r.part.0>
    4364:	b410      	push	{r4}
    4366:	4618      	mov	r0, r3
    4368:	6053      	str	r3, [r2, #4]
    436a:	bc10      	pop	{r4}
    436c:	4770      	bx	lr
    436e:	bf00      	nop

00004370 <_write_r>:
    4370:	b570      	push	{r4, r5, r6, lr}
    4372:	460d      	mov	r5, r1
    4374:	4c08      	ldr	r4, [pc, #32]	; (4398 <_write_r+0x28>)
    4376:	4611      	mov	r1, r2
    4378:	4606      	mov	r6, r0
    437a:	461a      	mov	r2, r3
    437c:	4628      	mov	r0, r5
    437e:	2300      	movs	r3, #0
    4380:	6023      	str	r3, [r4, #0]
    4382:	f7fc f927 	bl	5d4 <_write>
    4386:	1c43      	adds	r3, r0, #1
    4388:	d000      	beq.n	438c <_write_r+0x1c>
    438a:	bd70      	pop	{r4, r5, r6, pc}
    438c:	6823      	ldr	r3, [r4, #0]
    438e:	2b00      	cmp	r3, #0
    4390:	d0fb      	beq.n	438a <_write_r+0x1a>
    4392:	6033      	str	r3, [r6, #0]
    4394:	bd70      	pop	{r4, r5, r6, pc}
    4396:	bf00      	nop
    4398:	20000a28 	.word	0x20000a28

0000439c <__register_exitproc>:
    439c:	e92d 43f8 	stmdb	sp!, {r3, r4, r5, r6, r7, r8, r9, lr}
    43a0:	4d2c      	ldr	r5, [pc, #176]	; (4454 <__register_exitproc+0xb8>)
    43a2:	4606      	mov	r6, r0
    43a4:	6828      	ldr	r0, [r5, #0]
    43a6:	4698      	mov	r8, r3
    43a8:	460f      	mov	r7, r1
    43aa:	4691      	mov	r9, r2
    43ac:	f7fe ffaa 	bl	3304 <__retarget_lock_acquire_recursive>
    43b0:	4b29      	ldr	r3, [pc, #164]	; (4458 <__register_exitproc+0xbc>)
    43b2:	681c      	ldr	r4, [r3, #0]
    43b4:	f8d4 3148 	ldr.w	r3, [r4, #328]	; 0x148
    43b8:	2b00      	cmp	r3, #0
    43ba:	d03e      	beq.n	443a <__register_exitproc+0x9e>
    43bc:	685a      	ldr	r2, [r3, #4]
    43be:	2a1f      	cmp	r2, #31
    43c0:	dc1c      	bgt.n	43fc <__register_exitproc+0x60>
    43c2:	f102 0e01 	add.w	lr, r2, #1
    43c6:	b176      	cbz	r6, 43e6 <__register_exitproc+0x4a>
    43c8:	eb03 0182 	add.w	r1, r3, r2, lsl #2
    43cc:	2401      	movs	r4, #1
    43ce:	f8c1 9088 	str.w	r9, [r1, #136]	; 0x88
    43d2:	f8d3 0188 	ldr.w	r0, [r3, #392]	; 0x188
    43d6:	4094      	lsls	r4, r2
    43d8:	4320      	orrs	r0, r4
    43da:	2e02      	cmp	r6, #2
    43dc:	f8c3 0188 	str.w	r0, [r3, #392]	; 0x188
    43e0:	f8c1 8108 	str.w	r8, [r1, #264]	; 0x108
    43e4:	d023      	beq.n	442e <__register_exitproc+0x92>
    43e6:	3202      	adds	r2, #2
    43e8:	f8c3 e004 	str.w	lr, [r3, #4]
    43ec:	6828      	ldr	r0, [r5, #0]
    43ee:	f843 7022 	str.w	r7, [r3, r2, lsl #2]
    43f2:	f7fe ff89 	bl	3308 <__retarget_lock_release_recursive>
    43f6:	2000      	movs	r0, #0
    43f8:	e8bd 83f8 	ldmia.w	sp!, {r3, r4, r5, r6, r7, r8, r9, pc}
    43fc:	4b17      	ldr	r3, [pc, #92]	; (445c <__register_exitproc+0xc0>)
    43fe:	b30b      	cbz	r3, 4444 <__register_exitproc+0xa8>
    4400:	f44f 70c8 	mov.w	r0, #400	; 0x190
    4404:	f7fe fffa 	bl	33fc <malloc>
    4408:	4603      	mov	r3, r0
    440a:	b1d8      	cbz	r0, 4444 <__register_exitproc+0xa8>
    440c:	f8d4 2148 	ldr.w	r2, [r4, #328]	; 0x148
    4410:	6002      	str	r2, [r0, #0]
    4412:	2100      	movs	r1, #0
    4414:	6041      	str	r1, [r0, #4]
    4416:	460a      	mov	r2, r1
    4418:	f8c4 0148 	str.w	r0, [r4, #328]	; 0x148
    441c:	f04f 0e01 	mov.w	lr, #1
    4420:	f8c0 1188 	str.w	r1, [r0, #392]	; 0x188
    4424:	f8c0 118c 	str.w	r1, [r0, #396]	; 0x18c
    4428:	2e00      	cmp	r6, #0
    442a:	d0dc      	beq.n	43e6 <__register_exitproc+0x4a>
    442c:	e7cc      	b.n	43c8 <__register_exitproc+0x2c>
    442e:	f8d3 118c 	ldr.w	r1, [r3, #396]	; 0x18c
    4432:	430c      	orrs	r4, r1
    4434:	f8c3 418c 	str.w	r4, [r3, #396]	; 0x18c
    4438:	e7d5      	b.n	43e6 <__register_exitproc+0x4a>
    443a:	f504 73a6 	add.w	r3, r4, #332	; 0x14c
    443e:	f8c4 3148 	str.w	r3, [r4, #328]	; 0x148
    4442:	e7bb      	b.n	43bc <__register_exitproc+0x20>
    4444:	6828      	ldr	r0, [r5, #0]
    4446:	f7fe ff5f 	bl	3308 <__retarget_lock_release_recursive>
    444a:	f04f 30ff 	mov.w	r0, #4294967295
    444e:	e8bd 83f8 	ldmia.w	sp!, {r3, r4, r5, r6, r7, r8, r9, pc}
    4452:	bf00      	nop
    4454:	20000430 	.word	0x20000430
    4458:	00005c08 	.word	0x00005c08
    445c:	000033fd 	.word	0x000033fd

00004460 <_calloc_r>:
    4460:	b510      	push	{r4, lr}
    4462:	fb02 f101 	mul.w	r1, r2, r1
    4466:	f7fe ffd1 	bl	340c <_malloc_r>
    446a:	4604      	mov	r4, r0
    446c:	b1d8      	cbz	r0, 44a6 <_calloc_r+0x46>
    446e:	f850 2c04 	ldr.w	r2, [r0, #-4]
    4472:	f022 0203 	bic.w	r2, r2, #3
    4476:	3a04      	subs	r2, #4
    4478:	2a24      	cmp	r2, #36	; 0x24
    447a:	d818      	bhi.n	44ae <_calloc_r+0x4e>
    447c:	2a13      	cmp	r2, #19
    447e:	d914      	bls.n	44aa <_calloc_r+0x4a>
    4480:	2300      	movs	r3, #0
    4482:	2a1b      	cmp	r2, #27
    4484:	6003      	str	r3, [r0, #0]
    4486:	6043      	str	r3, [r0, #4]
    4488:	d916      	bls.n	44b8 <_calloc_r+0x58>
    448a:	2a24      	cmp	r2, #36	; 0x24
    448c:	6083      	str	r3, [r0, #8]
    448e:	60c3      	str	r3, [r0, #12]
    4490:	bf11      	iteee	ne
    4492:	f100 0210 	addne.w	r2, r0, #16
    4496:	6103      	streq	r3, [r0, #16]
    4498:	6143      	streq	r3, [r0, #20]
    449a:	f100 0218 	addeq.w	r2, r0, #24
    449e:	2300      	movs	r3, #0
    44a0:	6013      	str	r3, [r2, #0]
    44a2:	6053      	str	r3, [r2, #4]
    44a4:	6093      	str	r3, [r2, #8]
    44a6:	4620      	mov	r0, r4
    44a8:	bd10      	pop	{r4, pc}
    44aa:	4602      	mov	r2, r0
    44ac:	e7f7      	b.n	449e <_calloc_r+0x3e>
    44ae:	2100      	movs	r1, #0
    44b0:	f7fc f8ea 	bl	688 <memset>
    44b4:	4620      	mov	r0, r4
    44b6:	bd10      	pop	{r4, pc}
    44b8:	f100 0208 	add.w	r2, r0, #8
    44bc:	e7ef      	b.n	449e <_calloc_r+0x3e>
    44be:	bf00      	nop

000044c0 <_close_r>:
    44c0:	b538      	push	{r3, r4, r5, lr}
    44c2:	4c07      	ldr	r4, [pc, #28]	; (44e0 <_close_r+0x20>)
    44c4:	2300      	movs	r3, #0
    44c6:	4605      	mov	r5, r0
    44c8:	4608      	mov	r0, r1
    44ca:	6023      	str	r3, [r4, #0]
    44cc:	f7fc f8a8 	bl	620 <_close>
    44d0:	1c43      	adds	r3, r0, #1
    44d2:	d000      	beq.n	44d6 <_close_r+0x16>
    44d4:	bd38      	pop	{r3, r4, r5, pc}
    44d6:	6823      	ldr	r3, [r4, #0]
    44d8:	2b00      	cmp	r3, #0
    44da:	d0fb      	beq.n	44d4 <_close_r+0x14>
    44dc:	602b      	str	r3, [r5, #0]
    44de:	bd38      	pop	{r3, r4, r5, pc}
    44e0:	20000a28 	.word	0x20000a28

000044e4 <_fclose_r>:
    44e4:	b570      	push	{r4, r5, r6, lr}
    44e6:	b159      	cbz	r1, 4500 <_fclose_r+0x1c>
    44e8:	4605      	mov	r5, r0
    44ea:	460c      	mov	r4, r1
    44ec:	b110      	cbz	r0, 44f4 <_fclose_r+0x10>
    44ee:	6b83      	ldr	r3, [r0, #56]	; 0x38
    44f0:	2b00      	cmp	r3, #0
    44f2:	d03c      	beq.n	456e <_fclose_r+0x8a>
    44f4:	6e63      	ldr	r3, [r4, #100]	; 0x64
    44f6:	07d8      	lsls	r0, r3, #31
    44f8:	d505      	bpl.n	4506 <_fclose_r+0x22>
    44fa:	f9b4 300c 	ldrsh.w	r3, [r4, #12]
    44fe:	b92b      	cbnz	r3, 450c <_fclose_r+0x28>
    4500:	2600      	movs	r6, #0
    4502:	4630      	mov	r0, r6
    4504:	bd70      	pop	{r4, r5, r6, pc}
    4506:	89a3      	ldrh	r3, [r4, #12]
    4508:	0599      	lsls	r1, r3, #22
    450a:	d53c      	bpl.n	4586 <_fclose_r+0xa2>
    450c:	4621      	mov	r1, r4
    450e:	4628      	mov	r0, r5
    4510:	f7fe fc3c 	bl	2d8c <__sflush_r>
    4514:	6ae3      	ldr	r3, [r4, #44]	; 0x2c
    4516:	4606      	mov	r6, r0
    4518:	b133      	cbz	r3, 4528 <_fclose_r+0x44>
    451a:	69e1      	ldr	r1, [r4, #28]
    451c:	4628      	mov	r0, r5
    451e:	4798      	blx	r3
    4520:	2800      	cmp	r0, #0
    4522:	bfb8      	it	lt
    4524:	f04f 36ff 	movlt.w	r6, #4294967295
    4528:	89a3      	ldrh	r3, [r4, #12]
    452a:	061a      	lsls	r2, r3, #24
    452c:	d422      	bmi.n	4574 <_fclose_r+0x90>
    452e:	6b21      	ldr	r1, [r4, #48]	; 0x30
    4530:	b141      	cbz	r1, 4544 <_fclose_r+0x60>
    4532:	f104 0340 	add.w	r3, r4, #64	; 0x40
    4536:	4299      	cmp	r1, r3
    4538:	d002      	beq.n	4540 <_fclose_r+0x5c>
    453a:	4628      	mov	r0, r5
    453c:	f7fe fdc0 	bl	30c0 <_free_r>
    4540:	2300      	movs	r3, #0
    4542:	6323      	str	r3, [r4, #48]	; 0x30
    4544:	6c61      	ldr	r1, [r4, #68]	; 0x44
    4546:	b121      	cbz	r1, 4552 <_fclose_r+0x6e>
    4548:	4628      	mov	r0, r5
    454a:	f7fe fdb9 	bl	30c0 <_free_r>
    454e:	2300      	movs	r3, #0
    4550:	6463      	str	r3, [r4, #68]	; 0x44
    4552:	f7fe fd3f 	bl	2fd4 <__sfp_lock_acquire>
    4556:	6e63      	ldr	r3, [r4, #100]	; 0x64
    4558:	2200      	movs	r2, #0
    455a:	07db      	lsls	r3, r3, #31
    455c:	81a2      	strh	r2, [r4, #12]
    455e:	d50e      	bpl.n	457e <_fclose_r+0x9a>
    4560:	6da0      	ldr	r0, [r4, #88]	; 0x58
    4562:	f7fe fecd 	bl	3300 <__retarget_lock_close_recursive>
    4566:	f7fe fd3b 	bl	2fe0 <__sfp_lock_release>
    456a:	4630      	mov	r0, r6
    456c:	bd70      	pop	{r4, r5, r6, pc}
    456e:	f7fe fd05 	bl	2f7c <__sinit>
    4572:	e7bf      	b.n	44f4 <_fclose_r+0x10>
    4574:	6921      	ldr	r1, [r4, #16]
    4576:	4628      	mov	r0, r5
    4578:	f7fe fda2 	bl	30c0 <_free_r>
    457c:	e7d7      	b.n	452e <_fclose_r+0x4a>
    457e:	6da0      	ldr	r0, [r4, #88]	; 0x58
    4580:	f7fe fec2 	bl	3308 <__retarget_lock_release_recursive>
    4584:	e7ec      	b.n	4560 <_fclose_r+0x7c>
    4586:	6da0      	ldr	r0, [r4, #88]	; 0x58
    4588:	f7fe febc 	bl	3304 <__retarget_lock_acquire_recursive>
    458c:	f9b4 300c 	ldrsh.w	r3, [r4, #12]
    4590:	2b00      	cmp	r3, #0
    4592:	d1bb      	bne.n	450c <_fclose_r+0x28>
    4594:	6e66      	ldr	r6, [r4, #100]	; 0x64
    4596:	f016 0601 	ands.w	r6, r6, #1
    459a:	d1b1      	bne.n	4500 <_fclose_r+0x1c>
    459c:	6da0      	ldr	r0, [r4, #88]	; 0x58
    459e:	f7fe feb3 	bl	3308 <__retarget_lock_release_recursive>
    45a2:	4630      	mov	r0, r6
    45a4:	bd70      	pop	{r4, r5, r6, pc}
    45a6:	bf00      	nop

000045a8 <__fputwc>:
    45a8:	e92d 47f0 	stmdb	sp!, {r4, r5, r6, r7, r8, r9, sl, lr}
    45ac:	b082      	sub	sp, #8
    45ae:	4680      	mov	r8, r0
    45b0:	4689      	mov	r9, r1
    45b2:	4614      	mov	r4, r2
    45b4:	f000 fa1a 	bl	49ec <__locale_mb_cur_max>
    45b8:	2801      	cmp	r0, #1
    45ba:	d036      	beq.n	462a <__fputwc+0x82>
    45bc:	464a      	mov	r2, r9
    45be:	f104 035c 	add.w	r3, r4, #92	; 0x5c
    45c2:	a901      	add	r1, sp, #4
    45c4:	4640      	mov	r0, r8
    45c6:	f000 fcc3 	bl	4f50 <_wcrtomb_r>
    45ca:	1c42      	adds	r2, r0, #1
    45cc:	4606      	mov	r6, r0
    45ce:	d025      	beq.n	461c <__fputwc+0x74>
    45d0:	b3a8      	cbz	r0, 463e <__fputwc+0x96>
    45d2:	f89d e004 	ldrb.w	lr, [sp, #4]
    45d6:	2500      	movs	r5, #0
    45d8:	f10d 0a04 	add.w	sl, sp, #4
    45dc:	e009      	b.n	45f2 <__fputwc+0x4a>
    45de:	6823      	ldr	r3, [r4, #0]
    45e0:	1c5a      	adds	r2, r3, #1
    45e2:	6022      	str	r2, [r4, #0]
    45e4:	f883 e000 	strb.w	lr, [r3]
    45e8:	3501      	adds	r5, #1
    45ea:	42b5      	cmp	r5, r6
    45ec:	d227      	bcs.n	463e <__fputwc+0x96>
    45ee:	f815 e00a 	ldrb.w	lr, [r5, sl]
    45f2:	68a3      	ldr	r3, [r4, #8]
    45f4:	3b01      	subs	r3, #1
    45f6:	2b00      	cmp	r3, #0
    45f8:	60a3      	str	r3, [r4, #8]
    45fa:	daf0      	bge.n	45de <__fputwc+0x36>
    45fc:	69a7      	ldr	r7, [r4, #24]
    45fe:	42bb      	cmp	r3, r7
    4600:	4671      	mov	r1, lr
    4602:	4622      	mov	r2, r4
    4604:	4640      	mov	r0, r8
    4606:	db02      	blt.n	460e <__fputwc+0x66>
    4608:	f1be 0f0a 	cmp.w	lr, #10
    460c:	d1e7      	bne.n	45de <__fputwc+0x36>
    460e:	f000 fc47 	bl	4ea0 <__swbuf_r>
    4612:	1c43      	adds	r3, r0, #1
    4614:	d1e8      	bne.n	45e8 <__fputwc+0x40>
    4616:	b002      	add	sp, #8
    4618:	e8bd 87f0 	ldmia.w	sp!, {r4, r5, r6, r7, r8, r9, sl, pc}
    461c:	89a3      	ldrh	r3, [r4, #12]
    461e:	f043 0340 	orr.w	r3, r3, #64	; 0x40
    4622:	81a3      	strh	r3, [r4, #12]
    4624:	b002      	add	sp, #8
    4626:	e8bd 87f0 	ldmia.w	sp!, {r4, r5, r6, r7, r8, r9, sl, pc}
    462a:	f109 33ff 	add.w	r3, r9, #4294967295
    462e:	2bfe      	cmp	r3, #254	; 0xfe
    4630:	d8c4      	bhi.n	45bc <__fputwc+0x14>
    4632:	fa5f fe89 	uxtb.w	lr, r9
    4636:	4606      	mov	r6, r0
    4638:	f88d e004 	strb.w	lr, [sp, #4]
    463c:	e7cb      	b.n	45d6 <__fputwc+0x2e>
    463e:	4648      	mov	r0, r9
    4640:	b002      	add	sp, #8
    4642:	e8bd 87f0 	ldmia.w	sp!, {r4, r5, r6, r7, r8, r9, sl, pc}
    4646:	bf00      	nop

00004648 <_fputwc_r>:
    4648:	b530      	push	{r4, r5, lr}
    464a:	6e53      	ldr	r3, [r2, #100]	; 0x64
    464c:	f013 0f01 	tst.w	r3, #1
    4650:	f9b2 300c 	ldrsh.w	r3, [r2, #12]
    4654:	4614      	mov	r4, r2
    4656:	b083      	sub	sp, #12
    4658:	4605      	mov	r5, r0
    465a:	b29a      	uxth	r2, r3
    465c:	d101      	bne.n	4662 <_fputwc_r+0x1a>
    465e:	0590      	lsls	r0, r2, #22
    4660:	d51c      	bpl.n	469c <_fputwc_r+0x54>
    4662:	0490      	lsls	r0, r2, #18
    4664:	d406      	bmi.n	4674 <_fputwc_r+0x2c>
    4666:	6e62      	ldr	r2, [r4, #100]	; 0x64
    4668:	f443 5300 	orr.w	r3, r3, #8192	; 0x2000
    466c:	f442 5200 	orr.w	r2, r2, #8192	; 0x2000
    4670:	81a3      	strh	r3, [r4, #12]
    4672:	6662      	str	r2, [r4, #100]	; 0x64
    4674:	4628      	mov	r0, r5
    4676:	4622      	mov	r2, r4
    4678:	f7ff ff96 	bl	45a8 <__fputwc>
    467c:	6e63      	ldr	r3, [r4, #100]	; 0x64
    467e:	07da      	lsls	r2, r3, #31
    4680:	4605      	mov	r5, r0
    4682:	d402      	bmi.n	468a <_fputwc_r+0x42>
    4684:	89a3      	ldrh	r3, [r4, #12]
    4686:	059b      	lsls	r3, r3, #22
    4688:	d502      	bpl.n	4690 <_fputwc_r+0x48>
    468a:	4628      	mov	r0, r5
    468c:	b003      	add	sp, #12
    468e:	bd30      	pop	{r4, r5, pc}
    4690:	6da0      	ldr	r0, [r4, #88]	; 0x58
    4692:	f7fe fe39 	bl	3308 <__retarget_lock_release_recursive>
    4696:	4628      	mov	r0, r5
    4698:	b003      	add	sp, #12
    469a:	bd30      	pop	{r4, r5, pc}
    469c:	6da0      	ldr	r0, [r4, #88]	; 0x58
    469e:	9101      	str	r1, [sp, #4]
    46a0:	f7fe fe30 	bl	3304 <__retarget_lock_acquire_recursive>
    46a4:	f9b4 300c 	ldrsh.w	r3, [r4, #12]
    46a8:	9901      	ldr	r1, [sp, #4]
    46aa:	b29a      	uxth	r2, r3
    46ac:	e7d9      	b.n	4662 <_fputwc_r+0x1a>
    46ae:	bf00      	nop

000046b0 <_fstat_r>:
    46b0:	b538      	push	{r3, r4, r5, lr}
    46b2:	460b      	mov	r3, r1
    46b4:	4c07      	ldr	r4, [pc, #28]	; (46d4 <_fstat_r+0x24>)
    46b6:	4605      	mov	r5, r0
    46b8:	4611      	mov	r1, r2
    46ba:	4618      	mov	r0, r3
    46bc:	2300      	movs	r3, #0
    46be:	6023      	str	r3, [r4, #0]
    46c0:	f7fb ffb1 	bl	626 <_fstat>
    46c4:	1c43      	adds	r3, r0, #1
    46c6:	d000      	beq.n	46ca <_fstat_r+0x1a>
    46c8:	bd38      	pop	{r3, r4, r5, pc}
    46ca:	6823      	ldr	r3, [r4, #0]
    46cc:	2b00      	cmp	r3, #0
    46ce:	d0fb      	beq.n	46c8 <_fstat_r+0x18>
    46d0:	602b      	str	r3, [r5, #0]
    46d2:	bd38      	pop	{r3, r4, r5, pc}
    46d4:	20000a28 	.word	0x20000a28

000046d8 <__sfvwrite_r>:
    46d8:	6893      	ldr	r3, [r2, #8]
    46da:	2b00      	cmp	r3, #0
    46dc:	d073      	beq.n	47c6 <__sfvwrite_r+0xee>
    46de:	e92d 4ff0 	stmdb	sp!, {r4, r5, r6, r7, r8, r9, sl, fp, lr}
    46e2:	898b      	ldrh	r3, [r1, #12]
    46e4:	b083      	sub	sp, #12
    46e6:	460c      	mov	r4, r1
    46e8:	0719      	lsls	r1, r3, #28
    46ea:	9000      	str	r0, [sp, #0]
    46ec:	4616      	mov	r6, r2
    46ee:	d526      	bpl.n	473e <__sfvwrite_r+0x66>
    46f0:	6922      	ldr	r2, [r4, #16]
    46f2:	b322      	cbz	r2, 473e <__sfvwrite_r+0x66>
    46f4:	f013 0002 	ands.w	r0, r3, #2
    46f8:	6835      	ldr	r5, [r6, #0]
    46fa:	d02c      	beq.n	4756 <__sfvwrite_r+0x7e>
    46fc:	f04f 0900 	mov.w	r9, #0
    4700:	4fb0      	ldr	r7, [pc, #704]	; (49c4 <__sfvwrite_r+0x2ec>)
    4702:	46c8      	mov	r8, r9
    4704:	46b2      	mov	sl, r6
    4706:	45b8      	cmp	r8, r7
    4708:	4643      	mov	r3, r8
    470a:	464a      	mov	r2, r9
    470c:	bf28      	it	cs
    470e:	463b      	movcs	r3, r7
    4710:	9800      	ldr	r0, [sp, #0]
    4712:	f1b8 0f00 	cmp.w	r8, #0
    4716:	d050      	beq.n	47ba <__sfvwrite_r+0xe2>
    4718:	69e1      	ldr	r1, [r4, #28]
    471a:	6a66      	ldr	r6, [r4, #36]	; 0x24
    471c:	47b0      	blx	r6
    471e:	2800      	cmp	r0, #0
    4720:	dd58      	ble.n	47d4 <__sfvwrite_r+0xfc>
    4722:	f8da 3008 	ldr.w	r3, [sl, #8]
    4726:	1a1b      	subs	r3, r3, r0
    4728:	4481      	add	r9, r0
    472a:	eba8 0800 	sub.w	r8, r8, r0
    472e:	f8ca 3008 	str.w	r3, [sl, #8]
    4732:	2b00      	cmp	r3, #0
    4734:	d1e7      	bne.n	4706 <__sfvwrite_r+0x2e>
    4736:	2000      	movs	r0, #0
    4738:	b003      	add	sp, #12
    473a:	e8bd 8ff0 	ldmia.w	sp!, {r4, r5, r6, r7, r8, r9, sl, fp, pc}
    473e:	4621      	mov	r1, r4
    4740:	9800      	ldr	r0, [sp, #0]
    4742:	f7fd faf1 	bl	1d28 <__swsetup_r>
    4746:	2800      	cmp	r0, #0
    4748:	f040 8133 	bne.w	49b2 <__sfvwrite_r+0x2da>
    474c:	89a3      	ldrh	r3, [r4, #12]
    474e:	6835      	ldr	r5, [r6, #0]
    4750:	f013 0002 	ands.w	r0, r3, #2
    4754:	d1d2      	bne.n	46fc <__sfvwrite_r+0x24>
    4756:	f013 0901 	ands.w	r9, r3, #1
    475a:	d145      	bne.n	47e8 <__sfvwrite_r+0x110>
    475c:	464f      	mov	r7, r9
    475e:	9601      	str	r6, [sp, #4]
    4760:	b337      	cbz	r7, 47b0 <__sfvwrite_r+0xd8>
    4762:	059a      	lsls	r2, r3, #22
    4764:	f8d4 8008 	ldr.w	r8, [r4, #8]
    4768:	f140 8083 	bpl.w	4872 <__sfvwrite_r+0x19a>
    476c:	4547      	cmp	r7, r8
    476e:	46c3      	mov	fp, r8
    4770:	f0c0 80ab 	bcc.w	48ca <__sfvwrite_r+0x1f2>
    4774:	f413 6f90 	tst.w	r3, #1152	; 0x480
    4778:	f040 80ac 	bne.w	48d4 <__sfvwrite_r+0x1fc>
    477c:	6820      	ldr	r0, [r4, #0]
    477e:	46ba      	mov	sl, r7
    4780:	465a      	mov	r2, fp
    4782:	4649      	mov	r1, r9
    4784:	f000 f96c 	bl	4a60 <memmove>
    4788:	68a2      	ldr	r2, [r4, #8]
    478a:	6823      	ldr	r3, [r4, #0]
    478c:	eba2 0208 	sub.w	r2, r2, r8
    4790:	445b      	add	r3, fp
    4792:	60a2      	str	r2, [r4, #8]
    4794:	6023      	str	r3, [r4, #0]
    4796:	9a01      	ldr	r2, [sp, #4]
    4798:	6893      	ldr	r3, [r2, #8]
    479a:	eba3 030a 	sub.w	r3, r3, sl
    479e:	44d1      	add	r9, sl
    47a0:	eba7 070a 	sub.w	r7, r7, sl
    47a4:	6093      	str	r3, [r2, #8]
    47a6:	2b00      	cmp	r3, #0
    47a8:	d0c5      	beq.n	4736 <__sfvwrite_r+0x5e>
    47aa:	89a3      	ldrh	r3, [r4, #12]
    47ac:	2f00      	cmp	r7, #0
    47ae:	d1d8      	bne.n	4762 <__sfvwrite_r+0x8a>
    47b0:	f8d5 9000 	ldr.w	r9, [r5]
    47b4:	686f      	ldr	r7, [r5, #4]
    47b6:	3508      	adds	r5, #8
    47b8:	e7d2      	b.n	4760 <__sfvwrite_r+0x88>
    47ba:	f8d5 9000 	ldr.w	r9, [r5]
    47be:	f8d5 8004 	ldr.w	r8, [r5, #4]
    47c2:	3508      	adds	r5, #8
    47c4:	e79f      	b.n	4706 <__sfvwrite_r+0x2e>
    47c6:	2000      	movs	r0, #0
    47c8:	4770      	bx	lr
    47ca:	4621      	mov	r1, r4
    47cc:	9800      	ldr	r0, [sp, #0]
    47ce:	f7fe fb7d 	bl	2ecc <_fflush_r>
    47d2:	b370      	cbz	r0, 4832 <__sfvwrite_r+0x15a>
    47d4:	f9b4 300c 	ldrsh.w	r3, [r4, #12]
    47d8:	f043 0340 	orr.w	r3, r3, #64	; 0x40
    47dc:	f04f 30ff 	mov.w	r0, #4294967295
    47e0:	81a3      	strh	r3, [r4, #12]
    47e2:	b003      	add	sp, #12
    47e4:	e8bd 8ff0 	ldmia.w	sp!, {r4, r5, r6, r7, r8, r9, sl, fp, pc}
    47e8:	4681      	mov	r9, r0
    47ea:	4633      	mov	r3, r6
    47ec:	464e      	mov	r6, r9
    47ee:	46a8      	mov	r8, r5
    47f0:	469a      	mov	sl, r3
    47f2:	464d      	mov	r5, r9
    47f4:	b34e      	cbz	r6, 484a <__sfvwrite_r+0x172>
    47f6:	b380      	cbz	r0, 485a <__sfvwrite_r+0x182>
    47f8:	6820      	ldr	r0, [r4, #0]
    47fa:	6923      	ldr	r3, [r4, #16]
    47fc:	6962      	ldr	r2, [r4, #20]
    47fe:	45b1      	cmp	r9, r6
    4800:	46cb      	mov	fp, r9
    4802:	bf28      	it	cs
    4804:	46b3      	movcs	fp, r6
    4806:	4298      	cmp	r0, r3
    4808:	465f      	mov	r7, fp
    480a:	d904      	bls.n	4816 <__sfvwrite_r+0x13e>
    480c:	68a3      	ldr	r3, [r4, #8]
    480e:	4413      	add	r3, r2
    4810:	459b      	cmp	fp, r3
    4812:	f300 80a6 	bgt.w	4962 <__sfvwrite_r+0x28a>
    4816:	4593      	cmp	fp, r2
    4818:	db4b      	blt.n	48b2 <__sfvwrite_r+0x1da>
    481a:	4613      	mov	r3, r2
    481c:	6a67      	ldr	r7, [r4, #36]	; 0x24
    481e:	69e1      	ldr	r1, [r4, #28]
    4820:	9800      	ldr	r0, [sp, #0]
    4822:	462a      	mov	r2, r5
    4824:	47b8      	blx	r7
    4826:	1e07      	subs	r7, r0, #0
    4828:	ddd4      	ble.n	47d4 <__sfvwrite_r+0xfc>
    482a:	ebb9 0907 	subs.w	r9, r9, r7
    482e:	d0cc      	beq.n	47ca <__sfvwrite_r+0xf2>
    4830:	2001      	movs	r0, #1
    4832:	f8da 3008 	ldr.w	r3, [sl, #8]
    4836:	1bdb      	subs	r3, r3, r7
    4838:	443d      	add	r5, r7
    483a:	1bf6      	subs	r6, r6, r7
    483c:	f8ca 3008 	str.w	r3, [sl, #8]
    4840:	2b00      	cmp	r3, #0
    4842:	f43f af78 	beq.w	4736 <__sfvwrite_r+0x5e>
    4846:	2e00      	cmp	r6, #0
    4848:	d1d5      	bne.n	47f6 <__sfvwrite_r+0x11e>
    484a:	f108 0308 	add.w	r3, r8, #8
    484e:	e913 0060 	ldmdb	r3, {r5, r6}
    4852:	4698      	mov	r8, r3
    4854:	3308      	adds	r3, #8
    4856:	2e00      	cmp	r6, #0
    4858:	d0f9      	beq.n	484e <__sfvwrite_r+0x176>
    485a:	4632      	mov	r2, r6
    485c:	210a      	movs	r1, #10
    485e:	4628      	mov	r0, r5
    4860:	f7ff f886 	bl	3970 <memchr>
    4864:	2800      	cmp	r0, #0
    4866:	f000 80a1 	beq.w	49ac <__sfvwrite_r+0x2d4>
    486a:	3001      	adds	r0, #1
    486c:	eba0 0905 	sub.w	r9, r0, r5
    4870:	e7c2      	b.n	47f8 <__sfvwrite_r+0x120>
    4872:	6820      	ldr	r0, [r4, #0]
    4874:	6923      	ldr	r3, [r4, #16]
    4876:	4298      	cmp	r0, r3
    4878:	d802      	bhi.n	4880 <__sfvwrite_r+0x1a8>
    487a:	6963      	ldr	r3, [r4, #20]
    487c:	429f      	cmp	r7, r3
    487e:	d25d      	bcs.n	493c <__sfvwrite_r+0x264>
    4880:	45b8      	cmp	r8, r7
    4882:	bf28      	it	cs
    4884:	46b8      	movcs	r8, r7
    4886:	4642      	mov	r2, r8
    4888:	4649      	mov	r1, r9
    488a:	f000 f8e9 	bl	4a60 <memmove>
    488e:	68a3      	ldr	r3, [r4, #8]
    4890:	6822      	ldr	r2, [r4, #0]
    4892:	eba3 0308 	sub.w	r3, r3, r8
    4896:	4442      	add	r2, r8
    4898:	60a3      	str	r3, [r4, #8]
    489a:	6022      	str	r2, [r4, #0]
    489c:	b10b      	cbz	r3, 48a2 <__sfvwrite_r+0x1ca>
    489e:	46c2      	mov	sl, r8
    48a0:	e779      	b.n	4796 <__sfvwrite_r+0xbe>
    48a2:	4621      	mov	r1, r4
    48a4:	9800      	ldr	r0, [sp, #0]
    48a6:	f7fe fb11 	bl	2ecc <_fflush_r>
    48aa:	2800      	cmp	r0, #0
    48ac:	d192      	bne.n	47d4 <__sfvwrite_r+0xfc>
    48ae:	46c2      	mov	sl, r8
    48b0:	e771      	b.n	4796 <__sfvwrite_r+0xbe>
    48b2:	465a      	mov	r2, fp
    48b4:	4629      	mov	r1, r5
    48b6:	f000 f8d3 	bl	4a60 <memmove>
    48ba:	68a2      	ldr	r2, [r4, #8]
    48bc:	6823      	ldr	r3, [r4, #0]
    48be:	eba2 020b 	sub.w	r2, r2, fp
    48c2:	445b      	add	r3, fp
    48c4:	60a2      	str	r2, [r4, #8]
    48c6:	6023      	str	r3, [r4, #0]
    48c8:	e7af      	b.n	482a <__sfvwrite_r+0x152>
    48ca:	6820      	ldr	r0, [r4, #0]
    48cc:	46b8      	mov	r8, r7
    48ce:	46ba      	mov	sl, r7
    48d0:	46bb      	mov	fp, r7
    48d2:	e755      	b.n	4780 <__sfvwrite_r+0xa8>
    48d4:	6962      	ldr	r2, [r4, #20]
    48d6:	6820      	ldr	r0, [r4, #0]
    48d8:	6921      	ldr	r1, [r4, #16]
    48da:	eb02 0842 	add.w	r8, r2, r2, lsl #1
    48de:	eba0 0a01 	sub.w	sl, r0, r1
    48e2:	eb08 78d8 	add.w	r8, r8, r8, lsr #31
    48e6:	f10a 0001 	add.w	r0, sl, #1
    48ea:	ea4f 0868 	mov.w	r8, r8, asr #1
    48ee:	4438      	add	r0, r7
    48f0:	4540      	cmp	r0, r8
    48f2:	4642      	mov	r2, r8
    48f4:	bf84      	itt	hi
    48f6:	4680      	movhi	r8, r0
    48f8:	4642      	movhi	r2, r8
    48fa:	055b      	lsls	r3, r3, #21
    48fc:	d544      	bpl.n	4988 <__sfvwrite_r+0x2b0>
    48fe:	4611      	mov	r1, r2
    4900:	9800      	ldr	r0, [sp, #0]
    4902:	f7fe fd83 	bl	340c <_malloc_r>
    4906:	4683      	mov	fp, r0
    4908:	2800      	cmp	r0, #0
    490a:	d055      	beq.n	49b8 <__sfvwrite_r+0x2e0>
    490c:	4652      	mov	r2, sl
    490e:	6921      	ldr	r1, [r4, #16]
    4910:	f7ff f87e 	bl	3a10 <memcpy>
    4914:	89a3      	ldrh	r3, [r4, #12]
    4916:	f423 6390 	bic.w	r3, r3, #1152	; 0x480
    491a:	f043 0380 	orr.w	r3, r3, #128	; 0x80
    491e:	81a3      	strh	r3, [r4, #12]
    4920:	eb0b 000a 	add.w	r0, fp, sl
    4924:	eba8 030a 	sub.w	r3, r8, sl
    4928:	f8c4 b010 	str.w	fp, [r4, #16]
    492c:	f8c4 8014 	str.w	r8, [r4, #20]
    4930:	6020      	str	r0, [r4, #0]
    4932:	60a3      	str	r3, [r4, #8]
    4934:	46b8      	mov	r8, r7
    4936:	46ba      	mov	sl, r7
    4938:	46bb      	mov	fp, r7
    493a:	e721      	b.n	4780 <__sfvwrite_r+0xa8>
    493c:	f06f 4100 	mvn.w	r1, #2147483648	; 0x80000000
    4940:	42b9      	cmp	r1, r7
    4942:	bf28      	it	cs
    4944:	4639      	movcs	r1, r7
    4946:	464a      	mov	r2, r9
    4948:	fb91 f1f3 	sdiv	r1, r1, r3
    494c:	9800      	ldr	r0, [sp, #0]
    494e:	6a66      	ldr	r6, [r4, #36]	; 0x24
    4950:	fb03 f301 	mul.w	r3, r3, r1
    4954:	69e1      	ldr	r1, [r4, #28]
    4956:	47b0      	blx	r6
    4958:	f1b0 0a00 	subs.w	sl, r0, #0
    495c:	f73f af1b 	bgt.w	4796 <__sfvwrite_r+0xbe>
    4960:	e738      	b.n	47d4 <__sfvwrite_r+0xfc>
    4962:	461a      	mov	r2, r3
    4964:	4629      	mov	r1, r5
    4966:	9301      	str	r3, [sp, #4]
    4968:	f000 f87a 	bl	4a60 <memmove>
    496c:	6822      	ldr	r2, [r4, #0]
    496e:	9b01      	ldr	r3, [sp, #4]
    4970:	9800      	ldr	r0, [sp, #0]
    4972:	441a      	add	r2, r3
    4974:	6022      	str	r2, [r4, #0]
    4976:	4621      	mov	r1, r4
    4978:	f7fe faa8 	bl	2ecc <_fflush_r>
    497c:	9b01      	ldr	r3, [sp, #4]
    497e:	2800      	cmp	r0, #0
    4980:	f47f af28 	bne.w	47d4 <__sfvwrite_r+0xfc>
    4984:	461f      	mov	r7, r3
    4986:	e750      	b.n	482a <__sfvwrite_r+0x152>
    4988:	9800      	ldr	r0, [sp, #0]
    498a:	f000 f8e3 	bl	4b54 <_realloc_r>
    498e:	4683      	mov	fp, r0
    4990:	2800      	cmp	r0, #0
    4992:	d1c5      	bne.n	4920 <__sfvwrite_r+0x248>
    4994:	9d00      	ldr	r5, [sp, #0]
    4996:	6921      	ldr	r1, [r4, #16]
    4998:	4628      	mov	r0, r5
    499a:	f7fe fb91 	bl	30c0 <_free_r>
    499e:	f9b4 300c 	ldrsh.w	r3, [r4, #12]
    49a2:	220c      	movs	r2, #12
    49a4:	f023 0380 	bic.w	r3, r3, #128	; 0x80
    49a8:	602a      	str	r2, [r5, #0]
    49aa:	e715      	b.n	47d8 <__sfvwrite_r+0x100>
    49ac:	f106 0901 	add.w	r9, r6, #1
    49b0:	e722      	b.n	47f8 <__sfvwrite_r+0x120>
    49b2:	f04f 30ff 	mov.w	r0, #4294967295
    49b6:	e6bf      	b.n	4738 <__sfvwrite_r+0x60>
    49b8:	9a00      	ldr	r2, [sp, #0]
    49ba:	230c      	movs	r3, #12
    49bc:	6013      	str	r3, [r2, #0]
    49be:	f9b4 300c 	ldrsh.w	r3, [r4, #12]
    49c2:	e709      	b.n	47d8 <__sfvwrite_r+0x100>
    49c4:	7ffffc00 	.word	0x7ffffc00

000049c8 <_isatty_r>:
    49c8:	b538      	push	{r3, r4, r5, lr}
    49ca:	4c07      	ldr	r4, [pc, #28]	; (49e8 <_isatty_r+0x20>)
    49cc:	2300      	movs	r3, #0
    49ce:	4605      	mov	r5, r0
    49d0:	4608      	mov	r0, r1
    49d2:	6023      	str	r3, [r4, #0]
    49d4:	f7fb fe2c 	bl	630 <_isatty>
    49d8:	1c43      	adds	r3, r0, #1
    49da:	d000      	beq.n	49de <_isatty_r+0x16>
    49dc:	bd38      	pop	{r3, r4, r5, pc}
    49de:	6823      	ldr	r3, [r4, #0]
    49e0:	2b00      	cmp	r3, #0
    49e2:	d0fb      	beq.n	49dc <_isatty_r+0x14>
    49e4:	602b      	str	r3, [r5, #0]
    49e6:	bd38      	pop	{r3, r4, r5, pc}
    49e8:	20000a28 	.word	0x20000a28

000049ec <__locale_mb_cur_max>:
    49ec:	4b04      	ldr	r3, [pc, #16]	; (4a00 <__locale_mb_cur_max+0x14>)
    49ee:	4a05      	ldr	r2, [pc, #20]	; (4a04 <__locale_mb_cur_max+0x18>)
    49f0:	681b      	ldr	r3, [r3, #0]
    49f2:	6b5b      	ldr	r3, [r3, #52]	; 0x34
    49f4:	2b00      	cmp	r3, #0
    49f6:	bf08      	it	eq
    49f8:	4613      	moveq	r3, r2
    49fa:	f893 0128 	ldrb.w	r0, [r3, #296]	; 0x128
    49fe:	4770      	bx	lr
    4a00:	20000004 	.word	0x20000004
    4a04:	20000844 	.word	0x20000844

00004a08 <_lseek_r>:
    4a08:	b570      	push	{r4, r5, r6, lr}
    4a0a:	460d      	mov	r5, r1
    4a0c:	4c08      	ldr	r4, [pc, #32]	; (4a30 <_lseek_r+0x28>)
    4a0e:	4611      	mov	r1, r2
    4a10:	4606      	mov	r6, r0
    4a12:	461a      	mov	r2, r3
    4a14:	4628      	mov	r0, r5
    4a16:	2300      	movs	r3, #0
    4a18:	6023      	str	r3, [r4, #0]
    4a1a:	f7fb fe0b 	bl	634 <_lseek>
    4a1e:	1c43      	adds	r3, r0, #1
    4a20:	d000      	beq.n	4a24 <_lseek_r+0x1c>
    4a22:	bd70      	pop	{r4, r5, r6, pc}
    4a24:	6823      	ldr	r3, [r4, #0]
    4a26:	2b00      	cmp	r3, #0
    4a28:	d0fb      	beq.n	4a22 <_lseek_r+0x1a>
    4a2a:	6033      	str	r3, [r6, #0]
    4a2c:	bd70      	pop	{r4, r5, r6, pc}
    4a2e:	bf00      	nop
    4a30:	20000a28 	.word	0x20000a28

00004a34 <__ascii_mbtowc>:
    4a34:	b082      	sub	sp, #8
    4a36:	b149      	cbz	r1, 4a4c <__ascii_mbtowc+0x18>
    4a38:	b15a      	cbz	r2, 4a52 <__ascii_mbtowc+0x1e>
    4a3a:	b16b      	cbz	r3, 4a58 <__ascii_mbtowc+0x24>
    4a3c:	7813      	ldrb	r3, [r2, #0]
    4a3e:	600b      	str	r3, [r1, #0]
    4a40:	7812      	ldrb	r2, [r2, #0]
    4a42:	1c10      	adds	r0, r2, #0
    4a44:	bf18      	it	ne
    4a46:	2001      	movne	r0, #1
    4a48:	b002      	add	sp, #8
    4a4a:	4770      	bx	lr
    4a4c:	a901      	add	r1, sp, #4
    4a4e:	2a00      	cmp	r2, #0
    4a50:	d1f3      	bne.n	4a3a <__ascii_mbtowc+0x6>
    4a52:	4610      	mov	r0, r2
    4a54:	b002      	add	sp, #8
    4a56:	4770      	bx	lr
    4a58:	f06f 0001 	mvn.w	r0, #1
    4a5c:	e7f4      	b.n	4a48 <__ascii_mbtowc+0x14>
    4a5e:	bf00      	nop

00004a60 <memmove>:
    4a60:	4288      	cmp	r0, r1
    4a62:	b5f0      	push	{r4, r5, r6, r7, lr}
    4a64:	d90d      	bls.n	4a82 <memmove+0x22>
    4a66:	188b      	adds	r3, r1, r2
    4a68:	4298      	cmp	r0, r3
    4a6a:	d20a      	bcs.n	4a82 <memmove+0x22>
    4a6c:	1884      	adds	r4, r0, r2
    4a6e:	2a00      	cmp	r2, #0
    4a70:	d051      	beq.n	4b16 <memmove+0xb6>
    4a72:	4622      	mov	r2, r4
    4a74:	f813 4d01 	ldrb.w	r4, [r3, #-1]!
    4a78:	f802 4d01 	strb.w	r4, [r2, #-1]!
    4a7c:	4299      	cmp	r1, r3
    4a7e:	d1f9      	bne.n	4a74 <memmove+0x14>
    4a80:	bdf0      	pop	{r4, r5, r6, r7, pc}
    4a82:	2a0f      	cmp	r2, #15
    4a84:	d948      	bls.n	4b18 <memmove+0xb8>
    4a86:	ea41 0300 	orr.w	r3, r1, r0
    4a8a:	079b      	lsls	r3, r3, #30
    4a8c:	d146      	bne.n	4b1c <memmove+0xbc>
    4a8e:	f100 0410 	add.w	r4, r0, #16
    4a92:	f101 0310 	add.w	r3, r1, #16
    4a96:	4615      	mov	r5, r2
    4a98:	f853 6c10 	ldr.w	r6, [r3, #-16]
    4a9c:	f844 6c10 	str.w	r6, [r4, #-16]
    4aa0:	f853 6c0c 	ldr.w	r6, [r3, #-12]
    4aa4:	f844 6c0c 	str.w	r6, [r4, #-12]
    4aa8:	f853 6c08 	ldr.w	r6, [r3, #-8]
    4aac:	f844 6c08 	str.w	r6, [r4, #-8]
    4ab0:	3d10      	subs	r5, #16
    4ab2:	f853 6c04 	ldr.w	r6, [r3, #-4]
    4ab6:	f844 6c04 	str.w	r6, [r4, #-4]
    4aba:	2d0f      	cmp	r5, #15
    4abc:	f103 0310 	add.w	r3, r3, #16
    4ac0:	f104 0410 	add.w	r4, r4, #16
    4ac4:	d8e8      	bhi.n	4a98 <memmove+0x38>
    4ac6:	f1a2 0310 	sub.w	r3, r2, #16
    4aca:	f023 030f 	bic.w	r3, r3, #15
    4ace:	f002 0e0f 	and.w	lr, r2, #15
    4ad2:	3310      	adds	r3, #16
    4ad4:	f1be 0f03 	cmp.w	lr, #3
    4ad8:	4419      	add	r1, r3
    4ada:	4403      	add	r3, r0
    4adc:	d921      	bls.n	4b22 <memmove+0xc2>
    4ade:	1f1e      	subs	r6, r3, #4
    4ae0:	460d      	mov	r5, r1
    4ae2:	4674      	mov	r4, lr
    4ae4:	3c04      	subs	r4, #4
    4ae6:	f855 7b04 	ldr.w	r7, [r5], #4
    4aea:	f846 7f04 	str.w	r7, [r6, #4]!
    4aee:	2c03      	cmp	r4, #3
    4af0:	d8f8      	bhi.n	4ae4 <memmove+0x84>
    4af2:	f1ae 0404 	sub.w	r4, lr, #4
    4af6:	f024 0403 	bic.w	r4, r4, #3
    4afa:	3404      	adds	r4, #4
    4afc:	4421      	add	r1, r4
    4afe:	4423      	add	r3, r4
    4b00:	f002 0203 	and.w	r2, r2, #3
    4b04:	b162      	cbz	r2, 4b20 <memmove+0xc0>
    4b06:	3b01      	subs	r3, #1
    4b08:	440a      	add	r2, r1
    4b0a:	f811 4b01 	ldrb.w	r4, [r1], #1
    4b0e:	f803 4f01 	strb.w	r4, [r3, #1]!
    4b12:	428a      	cmp	r2, r1
    4b14:	d1f9      	bne.n	4b0a <memmove+0xaa>
    4b16:	bdf0      	pop	{r4, r5, r6, r7, pc}
    4b18:	4603      	mov	r3, r0
    4b1a:	e7f3      	b.n	4b04 <memmove+0xa4>
    4b1c:	4603      	mov	r3, r0
    4b1e:	e7f2      	b.n	4b06 <memmove+0xa6>
    4b20:	bdf0      	pop	{r4, r5, r6, r7, pc}
    4b22:	4672      	mov	r2, lr
    4b24:	e7ee      	b.n	4b04 <memmove+0xa4>
    4b26:	bf00      	nop

00004b28 <_read_r>:
    4b28:	b570      	push	{r4, r5, r6, lr}
    4b2a:	460d      	mov	r5, r1
    4b2c:	4c08      	ldr	r4, [pc, #32]	; (4b50 <_read_r+0x28>)
    4b2e:	4611      	mov	r1, r2
    4b30:	4606      	mov	r6, r0
    4b32:	461a      	mov	r2, r3
    4b34:	4628      	mov	r0, r5
    4b36:	2300      	movs	r3, #0
    4b38:	6023      	str	r3, [r4, #0]
    4b3a:	f7fb fd39 	bl	5b0 <_read>
    4b3e:	1c43      	adds	r3, r0, #1
    4b40:	d000      	beq.n	4b44 <_read_r+0x1c>
    4b42:	bd70      	pop	{r4, r5, r6, pc}
    4b44:	6823      	ldr	r3, [r4, #0]
    4b46:	2b00      	cmp	r3, #0
    4b48:	d0fb      	beq.n	4b42 <_read_r+0x1a>
    4b4a:	6033      	str	r3, [r6, #0]
    4b4c:	bd70      	pop	{r4, r5, r6, pc}
    4b4e:	bf00      	nop
    4b50:	20000a28 	.word	0x20000a28

00004b54 <_realloc_r>:
    4b54:	2900      	cmp	r1, #0
    4b56:	f000 8095 	beq.w	4c84 <_realloc_r+0x130>
    4b5a:	e92d 4ff0 	stmdb	sp!, {r4, r5, r6, r7, r8, r9, sl, fp, lr}
    4b5e:	460d      	mov	r5, r1
    4b60:	4616      	mov	r6, r2
    4b62:	b083      	sub	sp, #12
    4b64:	4680      	mov	r8, r0
    4b66:	f106 070b 	add.w	r7, r6, #11
    4b6a:	f7fe ffeb 	bl	3b44 <__malloc_lock>
    4b6e:	f855 ec04 	ldr.w	lr, [r5, #-4]
    4b72:	2f16      	cmp	r7, #22
    4b74:	f02e 0403 	bic.w	r4, lr, #3
    4b78:	f1a5 0908 	sub.w	r9, r5, #8
    4b7c:	d83c      	bhi.n	4bf8 <_realloc_r+0xa4>
    4b7e:	2210      	movs	r2, #16
    4b80:	4617      	mov	r7, r2
    4b82:	42be      	cmp	r6, r7
    4b84:	d83d      	bhi.n	4c02 <_realloc_r+0xae>
    4b86:	4294      	cmp	r4, r2
    4b88:	da43      	bge.n	4c12 <_realloc_r+0xbe>
    4b8a:	4bc4      	ldr	r3, [pc, #784]	; (4e9c <_realloc_r+0x348>)
    4b8c:	6899      	ldr	r1, [r3, #8]
    4b8e:	eb09 0004 	add.w	r0, r9, r4
    4b92:	4288      	cmp	r0, r1
    4b94:	f000 80b4 	beq.w	4d00 <_realloc_r+0x1ac>
    4b98:	6843      	ldr	r3, [r0, #4]
    4b9a:	f023 0101 	bic.w	r1, r3, #1
    4b9e:	4401      	add	r1, r0
    4ba0:	6849      	ldr	r1, [r1, #4]
    4ba2:	07c9      	lsls	r1, r1, #31
    4ba4:	d54c      	bpl.n	4c40 <_realloc_r+0xec>
    4ba6:	f01e 0f01 	tst.w	lr, #1
    4baa:	f000 809b 	beq.w	4ce4 <_realloc_r+0x190>
    4bae:	4631      	mov	r1, r6
    4bb0:	4640      	mov	r0, r8
    4bb2:	f7fe fc2b 	bl	340c <_malloc_r>
    4bb6:	4606      	mov	r6, r0
    4bb8:	2800      	cmp	r0, #0
    4bba:	d03a      	beq.n	4c32 <_realloc_r+0xde>
    4bbc:	f855 3c04 	ldr.w	r3, [r5, #-4]
    4bc0:	f023 0301 	bic.w	r3, r3, #1
    4bc4:	444b      	add	r3, r9
    4bc6:	f1a0 0208 	sub.w	r2, r0, #8
    4bca:	429a      	cmp	r2, r3
    4bcc:	f000 8121 	beq.w	4e12 <_realloc_r+0x2be>
    4bd0:	1f22      	subs	r2, r4, #4
    4bd2:	2a24      	cmp	r2, #36	; 0x24
    4bd4:	f200 8107 	bhi.w	4de6 <_realloc_r+0x292>
    4bd8:	2a13      	cmp	r2, #19
    4bda:	f200 80db 	bhi.w	4d94 <_realloc_r+0x240>
    4bde:	4603      	mov	r3, r0
    4be0:	462a      	mov	r2, r5
    4be2:	6811      	ldr	r1, [r2, #0]
    4be4:	6019      	str	r1, [r3, #0]
    4be6:	6851      	ldr	r1, [r2, #4]
    4be8:	6059      	str	r1, [r3, #4]
    4bea:	6892      	ldr	r2, [r2, #8]
    4bec:	609a      	str	r2, [r3, #8]
    4bee:	4629      	mov	r1, r5
    4bf0:	4640      	mov	r0, r8
    4bf2:	f7fe fa65 	bl	30c0 <_free_r>
    4bf6:	e01c      	b.n	4c32 <_realloc_r+0xde>
    4bf8:	f027 0707 	bic.w	r7, r7, #7
    4bfc:	2f00      	cmp	r7, #0
    4bfe:	463a      	mov	r2, r7
    4c00:	dabf      	bge.n	4b82 <_realloc_r+0x2e>
    4c02:	2600      	movs	r6, #0
    4c04:	230c      	movs	r3, #12
    4c06:	4630      	mov	r0, r6
    4c08:	f8c8 3000 	str.w	r3, [r8]
    4c0c:	b003      	add	sp, #12
    4c0e:	e8bd 8ff0 	ldmia.w	sp!, {r4, r5, r6, r7, r8, r9, sl, fp, pc}
    4c12:	462e      	mov	r6, r5
    4c14:	1be3      	subs	r3, r4, r7
    4c16:	2b0f      	cmp	r3, #15
    4c18:	d81e      	bhi.n	4c58 <_realloc_r+0x104>
    4c1a:	f8d9 3004 	ldr.w	r3, [r9, #4]
    4c1e:	f003 0301 	and.w	r3, r3, #1
    4c22:	4323      	orrs	r3, r4
    4c24:	444c      	add	r4, r9
    4c26:	f8c9 3004 	str.w	r3, [r9, #4]
    4c2a:	6863      	ldr	r3, [r4, #4]
    4c2c:	f043 0301 	orr.w	r3, r3, #1
    4c30:	6063      	str	r3, [r4, #4]
    4c32:	4640      	mov	r0, r8
    4c34:	f7fe ff8c 	bl	3b50 <__malloc_unlock>
    4c38:	4630      	mov	r0, r6
    4c3a:	b003      	add	sp, #12
    4c3c:	e8bd 8ff0 	ldmia.w	sp!, {r4, r5, r6, r7, r8, r9, sl, fp, pc}
    4c40:	f023 0303 	bic.w	r3, r3, #3
    4c44:	18e1      	adds	r1, r4, r3
    4c46:	4291      	cmp	r1, r2
    4c48:	db1f      	blt.n	4c8a <_realloc_r+0x136>
    4c4a:	68c3      	ldr	r3, [r0, #12]
    4c4c:	6882      	ldr	r2, [r0, #8]
    4c4e:	462e      	mov	r6, r5
    4c50:	60d3      	str	r3, [r2, #12]
    4c52:	460c      	mov	r4, r1
    4c54:	609a      	str	r2, [r3, #8]
    4c56:	e7dd      	b.n	4c14 <_realloc_r+0xc0>
    4c58:	f8d9 2004 	ldr.w	r2, [r9, #4]
    4c5c:	eb09 0107 	add.w	r1, r9, r7
    4c60:	f002 0201 	and.w	r2, r2, #1
    4c64:	444c      	add	r4, r9
    4c66:	f043 0301 	orr.w	r3, r3, #1
    4c6a:	4317      	orrs	r7, r2
    4c6c:	f8c9 7004 	str.w	r7, [r9, #4]
    4c70:	604b      	str	r3, [r1, #4]
    4c72:	6863      	ldr	r3, [r4, #4]
    4c74:	f043 0301 	orr.w	r3, r3, #1
    4c78:	3108      	adds	r1, #8
    4c7a:	6063      	str	r3, [r4, #4]
    4c7c:	4640      	mov	r0, r8
    4c7e:	f7fe fa1f 	bl	30c0 <_free_r>
    4c82:	e7d6      	b.n	4c32 <_realloc_r+0xde>
    4c84:	4611      	mov	r1, r2
    4c86:	f7fe bbc1 	b.w	340c <_malloc_r>
    4c8a:	f01e 0f01 	tst.w	lr, #1
    4c8e:	d18e      	bne.n	4bae <_realloc_r+0x5a>
    4c90:	f855 1c08 	ldr.w	r1, [r5, #-8]
    4c94:	eba9 0a01 	sub.w	sl, r9, r1
    4c98:	f8da 1004 	ldr.w	r1, [sl, #4]
    4c9c:	f021 0103 	bic.w	r1, r1, #3
    4ca0:	440b      	add	r3, r1
    4ca2:	4423      	add	r3, r4
    4ca4:	4293      	cmp	r3, r2
    4ca6:	db25      	blt.n	4cf4 <_realloc_r+0x1a0>
    4ca8:	68c2      	ldr	r2, [r0, #12]
    4caa:	6881      	ldr	r1, [r0, #8]
    4cac:	4656      	mov	r6, sl
    4cae:	60ca      	str	r2, [r1, #12]
    4cb0:	6091      	str	r1, [r2, #8]
    4cb2:	f8da 100c 	ldr.w	r1, [sl, #12]
    4cb6:	f856 0f08 	ldr.w	r0, [r6, #8]!
    4cba:	1f22      	subs	r2, r4, #4
    4cbc:	2a24      	cmp	r2, #36	; 0x24
    4cbe:	60c1      	str	r1, [r0, #12]
    4cc0:	6088      	str	r0, [r1, #8]
    4cc2:	f200 8094 	bhi.w	4dee <_realloc_r+0x29a>
    4cc6:	2a13      	cmp	r2, #19
    4cc8:	d96f      	bls.n	4daa <_realloc_r+0x256>
    4cca:	6829      	ldr	r1, [r5, #0]
    4ccc:	f8ca 1008 	str.w	r1, [sl, #8]
    4cd0:	6869      	ldr	r1, [r5, #4]
    4cd2:	f8ca 100c 	str.w	r1, [sl, #12]
    4cd6:	2a1b      	cmp	r2, #27
    4cd8:	f200 80a2 	bhi.w	4e20 <_realloc_r+0x2cc>
    4cdc:	3508      	adds	r5, #8
    4cde:	f10a 0210 	add.w	r2, sl, #16
    4ce2:	e063      	b.n	4dac <_realloc_r+0x258>
    4ce4:	f855 3c08 	ldr.w	r3, [r5, #-8]
    4ce8:	eba9 0a03 	sub.w	sl, r9, r3
    4cec:	f8da 1004 	ldr.w	r1, [sl, #4]
    4cf0:	f021 0103 	bic.w	r1, r1, #3
    4cf4:	1863      	adds	r3, r4, r1
    4cf6:	4293      	cmp	r3, r2
    4cf8:	f6ff af59 	blt.w	4bae <_realloc_r+0x5a>
    4cfc:	4656      	mov	r6, sl
    4cfe:	e7d8      	b.n	4cb2 <_realloc_r+0x15e>
    4d00:	6841      	ldr	r1, [r0, #4]
    4d02:	f021 0b03 	bic.w	fp, r1, #3
    4d06:	44a3      	add	fp, r4
    4d08:	f107 0010 	add.w	r0, r7, #16
    4d0c:	4583      	cmp	fp, r0
    4d0e:	da56      	bge.n	4dbe <_realloc_r+0x26a>
    4d10:	f01e 0f01 	tst.w	lr, #1
    4d14:	f47f af4b 	bne.w	4bae <_realloc_r+0x5a>
    4d18:	f855 1c08 	ldr.w	r1, [r5, #-8]
    4d1c:	eba9 0a01 	sub.w	sl, r9, r1
    4d20:	f8da 1004 	ldr.w	r1, [sl, #4]
    4d24:	f021 0103 	bic.w	r1, r1, #3
    4d28:	448b      	add	fp, r1
    4d2a:	4558      	cmp	r0, fp
    4d2c:	dce2      	bgt.n	4cf4 <_realloc_r+0x1a0>
    4d2e:	4656      	mov	r6, sl
    4d30:	f8da 100c 	ldr.w	r1, [sl, #12]
    4d34:	f856 0f08 	ldr.w	r0, [r6, #8]!
    4d38:	1f22      	subs	r2, r4, #4
    4d3a:	2a24      	cmp	r2, #36	; 0x24
    4d3c:	60c1      	str	r1, [r0, #12]
    4d3e:	6088      	str	r0, [r1, #8]
    4d40:	f200 808f 	bhi.w	4e62 <_realloc_r+0x30e>
    4d44:	2a13      	cmp	r2, #19
    4d46:	f240 808a 	bls.w	4e5e <_realloc_r+0x30a>
    4d4a:	6829      	ldr	r1, [r5, #0]
    4d4c:	f8ca 1008 	str.w	r1, [sl, #8]
    4d50:	6869      	ldr	r1, [r5, #4]
    4d52:	f8ca 100c 	str.w	r1, [sl, #12]
    4d56:	2a1b      	cmp	r2, #27
    4d58:	f200 808a 	bhi.w	4e70 <_realloc_r+0x31c>
    4d5c:	3508      	adds	r5, #8
    4d5e:	f10a 0210 	add.w	r2, sl, #16
    4d62:	6829      	ldr	r1, [r5, #0]
    4d64:	6011      	str	r1, [r2, #0]
    4d66:	6869      	ldr	r1, [r5, #4]
    4d68:	6051      	str	r1, [r2, #4]
    4d6a:	68a9      	ldr	r1, [r5, #8]
    4d6c:	6091      	str	r1, [r2, #8]
    4d6e:	eb0a 0107 	add.w	r1, sl, r7
    4d72:	ebab 0207 	sub.w	r2, fp, r7
    4d76:	f042 0201 	orr.w	r2, r2, #1
    4d7a:	6099      	str	r1, [r3, #8]
    4d7c:	604a      	str	r2, [r1, #4]
    4d7e:	f8da 3004 	ldr.w	r3, [sl, #4]
    4d82:	f003 0301 	and.w	r3, r3, #1
    4d86:	431f      	orrs	r7, r3
    4d88:	4640      	mov	r0, r8
    4d8a:	f8ca 7004 	str.w	r7, [sl, #4]
    4d8e:	f7fe fedf 	bl	3b50 <__malloc_unlock>
    4d92:	e751      	b.n	4c38 <_realloc_r+0xe4>
    4d94:	682b      	ldr	r3, [r5, #0]
    4d96:	6003      	str	r3, [r0, #0]
    4d98:	686b      	ldr	r3, [r5, #4]
    4d9a:	6043      	str	r3, [r0, #4]
    4d9c:	2a1b      	cmp	r2, #27
    4d9e:	d82d      	bhi.n	4dfc <_realloc_r+0x2a8>
    4da0:	f100 0308 	add.w	r3, r0, #8
    4da4:	f105 0208 	add.w	r2, r5, #8
    4da8:	e71b      	b.n	4be2 <_realloc_r+0x8e>
    4daa:	4632      	mov	r2, r6
    4dac:	6829      	ldr	r1, [r5, #0]
    4dae:	6011      	str	r1, [r2, #0]
    4db0:	6869      	ldr	r1, [r5, #4]
    4db2:	6051      	str	r1, [r2, #4]
    4db4:	68a9      	ldr	r1, [r5, #8]
    4db6:	6091      	str	r1, [r2, #8]
    4db8:	461c      	mov	r4, r3
    4dba:	46d1      	mov	r9, sl
    4dbc:	e72a      	b.n	4c14 <_realloc_r+0xc0>
    4dbe:	eb09 0107 	add.w	r1, r9, r7
    4dc2:	ebab 0b07 	sub.w	fp, fp, r7
    4dc6:	f04b 0201 	orr.w	r2, fp, #1
    4dca:	6099      	str	r1, [r3, #8]
    4dcc:	604a      	str	r2, [r1, #4]
    4dce:	f855 3c04 	ldr.w	r3, [r5, #-4]
    4dd2:	f003 0301 	and.w	r3, r3, #1
    4dd6:	431f      	orrs	r7, r3
    4dd8:	4640      	mov	r0, r8
    4dda:	f845 7c04 	str.w	r7, [r5, #-4]
    4dde:	f7fe feb7 	bl	3b50 <__malloc_unlock>
    4de2:	462e      	mov	r6, r5
    4de4:	e728      	b.n	4c38 <_realloc_r+0xe4>
    4de6:	4629      	mov	r1, r5
    4de8:	f7ff fe3a 	bl	4a60 <memmove>
    4dec:	e6ff      	b.n	4bee <_realloc_r+0x9a>
    4dee:	4629      	mov	r1, r5
    4df0:	4630      	mov	r0, r6
    4df2:	461c      	mov	r4, r3
    4df4:	46d1      	mov	r9, sl
    4df6:	f7ff fe33 	bl	4a60 <memmove>
    4dfa:	e70b      	b.n	4c14 <_realloc_r+0xc0>
    4dfc:	68ab      	ldr	r3, [r5, #8]
    4dfe:	6083      	str	r3, [r0, #8]
    4e00:	68eb      	ldr	r3, [r5, #12]
    4e02:	60c3      	str	r3, [r0, #12]
    4e04:	2a24      	cmp	r2, #36	; 0x24
    4e06:	d017      	beq.n	4e38 <_realloc_r+0x2e4>
    4e08:	f100 0310 	add.w	r3, r0, #16
    4e0c:	f105 0210 	add.w	r2, r5, #16
    4e10:	e6e7      	b.n	4be2 <_realloc_r+0x8e>
    4e12:	f850 3c04 	ldr.w	r3, [r0, #-4]
    4e16:	f023 0303 	bic.w	r3, r3, #3
    4e1a:	441c      	add	r4, r3
    4e1c:	462e      	mov	r6, r5
    4e1e:	e6f9      	b.n	4c14 <_realloc_r+0xc0>
    4e20:	68a9      	ldr	r1, [r5, #8]
    4e22:	f8ca 1010 	str.w	r1, [sl, #16]
    4e26:	68e9      	ldr	r1, [r5, #12]
    4e28:	f8ca 1014 	str.w	r1, [sl, #20]
    4e2c:	2a24      	cmp	r2, #36	; 0x24
    4e2e:	d00c      	beq.n	4e4a <_realloc_r+0x2f6>
    4e30:	3510      	adds	r5, #16
    4e32:	f10a 0218 	add.w	r2, sl, #24
    4e36:	e7b9      	b.n	4dac <_realloc_r+0x258>
    4e38:	692b      	ldr	r3, [r5, #16]
    4e3a:	6103      	str	r3, [r0, #16]
    4e3c:	696b      	ldr	r3, [r5, #20]
    4e3e:	6143      	str	r3, [r0, #20]
    4e40:	f105 0218 	add.w	r2, r5, #24
    4e44:	f100 0318 	add.w	r3, r0, #24
    4e48:	e6cb      	b.n	4be2 <_realloc_r+0x8e>
    4e4a:	692a      	ldr	r2, [r5, #16]
    4e4c:	f8ca 2018 	str.w	r2, [sl, #24]
    4e50:	696a      	ldr	r2, [r5, #20]
    4e52:	f8ca 201c 	str.w	r2, [sl, #28]
    4e56:	3518      	adds	r5, #24
    4e58:	f10a 0220 	add.w	r2, sl, #32
    4e5c:	e7a6      	b.n	4dac <_realloc_r+0x258>
    4e5e:	4632      	mov	r2, r6
    4e60:	e77f      	b.n	4d62 <_realloc_r+0x20e>
    4e62:	4629      	mov	r1, r5
    4e64:	4630      	mov	r0, r6
    4e66:	9301      	str	r3, [sp, #4]
    4e68:	f7ff fdfa 	bl	4a60 <memmove>
    4e6c:	9b01      	ldr	r3, [sp, #4]
    4e6e:	e77e      	b.n	4d6e <_realloc_r+0x21a>
    4e70:	68a9      	ldr	r1, [r5, #8]
    4e72:	f8ca 1010 	str.w	r1, [sl, #16]
    4e76:	68e9      	ldr	r1, [r5, #12]
    4e78:	f8ca 1014 	str.w	r1, [sl, #20]
    4e7c:	2a24      	cmp	r2, #36	; 0x24
    4e7e:	d003      	beq.n	4e88 <_realloc_r+0x334>
    4e80:	3510      	adds	r5, #16
    4e82:	f10a 0218 	add.w	r2, sl, #24
    4e86:	e76c      	b.n	4d62 <_realloc_r+0x20e>
    4e88:	692a      	ldr	r2, [r5, #16]
    4e8a:	f8ca 2018 	str.w	r2, [sl, #24]
    4e8e:	696a      	ldr	r2, [r5, #20]
    4e90:	f8ca 201c 	str.w	r2, [sl, #28]
    4e94:	3518      	adds	r5, #24
    4e96:	f10a 0220 	add.w	r2, sl, #32
    4e9a:	e762      	b.n	4d62 <_realloc_r+0x20e>
    4e9c:	20000434 	.word	0x20000434

00004ea0 <__swbuf_r>:
    4ea0:	b5f8      	push	{r3, r4, r5, r6, r7, lr}
    4ea2:	460d      	mov	r5, r1
    4ea4:	4614      	mov	r4, r2
    4ea6:	4606      	mov	r6, r0
    4ea8:	b110      	cbz	r0, 4eb0 <__swbuf_r+0x10>
    4eaa:	6b83      	ldr	r3, [r0, #56]	; 0x38
    4eac:	2b00      	cmp	r3, #0
    4eae:	d04b      	beq.n	4f48 <__swbuf_r+0xa8>
    4eb0:	f9b4 200c 	ldrsh.w	r2, [r4, #12]
    4eb4:	69a3      	ldr	r3, [r4, #24]
    4eb6:	60a3      	str	r3, [r4, #8]
    4eb8:	b291      	uxth	r1, r2
    4eba:	0708      	lsls	r0, r1, #28
    4ebc:	d539      	bpl.n	4f32 <__swbuf_r+0x92>
    4ebe:	6923      	ldr	r3, [r4, #16]
    4ec0:	2b00      	cmp	r3, #0
    4ec2:	d036      	beq.n	4f32 <__swbuf_r+0x92>
    4ec4:	b2ed      	uxtb	r5, r5
    4ec6:	0489      	lsls	r1, r1, #18
    4ec8:	462f      	mov	r7, r5
    4eca:	d515      	bpl.n	4ef8 <__swbuf_r+0x58>
    4ecc:	6822      	ldr	r2, [r4, #0]
    4ece:	6961      	ldr	r1, [r4, #20]
    4ed0:	1ad3      	subs	r3, r2, r3
    4ed2:	428b      	cmp	r3, r1
    4ed4:	da1c      	bge.n	4f10 <__swbuf_r+0x70>
    4ed6:	3301      	adds	r3, #1
    4ed8:	68a1      	ldr	r1, [r4, #8]
    4eda:	1c50      	adds	r0, r2, #1
    4edc:	3901      	subs	r1, #1
    4ede:	60a1      	str	r1, [r4, #8]
    4ee0:	6020      	str	r0, [r4, #0]
    4ee2:	7015      	strb	r5, [r2, #0]
    4ee4:	6962      	ldr	r2, [r4, #20]
    4ee6:	429a      	cmp	r2, r3
    4ee8:	d01a      	beq.n	4f20 <__swbuf_r+0x80>
    4eea:	89a3      	ldrh	r3, [r4, #12]
    4eec:	07db      	lsls	r3, r3, #31
    4eee:	d501      	bpl.n	4ef4 <__swbuf_r+0x54>
    4ef0:	2d0a      	cmp	r5, #10
    4ef2:	d015      	beq.n	4f20 <__swbuf_r+0x80>
    4ef4:	4638      	mov	r0, r7
    4ef6:	bdf8      	pop	{r3, r4, r5, r6, r7, pc}
    4ef8:	6e61      	ldr	r1, [r4, #100]	; 0x64
    4efa:	f442 5200 	orr.w	r2, r2, #8192	; 0x2000
    4efe:	f421 5100 	bic.w	r1, r1, #8192	; 0x2000
    4f02:	81a2      	strh	r2, [r4, #12]
    4f04:	6822      	ldr	r2, [r4, #0]
    4f06:	6661      	str	r1, [r4, #100]	; 0x64
    4f08:	6961      	ldr	r1, [r4, #20]
    4f0a:	1ad3      	subs	r3, r2, r3
    4f0c:	428b      	cmp	r3, r1
    4f0e:	dbe2      	blt.n	4ed6 <__swbuf_r+0x36>
    4f10:	4621      	mov	r1, r4
    4f12:	4630      	mov	r0, r6
    4f14:	f7fd ffda 	bl	2ecc <_fflush_r>
    4f18:	b940      	cbnz	r0, 4f2c <__swbuf_r+0x8c>
    4f1a:	6822      	ldr	r2, [r4, #0]
    4f1c:	2301      	movs	r3, #1
    4f1e:	e7db      	b.n	4ed8 <__swbuf_r+0x38>
    4f20:	4621      	mov	r1, r4
    4f22:	4630      	mov	r0, r6
    4f24:	f7fd ffd2 	bl	2ecc <_fflush_r>
    4f28:	2800      	cmp	r0, #0
    4f2a:	d0e3      	beq.n	4ef4 <__swbuf_r+0x54>
    4f2c:	f04f 37ff 	mov.w	r7, #4294967295
    4f30:	e7e0      	b.n	4ef4 <__swbuf_r+0x54>
    4f32:	4621      	mov	r1, r4
    4f34:	4630      	mov	r0, r6
    4f36:	f7fc fef7 	bl	1d28 <__swsetup_r>
    4f3a:	2800      	cmp	r0, #0
    4f3c:	d1f6      	bne.n	4f2c <__swbuf_r+0x8c>
    4f3e:	f9b4 200c 	ldrsh.w	r2, [r4, #12]
    4f42:	6923      	ldr	r3, [r4, #16]
    4f44:	b291      	uxth	r1, r2
    4f46:	e7bd      	b.n	4ec4 <__swbuf_r+0x24>
    4f48:	f7fe f818 	bl	2f7c <__sinit>
    4f4c:	e7b0      	b.n	4eb0 <__swbuf_r+0x10>
    4f4e:	bf00      	nop

00004f50 <_wcrtomb_r>:
    4f50:	b5f0      	push	{r4, r5, r6, r7, lr}
    4f52:	4606      	mov	r6, r0
    4f54:	b085      	sub	sp, #20
    4f56:	461f      	mov	r7, r3
    4f58:	b189      	cbz	r1, 4f7e <_wcrtomb_r+0x2e>
    4f5a:	4c10      	ldr	r4, [pc, #64]	; (4f9c <_wcrtomb_r+0x4c>)
    4f5c:	4d10      	ldr	r5, [pc, #64]	; (4fa0 <_wcrtomb_r+0x50>)
    4f5e:	6824      	ldr	r4, [r4, #0]
    4f60:	6b64      	ldr	r4, [r4, #52]	; 0x34
    4f62:	2c00      	cmp	r4, #0
    4f64:	bf08      	it	eq
    4f66:	462c      	moveq	r4, r5
    4f68:	f8d4 40e0 	ldr.w	r4, [r4, #224]	; 0xe0
    4f6c:	47a0      	blx	r4
    4f6e:	1c43      	adds	r3, r0, #1
    4f70:	d103      	bne.n	4f7a <_wcrtomb_r+0x2a>
    4f72:	2200      	movs	r2, #0
    4f74:	238a      	movs	r3, #138	; 0x8a
    4f76:	603a      	str	r2, [r7, #0]
    4f78:	6033      	str	r3, [r6, #0]
    4f7a:	b005      	add	sp, #20
    4f7c:	bdf0      	pop	{r4, r5, r6, r7, pc}
    4f7e:	460c      	mov	r4, r1
    4f80:	4906      	ldr	r1, [pc, #24]	; (4f9c <_wcrtomb_r+0x4c>)
    4f82:	4a07      	ldr	r2, [pc, #28]	; (4fa0 <_wcrtomb_r+0x50>)
    4f84:	6809      	ldr	r1, [r1, #0]
    4f86:	6b49      	ldr	r1, [r1, #52]	; 0x34
    4f88:	2900      	cmp	r1, #0
    4f8a:	bf08      	it	eq
    4f8c:	4611      	moveq	r1, r2
    4f8e:	4622      	mov	r2, r4
    4f90:	f8d1 40e0 	ldr.w	r4, [r1, #224]	; 0xe0
    4f94:	a901      	add	r1, sp, #4
    4f96:	47a0      	blx	r4
    4f98:	e7e9      	b.n	4f6e <_wcrtomb_r+0x1e>
    4f9a:	bf00      	nop
    4f9c:	20000004 	.word	0x20000004
    4fa0:	20000844 	.word	0x20000844

00004fa4 <__ascii_wctomb>:
    4fa4:	b121      	cbz	r1, 4fb0 <__ascii_wctomb+0xc>
    4fa6:	2aff      	cmp	r2, #255	; 0xff
    4fa8:	d804      	bhi.n	4fb4 <__ascii_wctomb+0x10>
    4faa:	700a      	strb	r2, [r1, #0]
    4fac:	2001      	movs	r0, #1
    4fae:	4770      	bx	lr
    4fb0:	4608      	mov	r0, r1
    4fb2:	4770      	bx	lr
    4fb4:	238a      	movs	r3, #138	; 0x8a
    4fb6:	6003      	str	r3, [r0, #0]
    4fb8:	f04f 30ff 	mov.w	r0, #4294967295
    4fbc:	4770      	bx	lr
    4fbe:	bf00      	nop

00004fc0 <__aeabi_drsub>:
    4fc0:	f081 4100 	eor.w	r1, r1, #2147483648	; 0x80000000
    4fc4:	e002      	b.n	4fcc <__adddf3>
    4fc6:	bf00      	nop

00004fc8 <__aeabi_dsub>:
    4fc8:	f083 4300 	eor.w	r3, r3, #2147483648	; 0x80000000

00004fcc <__adddf3>:
    4fcc:	b530      	push	{r4, r5, lr}
    4fce:	ea4f 0441 	mov.w	r4, r1, lsl #1
    4fd2:	ea4f 0543 	mov.w	r5, r3, lsl #1
    4fd6:	ea94 0f05 	teq	r4, r5
    4fda:	bf08      	it	eq
    4fdc:	ea90 0f02 	teqeq	r0, r2
    4fe0:	bf1f      	itttt	ne
    4fe2:	ea54 0c00 	orrsne.w	ip, r4, r0
    4fe6:	ea55 0c02 	orrsne.w	ip, r5, r2
    4fea:	ea7f 5c64 	mvnsne.w	ip, r4, asr #21
    4fee:	ea7f 5c65 	mvnsne.w	ip, r5, asr #21
    4ff2:	f000 80e2 	beq.w	51ba <__adddf3+0x1ee>
    4ff6:	ea4f 5454 	mov.w	r4, r4, lsr #21
    4ffa:	ebd4 5555 	rsbs	r5, r4, r5, lsr #21
    4ffe:	bfb8      	it	lt
    5000:	426d      	neglt	r5, r5
    5002:	dd0c      	ble.n	501e <__adddf3+0x52>
    5004:	442c      	add	r4, r5
    5006:	ea80 0202 	eor.w	r2, r0, r2
    500a:	ea81 0303 	eor.w	r3, r1, r3
    500e:	ea82 0000 	eor.w	r0, r2, r0
    5012:	ea83 0101 	eor.w	r1, r3, r1
    5016:	ea80 0202 	eor.w	r2, r0, r2
    501a:	ea81 0303 	eor.w	r3, r1, r3
    501e:	2d36      	cmp	r5, #54	; 0x36
    5020:	bf88      	it	hi
    5022:	bd30      	pophi	{r4, r5, pc}
    5024:	f011 4f00 	tst.w	r1, #2147483648	; 0x80000000
    5028:	ea4f 3101 	mov.w	r1, r1, lsl #12
    502c:	f44f 1c80 	mov.w	ip, #1048576	; 0x100000
    5030:	ea4c 3111 	orr.w	r1, ip, r1, lsr #12
    5034:	d002      	beq.n	503c <__adddf3+0x70>
    5036:	4240      	negs	r0, r0
    5038:	eb61 0141 	sbc.w	r1, r1, r1, lsl #1
    503c:	f013 4f00 	tst.w	r3, #2147483648	; 0x80000000
    5040:	ea4f 3303 	mov.w	r3, r3, lsl #12
    5044:	ea4c 3313 	orr.w	r3, ip, r3, lsr #12
    5048:	d002      	beq.n	5050 <__adddf3+0x84>
    504a:	4252      	negs	r2, r2
    504c:	eb63 0343 	sbc.w	r3, r3, r3, lsl #1
    5050:	ea94 0f05 	teq	r4, r5
    5054:	f000 80a7 	beq.w	51a6 <__adddf3+0x1da>
    5058:	f1a4 0401 	sub.w	r4, r4, #1
    505c:	f1d5 0e20 	rsbs	lr, r5, #32
    5060:	db0d      	blt.n	507e <__adddf3+0xb2>
    5062:	fa02 fc0e 	lsl.w	ip, r2, lr
    5066:	fa22 f205 	lsr.w	r2, r2, r5
    506a:	1880      	adds	r0, r0, r2
    506c:	f141 0100 	adc.w	r1, r1, #0
    5070:	fa03 f20e 	lsl.w	r2, r3, lr
    5074:	1880      	adds	r0, r0, r2
    5076:	fa43 f305 	asr.w	r3, r3, r5
    507a:	4159      	adcs	r1, r3
    507c:	e00e      	b.n	509c <__adddf3+0xd0>
    507e:	f1a5 0520 	sub.w	r5, r5, #32
    5082:	f10e 0e20 	add.w	lr, lr, #32
    5086:	2a01      	cmp	r2, #1
    5088:	fa03 fc0e 	lsl.w	ip, r3, lr
    508c:	bf28      	it	cs
    508e:	f04c 0c02 	orrcs.w	ip, ip, #2
    5092:	fa43 f305 	asr.w	r3, r3, r5
    5096:	18c0      	adds	r0, r0, r3
    5098:	eb51 71e3 	adcs.w	r1, r1, r3, asr #31
    509c:	f001 4500 	and.w	r5, r1, #2147483648	; 0x80000000
    50a0:	d507      	bpl.n	50b2 <__adddf3+0xe6>
    50a2:	f04f 0e00 	mov.w	lr, #0
    50a6:	f1dc 0c00 	rsbs	ip, ip, #0
    50aa:	eb7e 0000 	sbcs.w	r0, lr, r0
    50ae:	eb6e 0101 	sbc.w	r1, lr, r1
    50b2:	f5b1 1f80 	cmp.w	r1, #1048576	; 0x100000
    50b6:	d31b      	bcc.n	50f0 <__adddf3+0x124>
    50b8:	f5b1 1f00 	cmp.w	r1, #2097152	; 0x200000
    50bc:	d30c      	bcc.n	50d8 <__adddf3+0x10c>
    50be:	0849      	lsrs	r1, r1, #1
    50c0:	ea5f 0030 	movs.w	r0, r0, rrx
    50c4:	ea4f 0c3c 	mov.w	ip, ip, rrx
    50c8:	f104 0401 	add.w	r4, r4, #1
    50cc:	ea4f 5244 	mov.w	r2, r4, lsl #21
    50d0:	f512 0f80 	cmn.w	r2, #4194304	; 0x400000
    50d4:	f080 809a 	bcs.w	520c <__adddf3+0x240>
    50d8:	f1bc 4f00 	cmp.w	ip, #2147483648	; 0x80000000
    50dc:	bf08      	it	eq
    50de:	ea5f 0c50 	movseq.w	ip, r0, lsr #1
    50e2:	f150 0000 	adcs.w	r0, r0, #0
    50e6:	eb41 5104 	adc.w	r1, r1, r4, lsl #20
    50ea:	ea41 0105 	orr.w	r1, r1, r5
    50ee:	bd30      	pop	{r4, r5, pc}
    50f0:	ea5f 0c4c 	movs.w	ip, ip, lsl #1
    50f4:	4140      	adcs	r0, r0
    50f6:	eb41 0101 	adc.w	r1, r1, r1
    50fa:	f411 1f80 	tst.w	r1, #1048576	; 0x100000
    50fe:	f1a4 0401 	sub.w	r4, r4, #1
    5102:	d1e9      	bne.n	50d8 <__adddf3+0x10c>
    5104:	f091 0f00 	teq	r1, #0
    5108:	bf04      	itt	eq
    510a:	4601      	moveq	r1, r0
    510c:	2000      	moveq	r0, #0
    510e:	fab1 f381 	clz	r3, r1
    5112:	bf08      	it	eq
    5114:	3320      	addeq	r3, #32
    5116:	f1a3 030b 	sub.w	r3, r3, #11
    511a:	f1b3 0220 	subs.w	r2, r3, #32
    511e:	da0c      	bge.n	513a <__adddf3+0x16e>
    5120:	320c      	adds	r2, #12
    5122:	dd08      	ble.n	5136 <__adddf3+0x16a>
    5124:	f102 0c14 	add.w	ip, r2, #20
    5128:	f1c2 020c 	rsb	r2, r2, #12
    512c:	fa01 f00c 	lsl.w	r0, r1, ip
    5130:	fa21 f102 	lsr.w	r1, r1, r2
    5134:	e00c      	b.n	5150 <__adddf3+0x184>
    5136:	f102 0214 	add.w	r2, r2, #20
    513a:	bfd8      	it	le
    513c:	f1c2 0c20 	rsble	ip, r2, #32
    5140:	fa01 f102 	lsl.w	r1, r1, r2
    5144:	fa20 fc0c 	lsr.w	ip, r0, ip
    5148:	bfdc      	itt	le
    514a:	ea41 010c 	orrle.w	r1, r1, ip
    514e:	4090      	lslle	r0, r2
    5150:	1ae4      	subs	r4, r4, r3
    5152:	bfa2      	ittt	ge
    5154:	eb01 5104 	addge.w	r1, r1, r4, lsl #20
    5158:	4329      	orrge	r1, r5
    515a:	bd30      	popge	{r4, r5, pc}
    515c:	ea6f 0404 	mvn.w	r4, r4
    5160:	3c1f      	subs	r4, #31
    5162:	da1c      	bge.n	519e <__adddf3+0x1d2>
    5164:	340c      	adds	r4, #12
    5166:	dc0e      	bgt.n	5186 <__adddf3+0x1ba>
    5168:	f104 0414 	add.w	r4, r4, #20
    516c:	f1c4 0220 	rsb	r2, r4, #32
    5170:	fa20 f004 	lsr.w	r0, r0, r4
    5174:	fa01 f302 	lsl.w	r3, r1, r2
    5178:	ea40 0003 	orr.w	r0, r0, r3
    517c:	fa21 f304 	lsr.w	r3, r1, r4
    5180:	ea45 0103 	orr.w	r1, r5, r3
    5184:	bd30      	pop	{r4, r5, pc}
    5186:	f1c4 040c 	rsb	r4, r4, #12
    518a:	f1c4 0220 	rsb	r2, r4, #32
    518e:	fa20 f002 	lsr.w	r0, r0, r2
    5192:	fa01 f304 	lsl.w	r3, r1, r4
    5196:	ea40 0003 	orr.w	r0, r0, r3
    519a:	4629      	mov	r1, r5
    519c:	bd30      	pop	{r4, r5, pc}
    519e:	fa21 f004 	lsr.w	r0, r1, r4
    51a2:	4629      	mov	r1, r5
    51a4:	bd30      	pop	{r4, r5, pc}
    51a6:	f094 0f00 	teq	r4, #0
    51aa:	f483 1380 	eor.w	r3, r3, #1048576	; 0x100000
    51ae:	bf06      	itte	eq
    51b0:	f481 1180 	eoreq.w	r1, r1, #1048576	; 0x100000
    51b4:	3401      	addeq	r4, #1
    51b6:	3d01      	subne	r5, #1
    51b8:	e74e      	b.n	5058 <__adddf3+0x8c>
    51ba:	ea7f 5c64 	mvns.w	ip, r4, asr #21
    51be:	bf18      	it	ne
    51c0:	ea7f 5c65 	mvnsne.w	ip, r5, asr #21
    51c4:	d029      	beq.n	521a <__adddf3+0x24e>
    51c6:	ea94 0f05 	teq	r4, r5
    51ca:	bf08      	it	eq
    51cc:	ea90 0f02 	teqeq	r0, r2
    51d0:	d005      	beq.n	51de <__adddf3+0x212>
    51d2:	ea54 0c00 	orrs.w	ip, r4, r0
    51d6:	bf04      	itt	eq
    51d8:	4619      	moveq	r1, r3
    51da:	4610      	moveq	r0, r2
    51dc:	bd30      	pop	{r4, r5, pc}
    51de:	ea91 0f03 	teq	r1, r3
    51e2:	bf1e      	ittt	ne
    51e4:	2100      	movne	r1, #0
    51e6:	2000      	movne	r0, #0
    51e8:	bd30      	popne	{r4, r5, pc}
    51ea:	ea5f 5c54 	movs.w	ip, r4, lsr #21
    51ee:	d105      	bne.n	51fc <__adddf3+0x230>
    51f0:	0040      	lsls	r0, r0, #1
    51f2:	4149      	adcs	r1, r1
    51f4:	bf28      	it	cs
    51f6:	f041 4100 	orrcs.w	r1, r1, #2147483648	; 0x80000000
    51fa:	bd30      	pop	{r4, r5, pc}
    51fc:	f514 0480 	adds.w	r4, r4, #4194304	; 0x400000
    5200:	bf3c      	itt	cc
    5202:	f501 1180 	addcc.w	r1, r1, #1048576	; 0x100000
    5206:	bd30      	popcc	{r4, r5, pc}
    5208:	f001 4500 	and.w	r5, r1, #2147483648	; 0x80000000
    520c:	f045 41fe 	orr.w	r1, r5, #2130706432	; 0x7f000000
    5210:	f441 0170 	orr.w	r1, r1, #15728640	; 0xf00000
    5214:	f04f 0000 	mov.w	r0, #0
    5218:	bd30      	pop	{r4, r5, pc}
    521a:	ea7f 5c64 	mvns.w	ip, r4, asr #21
    521e:	bf1a      	itte	ne
    5220:	4619      	movne	r1, r3
    5222:	4610      	movne	r0, r2
    5224:	ea7f 5c65 	mvnseq.w	ip, r5, asr #21
    5228:	bf1c      	itt	ne
    522a:	460b      	movne	r3, r1
    522c:	4602      	movne	r2, r0
    522e:	ea50 3401 	orrs.w	r4, r0, r1, lsl #12
    5232:	bf06      	itte	eq
    5234:	ea52 3503 	orrseq.w	r5, r2, r3, lsl #12
    5238:	ea91 0f03 	teqeq	r1, r3
    523c:	f441 2100 	orrne.w	r1, r1, #524288	; 0x80000
    5240:	bd30      	pop	{r4, r5, pc}
    5242:	bf00      	nop

00005244 <__aeabi_ui2d>:
    5244:	f090 0f00 	teq	r0, #0
    5248:	bf04      	itt	eq
    524a:	2100      	moveq	r1, #0
    524c:	4770      	bxeq	lr
    524e:	b530      	push	{r4, r5, lr}
    5250:	f44f 6480 	mov.w	r4, #1024	; 0x400
    5254:	f104 0432 	add.w	r4, r4, #50	; 0x32
    5258:	f04f 0500 	mov.w	r5, #0
    525c:	f04f 0100 	mov.w	r1, #0
    5260:	e750      	b.n	5104 <__adddf3+0x138>
    5262:	bf00      	nop

00005264 <__aeabi_i2d>:
    5264:	f090 0f00 	teq	r0, #0
    5268:	bf04      	itt	eq
    526a:	2100      	moveq	r1, #0
    526c:	4770      	bxeq	lr
    526e:	b530      	push	{r4, r5, lr}
    5270:	f44f 6480 	mov.w	r4, #1024	; 0x400
    5274:	f104 0432 	add.w	r4, r4, #50	; 0x32
    5278:	f010 4500 	ands.w	r5, r0, #2147483648	; 0x80000000
    527c:	bf48      	it	mi
    527e:	4240      	negmi	r0, r0
    5280:	f04f 0100 	mov.w	r1, #0
    5284:	e73e      	b.n	5104 <__adddf3+0x138>
    5286:	bf00      	nop

00005288 <__aeabi_f2d>:
    5288:	0042      	lsls	r2, r0, #1
    528a:	ea4f 01e2 	mov.w	r1, r2, asr #3
    528e:	ea4f 0131 	mov.w	r1, r1, rrx
    5292:	ea4f 7002 	mov.w	r0, r2, lsl #28
    5296:	bf1f      	itttt	ne
    5298:	f012 437f 	andsne.w	r3, r2, #4278190080	; 0xff000000
    529c:	f093 4f7f 	teqne	r3, #4278190080	; 0xff000000
    52a0:	f081 5160 	eorne.w	r1, r1, #939524096	; 0x38000000
    52a4:	4770      	bxne	lr
    52a6:	f092 0f00 	teq	r2, #0
    52aa:	bf14      	ite	ne
    52ac:	f093 4f7f 	teqne	r3, #4278190080	; 0xff000000
    52b0:	4770      	bxeq	lr
    52b2:	b530      	push	{r4, r5, lr}
    52b4:	f44f 7460 	mov.w	r4, #896	; 0x380
    52b8:	f001 4500 	and.w	r5, r1, #2147483648	; 0x80000000
    52bc:	f021 4100 	bic.w	r1, r1, #2147483648	; 0x80000000
    52c0:	e720      	b.n	5104 <__adddf3+0x138>
    52c2:	bf00      	nop

000052c4 <__aeabi_ul2d>:
    52c4:	ea50 0201 	orrs.w	r2, r0, r1
    52c8:	bf08      	it	eq
    52ca:	4770      	bxeq	lr
    52cc:	b530      	push	{r4, r5, lr}
    52ce:	f04f 0500 	mov.w	r5, #0
    52d2:	e00a      	b.n	52ea <__aeabi_l2d+0x16>

000052d4 <__aeabi_l2d>:
    52d4:	ea50 0201 	orrs.w	r2, r0, r1
    52d8:	bf08      	it	eq
    52da:	4770      	bxeq	lr
    52dc:	b530      	push	{r4, r5, lr}
    52de:	f011 4500 	ands.w	r5, r1, #2147483648	; 0x80000000
    52e2:	d502      	bpl.n	52ea <__aeabi_l2d+0x16>
    52e4:	4240      	negs	r0, r0
    52e6:	eb61 0141 	sbc.w	r1, r1, r1, lsl #1
    52ea:	f44f 6480 	mov.w	r4, #1024	; 0x400
    52ee:	f104 0432 	add.w	r4, r4, #50	; 0x32
    52f2:	ea5f 5c91 	movs.w	ip, r1, lsr #22
    52f6:	f43f aedc 	beq.w	50b2 <__adddf3+0xe6>
    52fa:	f04f 0203 	mov.w	r2, #3
    52fe:	ea5f 0cdc 	movs.w	ip, ip, lsr #3
    5302:	bf18      	it	ne
    5304:	3203      	addne	r2, #3
    5306:	ea5f 0cdc 	movs.w	ip, ip, lsr #3
    530a:	bf18      	it	ne
    530c:	3203      	addne	r2, #3
    530e:	eb02 02dc 	add.w	r2, r2, ip, lsr #3
    5312:	f1c2 0320 	rsb	r3, r2, #32
    5316:	fa00 fc03 	lsl.w	ip, r0, r3
    531a:	fa20 f002 	lsr.w	r0, r0, r2
    531e:	fa01 fe03 	lsl.w	lr, r1, r3
    5322:	ea40 000e 	orr.w	r0, r0, lr
    5326:	fa21 f102 	lsr.w	r1, r1, r2
    532a:	4414      	add	r4, r2
    532c:	e6c1      	b.n	50b2 <__adddf3+0xe6>
    532e:	bf00      	nop

00005330 <__aeabi_dmul>:
    5330:	b570      	push	{r4, r5, r6, lr}
    5332:	f04f 0cff 	mov.w	ip, #255	; 0xff
    5336:	f44c 6ce0 	orr.w	ip, ip, #1792	; 0x700
    533a:	ea1c 5411 	ands.w	r4, ip, r1, lsr #20
    533e:	bf1d      	ittte	ne
    5340:	ea1c 5513 	andsne.w	r5, ip, r3, lsr #20
    5344:	ea94 0f0c 	teqne	r4, ip
    5348:	ea95 0f0c 	teqne	r5, ip
    534c:	f000 f8de 	bleq	550c <__aeabi_dmul+0x1dc>
    5350:	442c      	add	r4, r5
    5352:	ea81 0603 	eor.w	r6, r1, r3
    5356:	ea21 514c 	bic.w	r1, r1, ip, lsl #21
    535a:	ea23 534c 	bic.w	r3, r3, ip, lsl #21
    535e:	ea50 3501 	orrs.w	r5, r0, r1, lsl #12
    5362:	bf18      	it	ne
    5364:	ea52 3503 	orrsne.w	r5, r2, r3, lsl #12
    5368:	f441 1180 	orr.w	r1, r1, #1048576	; 0x100000
    536c:	f443 1380 	orr.w	r3, r3, #1048576	; 0x100000
    5370:	d038      	beq.n	53e4 <__aeabi_dmul+0xb4>
    5372:	fba0 ce02 	umull	ip, lr, r0, r2
    5376:	f04f 0500 	mov.w	r5, #0
    537a:	fbe1 e502 	umlal	lr, r5, r1, r2
    537e:	f006 4200 	and.w	r2, r6, #2147483648	; 0x80000000
    5382:	fbe0 e503 	umlal	lr, r5, r0, r3
    5386:	f04f 0600 	mov.w	r6, #0
    538a:	fbe1 5603 	umlal	r5, r6, r1, r3
    538e:	f09c 0f00 	teq	ip, #0
    5392:	bf18      	it	ne
    5394:	f04e 0e01 	orrne.w	lr, lr, #1
    5398:	f1a4 04ff 	sub.w	r4, r4, #255	; 0xff
    539c:	f5b6 7f00 	cmp.w	r6, #512	; 0x200
    53a0:	f564 7440 	sbc.w	r4, r4, #768	; 0x300
    53a4:	d204      	bcs.n	53b0 <__aeabi_dmul+0x80>
    53a6:	ea5f 0e4e 	movs.w	lr, lr, lsl #1
    53aa:	416d      	adcs	r5, r5
    53ac:	eb46 0606 	adc.w	r6, r6, r6
    53b0:	ea42 21c6 	orr.w	r1, r2, r6, lsl #11
    53b4:	ea41 5155 	orr.w	r1, r1, r5, lsr #21
    53b8:	ea4f 20c5 	mov.w	r0, r5, lsl #11
    53bc:	ea40 505e 	orr.w	r0, r0, lr, lsr #21
    53c0:	ea4f 2ece 	mov.w	lr, lr, lsl #11
    53c4:	f1b4 0cfd 	subs.w	ip, r4, #253	; 0xfd
    53c8:	bf88      	it	hi
    53ca:	f5bc 6fe0 	cmphi.w	ip, #1792	; 0x700
    53ce:	d81e      	bhi.n	540e <__aeabi_dmul+0xde>
    53d0:	f1be 4f00 	cmp.w	lr, #2147483648	; 0x80000000
    53d4:	bf08      	it	eq
    53d6:	ea5f 0e50 	movseq.w	lr, r0, lsr #1
    53da:	f150 0000 	adcs.w	r0, r0, #0
    53de:	eb41 5104 	adc.w	r1, r1, r4, lsl #20
    53e2:	bd70      	pop	{r4, r5, r6, pc}
    53e4:	f006 4600 	and.w	r6, r6, #2147483648	; 0x80000000
    53e8:	ea46 0101 	orr.w	r1, r6, r1
    53ec:	ea40 0002 	orr.w	r0, r0, r2
    53f0:	ea81 0103 	eor.w	r1, r1, r3
    53f4:	ebb4 045c 	subs.w	r4, r4, ip, lsr #1
    53f8:	bfc2      	ittt	gt
    53fa:	ebd4 050c 	rsbsgt	r5, r4, ip
    53fe:	ea41 5104 	orrgt.w	r1, r1, r4, lsl #20
    5402:	bd70      	popgt	{r4, r5, r6, pc}
    5404:	f441 1180 	orr.w	r1, r1, #1048576	; 0x100000
    5408:	f04f 0e00 	mov.w	lr, #0
    540c:	3c01      	subs	r4, #1
    540e:	f300 80ab 	bgt.w	5568 <__aeabi_dmul+0x238>
    5412:	f114 0f36 	cmn.w	r4, #54	; 0x36
    5416:	bfde      	ittt	le
    5418:	2000      	movle	r0, #0
    541a:	f001 4100 	andle.w	r1, r1, #2147483648	; 0x80000000
    541e:	bd70      	pople	{r4, r5, r6, pc}
    5420:	f1c4 0400 	rsb	r4, r4, #0
    5424:	3c20      	subs	r4, #32
    5426:	da35      	bge.n	5494 <__aeabi_dmul+0x164>
    5428:	340c      	adds	r4, #12
    542a:	dc1b      	bgt.n	5464 <__aeabi_dmul+0x134>
    542c:	f104 0414 	add.w	r4, r4, #20
    5430:	f1c4 0520 	rsb	r5, r4, #32
    5434:	fa00 f305 	lsl.w	r3, r0, r5
    5438:	fa20 f004 	lsr.w	r0, r0, r4
    543c:	fa01 f205 	lsl.w	r2, r1, r5
    5440:	ea40 0002 	orr.w	r0, r0, r2
    5444:	f001 4200 	and.w	r2, r1, #2147483648	; 0x80000000
    5448:	f021 4100 	bic.w	r1, r1, #2147483648	; 0x80000000
    544c:	eb10 70d3 	adds.w	r0, r0, r3, lsr #31
    5450:	fa21 f604 	lsr.w	r6, r1, r4
    5454:	eb42 0106 	adc.w	r1, r2, r6
    5458:	ea5e 0e43 	orrs.w	lr, lr, r3, lsl #1
    545c:	bf08      	it	eq
    545e:	ea20 70d3 	biceq.w	r0, r0, r3, lsr #31
    5462:	bd70      	pop	{r4, r5, r6, pc}
    5464:	f1c4 040c 	rsb	r4, r4, #12
    5468:	f1c4 0520 	rsb	r5, r4, #32
    546c:	fa00 f304 	lsl.w	r3, r0, r4
    5470:	fa20 f005 	lsr.w	r0, r0, r5
    5474:	fa01 f204 	lsl.w	r2, r1, r4
    5478:	ea40 0002 	orr.w	r0, r0, r2
    547c:	f001 4100 	and.w	r1, r1, #2147483648	; 0x80000000
    5480:	eb10 70d3 	adds.w	r0, r0, r3, lsr #31
    5484:	f141 0100 	adc.w	r1, r1, #0
    5488:	ea5e 0e43 	orrs.w	lr, lr, r3, lsl #1
    548c:	bf08      	it	eq
    548e:	ea20 70d3 	biceq.w	r0, r0, r3, lsr #31
    5492:	bd70      	pop	{r4, r5, r6, pc}
    5494:	f1c4 0520 	rsb	r5, r4, #32
    5498:	fa00 f205 	lsl.w	r2, r0, r5
    549c:	ea4e 0e02 	orr.w	lr, lr, r2
    54a0:	fa20 f304 	lsr.w	r3, r0, r4
    54a4:	fa01 f205 	lsl.w	r2, r1, r5
    54a8:	ea43 0302 	orr.w	r3, r3, r2
    54ac:	fa21 f004 	lsr.w	r0, r1, r4
    54b0:	f001 4100 	and.w	r1, r1, #2147483648	; 0x80000000
    54b4:	fa21 f204 	lsr.w	r2, r1, r4
    54b8:	ea20 0002 	bic.w	r0, r0, r2
    54bc:	eb00 70d3 	add.w	r0, r0, r3, lsr #31
    54c0:	ea5e 0e43 	orrs.w	lr, lr, r3, lsl #1
    54c4:	bf08      	it	eq
    54c6:	ea20 70d3 	biceq.w	r0, r0, r3, lsr #31
    54ca:	bd70      	pop	{r4, r5, r6, pc}
    54cc:	f094 0f00 	teq	r4, #0
    54d0:	d10f      	bne.n	54f2 <__aeabi_dmul+0x1c2>
    54d2:	f001 4600 	and.w	r6, r1, #2147483648	; 0x80000000
    54d6:	0040      	lsls	r0, r0, #1
    54d8:	eb41 0101 	adc.w	r1, r1, r1
    54dc:	f411 1f80 	tst.w	r1, #1048576	; 0x100000
    54e0:	bf08      	it	eq
    54e2:	3c01      	subeq	r4, #1
    54e4:	d0f7      	beq.n	54d6 <__aeabi_dmul+0x1a6>
    54e6:	ea41 0106 	orr.w	r1, r1, r6
    54ea:	f095 0f00 	teq	r5, #0
    54ee:	bf18      	it	ne
    54f0:	4770      	bxne	lr
    54f2:	f003 4600 	and.w	r6, r3, #2147483648	; 0x80000000
    54f6:	0052      	lsls	r2, r2, #1
    54f8:	eb43 0303 	adc.w	r3, r3, r3
    54fc:	f413 1f80 	tst.w	r3, #1048576	; 0x100000
    5500:	bf08      	it	eq
    5502:	3d01      	subeq	r5, #1
    5504:	d0f7      	beq.n	54f6 <__aeabi_dmul+0x1c6>
    5506:	ea43 0306 	orr.w	r3, r3, r6
    550a:	4770      	bx	lr
    550c:	ea94 0f0c 	teq	r4, ip
    5510:	ea0c 5513 	and.w	r5, ip, r3, lsr #20
    5514:	bf18      	it	ne
    5516:	ea95 0f0c 	teqne	r5, ip
    551a:	d00c      	beq.n	5536 <__aeabi_dmul+0x206>
    551c:	ea50 0641 	orrs.w	r6, r0, r1, lsl #1
    5520:	bf18      	it	ne
    5522:	ea52 0643 	orrsne.w	r6, r2, r3, lsl #1
    5526:	d1d1      	bne.n	54cc <__aeabi_dmul+0x19c>
    5528:	ea81 0103 	eor.w	r1, r1, r3
    552c:	f001 4100 	and.w	r1, r1, #2147483648	; 0x80000000
    5530:	f04f 0000 	mov.w	r0, #0
    5534:	bd70      	pop	{r4, r5, r6, pc}
    5536:	ea50 0641 	orrs.w	r6, r0, r1, lsl #1
    553a:	bf06      	itte	eq
    553c:	4610      	moveq	r0, r2
    553e:	4619      	moveq	r1, r3
    5540:	ea52 0643 	orrsne.w	r6, r2, r3, lsl #1
    5544:	d019      	beq.n	557a <__aeabi_dmul+0x24a>
    5546:	ea94 0f0c 	teq	r4, ip
    554a:	d102      	bne.n	5552 <__aeabi_dmul+0x222>
    554c:	ea50 3601 	orrs.w	r6, r0, r1, lsl #12
    5550:	d113      	bne.n	557a <__aeabi_dmul+0x24a>
    5552:	ea95 0f0c 	teq	r5, ip
    5556:	d105      	bne.n	5564 <__aeabi_dmul+0x234>
    5558:	ea52 3603 	orrs.w	r6, r2, r3, lsl #12
    555c:	bf1c      	itt	ne
    555e:	4610      	movne	r0, r2
    5560:	4619      	movne	r1, r3
    5562:	d10a      	bne.n	557a <__aeabi_dmul+0x24a>
    5564:	ea81 0103 	eor.w	r1, r1, r3
    5568:	f001 4100 	and.w	r1, r1, #2147483648	; 0x80000000
    556c:	f041 41fe 	orr.w	r1, r1, #2130706432	; 0x7f000000
    5570:	f441 0170 	orr.w	r1, r1, #15728640	; 0xf00000
    5574:	f04f 0000 	mov.w	r0, #0
    5578:	bd70      	pop	{r4, r5, r6, pc}
    557a:	f041 41fe 	orr.w	r1, r1, #2130706432	; 0x7f000000
    557e:	f441 0178 	orr.w	r1, r1, #16252928	; 0xf80000
    5582:	bd70      	pop	{r4, r5, r6, pc}

00005584 <__aeabi_ddiv>:
    5584:	b570      	push	{r4, r5, r6, lr}
    5586:	f04f 0cff 	mov.w	ip, #255	; 0xff
    558a:	f44c 6ce0 	orr.w	ip, ip, #1792	; 0x700
    558e:	ea1c 5411 	ands.w	r4, ip, r1, lsr #20
    5592:	bf1d      	ittte	ne
    5594:	ea1c 5513 	andsne.w	r5, ip, r3, lsr #20
    5598:	ea94 0f0c 	teqne	r4, ip
    559c:	ea95 0f0c 	teqne	r5, ip
    55a0:	f000 f8a7 	bleq	56f2 <__aeabi_ddiv+0x16e>
    55a4:	eba4 0405 	sub.w	r4, r4, r5
    55a8:	ea81 0e03 	eor.w	lr, r1, r3
    55ac:	ea52 3503 	orrs.w	r5, r2, r3, lsl #12
    55b0:	ea4f 3101 	mov.w	r1, r1, lsl #12
    55b4:	f000 8088 	beq.w	56c8 <__aeabi_ddiv+0x144>
    55b8:	ea4f 3303 	mov.w	r3, r3, lsl #12
    55bc:	f04f 5580 	mov.w	r5, #268435456	; 0x10000000
    55c0:	ea45 1313 	orr.w	r3, r5, r3, lsr #4
    55c4:	ea43 6312 	orr.w	r3, r3, r2, lsr #24
    55c8:	ea4f 2202 	mov.w	r2, r2, lsl #8
    55cc:	ea45 1511 	orr.w	r5, r5, r1, lsr #4
    55d0:	ea45 6510 	orr.w	r5, r5, r0, lsr #24
    55d4:	ea4f 2600 	mov.w	r6, r0, lsl #8
    55d8:	f00e 4100 	and.w	r1, lr, #2147483648	; 0x80000000
    55dc:	429d      	cmp	r5, r3
    55de:	bf08      	it	eq
    55e0:	4296      	cmpeq	r6, r2
    55e2:	f144 04fd 	adc.w	r4, r4, #253	; 0xfd
    55e6:	f504 7440 	add.w	r4, r4, #768	; 0x300
    55ea:	d202      	bcs.n	55f2 <__aeabi_ddiv+0x6e>
    55ec:	085b      	lsrs	r3, r3, #1
    55ee:	ea4f 0232 	mov.w	r2, r2, rrx
    55f2:	1ab6      	subs	r6, r6, r2
    55f4:	eb65 0503 	sbc.w	r5, r5, r3
    55f8:	085b      	lsrs	r3, r3, #1
    55fa:	ea4f 0232 	mov.w	r2, r2, rrx
    55fe:	f44f 1080 	mov.w	r0, #1048576	; 0x100000
    5602:	f44f 2c00 	mov.w	ip, #524288	; 0x80000
    5606:	ebb6 0e02 	subs.w	lr, r6, r2
    560a:	eb75 0e03 	sbcs.w	lr, r5, r3
    560e:	bf22      	ittt	cs
    5610:	1ab6      	subcs	r6, r6, r2
    5612:	4675      	movcs	r5, lr
    5614:	ea40 000c 	orrcs.w	r0, r0, ip
    5618:	085b      	lsrs	r3, r3, #1
    561a:	ea4f 0232 	mov.w	r2, r2, rrx
    561e:	ebb6 0e02 	subs.w	lr, r6, r2
    5622:	eb75 0e03 	sbcs.w	lr, r5, r3
    5626:	bf22      	ittt	cs
    5628:	1ab6      	subcs	r6, r6, r2
    562a:	4675      	movcs	r5, lr
    562c:	ea40 005c 	orrcs.w	r0, r0, ip, lsr #1
    5630:	085b      	lsrs	r3, r3, #1
    5632:	ea4f 0232 	mov.w	r2, r2, rrx
    5636:	ebb6 0e02 	subs.w	lr, r6, r2
    563a:	eb75 0e03 	sbcs.w	lr, r5, r3
    563e:	bf22      	ittt	cs
    5640:	1ab6      	subcs	r6, r6, r2
    5642:	4675      	movcs	r5, lr
    5644:	ea40 009c 	orrcs.w	r0, r0, ip, lsr #2
    5648:	085b      	lsrs	r3, r3, #1
    564a:	ea4f 0232 	mov.w	r2, r2, rrx
    564e:	ebb6 0e02 	subs.w	lr, r6, r2
    5652:	eb75 0e03 	sbcs.w	lr, r5, r3
    5656:	bf22      	ittt	cs
    5658:	1ab6      	subcs	r6, r6, r2
    565a:	4675      	movcs	r5, lr
    565c:	ea40 00dc 	orrcs.w	r0, r0, ip, lsr #3
    5660:	ea55 0e06 	orrs.w	lr, r5, r6
    5664:	d018      	beq.n	5698 <__aeabi_ddiv+0x114>
    5666:	ea4f 1505 	mov.w	r5, r5, lsl #4
    566a:	ea45 7516 	orr.w	r5, r5, r6, lsr #28
    566e:	ea4f 1606 	mov.w	r6, r6, lsl #4
    5672:	ea4f 03c3 	mov.w	r3, r3, lsl #3
    5676:	ea43 7352 	orr.w	r3, r3, r2, lsr #29
    567a:	ea4f 02c2 	mov.w	r2, r2, lsl #3
    567e:	ea5f 1c1c 	movs.w	ip, ip, lsr #4
    5682:	d1c0      	bne.n	5606 <__aeabi_ddiv+0x82>
    5684:	f411 1f80 	tst.w	r1, #1048576	; 0x100000
    5688:	d10b      	bne.n	56a2 <__aeabi_ddiv+0x11e>
    568a:	ea41 0100 	orr.w	r1, r1, r0
    568e:	f04f 0000 	mov.w	r0, #0
    5692:	f04f 4c00 	mov.w	ip, #2147483648	; 0x80000000
    5696:	e7b6      	b.n	5606 <__aeabi_ddiv+0x82>
    5698:	f411 1f80 	tst.w	r1, #1048576	; 0x100000
    569c:	bf04      	itt	eq
    569e:	4301      	orreq	r1, r0
    56a0:	2000      	moveq	r0, #0
    56a2:	f1b4 0cfd 	subs.w	ip, r4, #253	; 0xfd
    56a6:	bf88      	it	hi
    56a8:	f5bc 6fe0 	cmphi.w	ip, #1792	; 0x700
    56ac:	f63f aeaf 	bhi.w	540e <__aeabi_dmul+0xde>
    56b0:	ebb5 0c03 	subs.w	ip, r5, r3
    56b4:	bf04      	itt	eq
    56b6:	ebb6 0c02 	subseq.w	ip, r6, r2
    56ba:	ea5f 0c50 	movseq.w	ip, r0, lsr #1
    56be:	f150 0000 	adcs.w	r0, r0, #0
    56c2:	eb41 5104 	adc.w	r1, r1, r4, lsl #20
    56c6:	bd70      	pop	{r4, r5, r6, pc}
    56c8:	f00e 4e00 	and.w	lr, lr, #2147483648	; 0x80000000
    56cc:	ea4e 3111 	orr.w	r1, lr, r1, lsr #12
    56d0:	eb14 045c 	adds.w	r4, r4, ip, lsr #1
    56d4:	bfc2      	ittt	gt
    56d6:	ebd4 050c 	rsbsgt	r5, r4, ip
    56da:	ea41 5104 	orrgt.w	r1, r1, r4, lsl #20
    56de:	bd70      	popgt	{r4, r5, r6, pc}
    56e0:	f441 1180 	orr.w	r1, r1, #1048576	; 0x100000
    56e4:	f04f 0e00 	mov.w	lr, #0
    56e8:	3c01      	subs	r4, #1
    56ea:	e690      	b.n	540e <__aeabi_dmul+0xde>
    56ec:	ea45 0e06 	orr.w	lr, r5, r6
    56f0:	e68d      	b.n	540e <__aeabi_dmul+0xde>
    56f2:	ea0c 5513 	and.w	r5, ip, r3, lsr #20
    56f6:	ea94 0f0c 	teq	r4, ip
    56fa:	bf08      	it	eq
    56fc:	ea95 0f0c 	teqeq	r5, ip
    5700:	f43f af3b 	beq.w	557a <__aeabi_dmul+0x24a>
    5704:	ea94 0f0c 	teq	r4, ip
    5708:	d10a      	bne.n	5720 <__aeabi_ddiv+0x19c>
    570a:	ea50 3401 	orrs.w	r4, r0, r1, lsl #12
    570e:	f47f af34 	bne.w	557a <__aeabi_dmul+0x24a>
    5712:	ea95 0f0c 	teq	r5, ip
    5716:	f47f af25 	bne.w	5564 <__aeabi_dmul+0x234>
    571a:	4610      	mov	r0, r2
    571c:	4619      	mov	r1, r3
    571e:	e72c      	b.n	557a <__aeabi_dmul+0x24a>
    5720:	ea95 0f0c 	teq	r5, ip
    5724:	d106      	bne.n	5734 <__aeabi_ddiv+0x1b0>
    5726:	ea52 3503 	orrs.w	r5, r2, r3, lsl #12
    572a:	f43f aefd 	beq.w	5528 <__aeabi_dmul+0x1f8>
    572e:	4610      	mov	r0, r2
    5730:	4619      	mov	r1, r3
    5732:	e722      	b.n	557a <__aeabi_dmul+0x24a>
    5734:	ea50 0641 	orrs.w	r6, r0, r1, lsl #1
    5738:	bf18      	it	ne
    573a:	ea52 0643 	orrsne.w	r6, r2, r3, lsl #1
    573e:	f47f aec5 	bne.w	54cc <__aeabi_dmul+0x19c>
    5742:	ea50 0441 	orrs.w	r4, r0, r1, lsl #1
    5746:	f47f af0d 	bne.w	5564 <__aeabi_dmul+0x234>
    574a:	ea52 0543 	orrs.w	r5, r2, r3, lsl #1
    574e:	f47f aeeb 	bne.w	5528 <__aeabi_dmul+0x1f8>
    5752:	e712      	b.n	557a <__aeabi_dmul+0x24a>

00005754 <__gedf2>:
    5754:	f04f 3cff 	mov.w	ip, #4294967295
    5758:	e006      	b.n	5768 <__cmpdf2+0x4>
    575a:	bf00      	nop

0000575c <__ledf2>:
    575c:	f04f 0c01 	mov.w	ip, #1
    5760:	e002      	b.n	5768 <__cmpdf2+0x4>
    5762:	bf00      	nop

00005764 <__cmpdf2>:
    5764:	f04f 0c01 	mov.w	ip, #1
    5768:	f84d cd04 	str.w	ip, [sp, #-4]!
    576c:	ea4f 0c41 	mov.w	ip, r1, lsl #1
    5770:	ea7f 5c6c 	mvns.w	ip, ip, asr #21
    5774:	ea4f 0c43 	mov.w	ip, r3, lsl #1
    5778:	bf18      	it	ne
    577a:	ea7f 5c6c 	mvnsne.w	ip, ip, asr #21
    577e:	d01b      	beq.n	57b8 <__cmpdf2+0x54>
    5780:	b001      	add	sp, #4
    5782:	ea50 0c41 	orrs.w	ip, r0, r1, lsl #1
    5786:	bf0c      	ite	eq
    5788:	ea52 0c43 	orrseq.w	ip, r2, r3, lsl #1
    578c:	ea91 0f03 	teqne	r1, r3
    5790:	bf02      	ittt	eq
    5792:	ea90 0f02 	teqeq	r0, r2
    5796:	2000      	moveq	r0, #0
    5798:	4770      	bxeq	lr
    579a:	f110 0f00 	cmn.w	r0, #0
    579e:	ea91 0f03 	teq	r1, r3
    57a2:	bf58      	it	pl
    57a4:	4299      	cmppl	r1, r3
    57a6:	bf08      	it	eq
    57a8:	4290      	cmpeq	r0, r2
    57aa:	bf2c      	ite	cs
    57ac:	17d8      	asrcs	r0, r3, #31
    57ae:	ea6f 70e3 	mvncc.w	r0, r3, asr #31
    57b2:	f040 0001 	orr.w	r0, r0, #1
    57b6:	4770      	bx	lr
    57b8:	ea4f 0c41 	mov.w	ip, r1, lsl #1
    57bc:	ea7f 5c6c 	mvns.w	ip, ip, asr #21
    57c0:	d102      	bne.n	57c8 <__cmpdf2+0x64>
    57c2:	ea50 3c01 	orrs.w	ip, r0, r1, lsl #12
    57c6:	d107      	bne.n	57d8 <__cmpdf2+0x74>
    57c8:	ea4f 0c43 	mov.w	ip, r3, lsl #1
    57cc:	ea7f 5c6c 	mvns.w	ip, ip, asr #21
    57d0:	d1d6      	bne.n	5780 <__cmpdf2+0x1c>
    57d2:	ea52 3c03 	orrs.w	ip, r2, r3, lsl #12
    57d6:	d0d3      	beq.n	5780 <__cmpdf2+0x1c>
    57d8:	f85d 0b04 	ldr.w	r0, [sp], #4
    57dc:	4770      	bx	lr
    57de:	bf00      	nop

000057e0 <__aeabi_cdrcmple>:
    57e0:	4684      	mov	ip, r0
    57e2:	4610      	mov	r0, r2
    57e4:	4662      	mov	r2, ip
    57e6:	468c      	mov	ip, r1
    57e8:	4619      	mov	r1, r3
    57ea:	4663      	mov	r3, ip
    57ec:	e000      	b.n	57f0 <__aeabi_cdcmpeq>
    57ee:	bf00      	nop

000057f0 <__aeabi_cdcmpeq>:
    57f0:	b501      	push	{r0, lr}
    57f2:	f7ff ffb7 	bl	5764 <__cmpdf2>
    57f6:	2800      	cmp	r0, #0
    57f8:	bf48      	it	mi
    57fa:	f110 0f00 	cmnmi.w	r0, #0
    57fe:	bd01      	pop	{r0, pc}

00005800 <__aeabi_dcmpeq>:
    5800:	f84d ed08 	str.w	lr, [sp, #-8]!
    5804:	f7ff fff4 	bl	57f0 <__aeabi_cdcmpeq>
    5808:	bf0c      	ite	eq
    580a:	2001      	moveq	r0, #1
    580c:	2000      	movne	r0, #0
    580e:	f85d fb08 	ldr.w	pc, [sp], #8
    5812:	bf00      	nop

00005814 <__aeabi_dcmplt>:
    5814:	f84d ed08 	str.w	lr, [sp, #-8]!
    5818:	f7ff ffea 	bl	57f0 <__aeabi_cdcmpeq>
    581c:	bf34      	ite	cc
    581e:	2001      	movcc	r0, #1
    5820:	2000      	movcs	r0, #0
    5822:	f85d fb08 	ldr.w	pc, [sp], #8
    5826:	bf00      	nop

00005828 <__aeabi_dcmple>:
    5828:	f84d ed08 	str.w	lr, [sp, #-8]!
    582c:	f7ff ffe0 	bl	57f0 <__aeabi_cdcmpeq>
    5830:	bf94      	ite	ls
    5832:	2001      	movls	r0, #1
    5834:	2000      	movhi	r0, #0
    5836:	f85d fb08 	ldr.w	pc, [sp], #8
    583a:	bf00      	nop

0000583c <__aeabi_dcmpge>:
    583c:	f84d ed08 	str.w	lr, [sp, #-8]!
    5840:	f7ff ffce 	bl	57e0 <__aeabi_cdrcmple>
    5844:	bf94      	ite	ls
    5846:	2001      	movls	r0, #1
    5848:	2000      	movhi	r0, #0
    584a:	f85d fb08 	ldr.w	pc, [sp], #8
    584e:	bf00      	nop

00005850 <__aeabi_dcmpgt>:
    5850:	f84d ed08 	str.w	lr, [sp, #-8]!
    5854:	f7ff ffc4 	bl	57e0 <__aeabi_cdrcmple>
    5858:	bf34      	ite	cc
    585a:	2001      	movcc	r0, #1
    585c:	2000      	movcs	r0, #0
    585e:	f85d fb08 	ldr.w	pc, [sp], #8
    5862:	bf00      	nop

00005864 <__aeabi_dcmpun>:
    5864:	ea4f 0c41 	mov.w	ip, r1, lsl #1
    5868:	ea7f 5c6c 	mvns.w	ip, ip, asr #21
    586c:	d102      	bne.n	5874 <__aeabi_dcmpun+0x10>
    586e:	ea50 3c01 	orrs.w	ip, r0, r1, lsl #12
    5872:	d10a      	bne.n	588a <__aeabi_dcmpun+0x26>
    5874:	ea4f 0c43 	mov.w	ip, r3, lsl #1
    5878:	ea7f 5c6c 	mvns.w	ip, ip, asr #21
    587c:	d102      	bne.n	5884 <__aeabi_dcmpun+0x20>
    587e:	ea52 3c03 	orrs.w	ip, r2, r3, lsl #12
    5882:	d102      	bne.n	588a <__aeabi_dcmpun+0x26>
    5884:	f04f 0000 	mov.w	r0, #0
    5888:	4770      	bx	lr
    588a:	f04f 0001 	mov.w	r0, #1
    588e:	4770      	bx	lr

00005890 <__aeabi_d2iz>:
    5890:	ea4f 0241 	mov.w	r2, r1, lsl #1
    5894:	f512 1200 	adds.w	r2, r2, #2097152	; 0x200000
    5898:	d215      	bcs.n	58c6 <__aeabi_d2iz+0x36>
    589a:	d511      	bpl.n	58c0 <__aeabi_d2iz+0x30>
    589c:	f46f 7378 	mvn.w	r3, #992	; 0x3e0
    58a0:	ebb3 5262 	subs.w	r2, r3, r2, asr #21
    58a4:	d912      	bls.n	58cc <__aeabi_d2iz+0x3c>
    58a6:	ea4f 23c1 	mov.w	r3, r1, lsl #11
    58aa:	f043 4300 	orr.w	r3, r3, #2147483648	; 0x80000000
    58ae:	ea43 5350 	orr.w	r3, r3, r0, lsr #21
    58b2:	f011 4f00 	tst.w	r1, #2147483648	; 0x80000000
    58b6:	fa23 f002 	lsr.w	r0, r3, r2
    58ba:	bf18      	it	ne
    58bc:	4240      	negne	r0, r0
    58be:	4770      	bx	lr
    58c0:	f04f 0000 	mov.w	r0, #0
    58c4:	4770      	bx	lr
    58c6:	ea50 3001 	orrs.w	r0, r0, r1, lsl #12
    58ca:	d105      	bne.n	58d8 <__aeabi_d2iz+0x48>
    58cc:	f011 4000 	ands.w	r0, r1, #2147483648	; 0x80000000
    58d0:	bf08      	it	eq
    58d2:	f06f 4000 	mvneq.w	r0, #2147483648	; 0x80000000
    58d6:	4770      	bx	lr
    58d8:	f04f 0000 	mov.w	r0, #0
    58dc:	4770      	bx	lr
    58de:	bf00      	nop

000058e0 <__aeabi_uldivmod>:
    58e0:	b953      	cbnz	r3, 58f8 <__aeabi_uldivmod+0x18>
    58e2:	b94a      	cbnz	r2, 58f8 <__aeabi_uldivmod+0x18>
    58e4:	2900      	cmp	r1, #0
    58e6:	bf08      	it	eq
    58e8:	2800      	cmpeq	r0, #0
    58ea:	bf1c      	itt	ne
    58ec:	f04f 31ff 	movne.w	r1, #4294967295
    58f0:	f04f 30ff 	movne.w	r0, #4294967295
    58f4:	f000 b97a 	b.w	5bec <__aeabi_idiv0>
    58f8:	f1ad 0c08 	sub.w	ip, sp, #8
    58fc:	e96d ce04 	strd	ip, lr, [sp, #-16]!
    5900:	f000 f806 	bl	5910 <__udivmoddi4>
    5904:	f8dd e004 	ldr.w	lr, [sp, #4]
    5908:	e9dd 2302 	ldrd	r2, r3, [sp, #8]
    590c:	b004      	add	sp, #16
    590e:	4770      	bx	lr

00005910 <__udivmoddi4>:
    5910:	e92d 47f0 	stmdb	sp!, {r4, r5, r6, r7, r8, r9, sl, lr}
    5914:	468c      	mov	ip, r1
    5916:	460d      	mov	r5, r1
    5918:	4604      	mov	r4, r0
    591a:	9e08      	ldr	r6, [sp, #32]
    591c:	2b00      	cmp	r3, #0
    591e:	d151      	bne.n	59c4 <__udivmoddi4+0xb4>
    5920:	428a      	cmp	r2, r1
    5922:	4617      	mov	r7, r2
    5924:	d96d      	bls.n	5a02 <__udivmoddi4+0xf2>
    5926:	fab2 fe82 	clz	lr, r2
    592a:	f1be 0f00 	cmp.w	lr, #0
    592e:	d00b      	beq.n	5948 <__udivmoddi4+0x38>
    5930:	f1ce 0c20 	rsb	ip, lr, #32
    5934:	fa01 f50e 	lsl.w	r5, r1, lr
    5938:	fa20 fc0c 	lsr.w	ip, r0, ip
    593c:	fa02 f70e 	lsl.w	r7, r2, lr
    5940:	ea4c 0c05 	orr.w	ip, ip, r5
    5944:	fa00 f40e 	lsl.w	r4, r0, lr
    5948:	ea4f 4a17 	mov.w	sl, r7, lsr #16
    594c:	0c25      	lsrs	r5, r4, #16
    594e:	fbbc f8fa 	udiv	r8, ip, sl
    5952:	fa1f f987 	uxth.w	r9, r7
    5956:	fb0a cc18 	mls	ip, sl, r8, ip
    595a:	ea45 450c 	orr.w	r5, r5, ip, lsl #16
    595e:	fb08 f309 	mul.w	r3, r8, r9
    5962:	42ab      	cmp	r3, r5
    5964:	d90a      	bls.n	597c <__udivmoddi4+0x6c>
    5966:	19ed      	adds	r5, r5, r7
    5968:	f108 32ff 	add.w	r2, r8, #4294967295
    596c:	f080 8123 	bcs.w	5bb6 <__udivmoddi4+0x2a6>
    5970:	42ab      	cmp	r3, r5
    5972:	f240 8120 	bls.w	5bb6 <__udivmoddi4+0x2a6>
    5976:	f1a8 0802 	sub.w	r8, r8, #2
    597a:	443d      	add	r5, r7
    597c:	1aed      	subs	r5, r5, r3
    597e:	b2a4      	uxth	r4, r4
    5980:	fbb5 f0fa 	udiv	r0, r5, sl
    5984:	fb0a 5510 	mls	r5, sl, r0, r5
    5988:	ea44 4405 	orr.w	r4, r4, r5, lsl #16
    598c:	fb00 f909 	mul.w	r9, r0, r9
    5990:	45a1      	cmp	r9, r4
    5992:	d909      	bls.n	59a8 <__udivmoddi4+0x98>
    5994:	19e4      	adds	r4, r4, r7
    5996:	f100 33ff 	add.w	r3, r0, #4294967295
    599a:	f080 810a 	bcs.w	5bb2 <__udivmoddi4+0x2a2>
    599e:	45a1      	cmp	r9, r4
    59a0:	f240 8107 	bls.w	5bb2 <__udivmoddi4+0x2a2>
    59a4:	3802      	subs	r0, #2
    59a6:	443c      	add	r4, r7
    59a8:	eba4 0409 	sub.w	r4, r4, r9
    59ac:	ea40 4008 	orr.w	r0, r0, r8, lsl #16
    59b0:	2100      	movs	r1, #0
    59b2:	2e00      	cmp	r6, #0
    59b4:	d061      	beq.n	5a7a <__udivmoddi4+0x16a>
    59b6:	fa24 f40e 	lsr.w	r4, r4, lr
    59ba:	2300      	movs	r3, #0
    59bc:	6034      	str	r4, [r6, #0]
    59be:	6073      	str	r3, [r6, #4]
    59c0:	e8bd 87f0 	ldmia.w	sp!, {r4, r5, r6, r7, r8, r9, sl, pc}
    59c4:	428b      	cmp	r3, r1
    59c6:	d907      	bls.n	59d8 <__udivmoddi4+0xc8>
    59c8:	2e00      	cmp	r6, #0
    59ca:	d054      	beq.n	5a76 <__udivmoddi4+0x166>
    59cc:	2100      	movs	r1, #0
    59ce:	e886 0021 	stmia.w	r6, {r0, r5}
    59d2:	4608      	mov	r0, r1
    59d4:	e8bd 87f0 	ldmia.w	sp!, {r4, r5, r6, r7, r8, r9, sl, pc}
    59d8:	fab3 f183 	clz	r1, r3
    59dc:	2900      	cmp	r1, #0
    59de:	f040 808e 	bne.w	5afe <__udivmoddi4+0x1ee>
    59e2:	42ab      	cmp	r3, r5
    59e4:	d302      	bcc.n	59ec <__udivmoddi4+0xdc>
    59e6:	4282      	cmp	r2, r0
    59e8:	f200 80fa 	bhi.w	5be0 <__udivmoddi4+0x2d0>
    59ec:	1a84      	subs	r4, r0, r2
    59ee:	eb65 0503 	sbc.w	r5, r5, r3
    59f2:	2001      	movs	r0, #1
    59f4:	46ac      	mov	ip, r5
    59f6:	2e00      	cmp	r6, #0
    59f8:	d03f      	beq.n	5a7a <__udivmoddi4+0x16a>
    59fa:	e886 1010 	stmia.w	r6, {r4, ip}
    59fe:	e8bd 87f0 	ldmia.w	sp!, {r4, r5, r6, r7, r8, r9, sl, pc}
    5a02:	b912      	cbnz	r2, 5a0a <__udivmoddi4+0xfa>
    5a04:	2701      	movs	r7, #1
    5a06:	fbb7 f7f2 	udiv	r7, r7, r2
    5a0a:	fab7 fe87 	clz	lr, r7
    5a0e:	f1be 0f00 	cmp.w	lr, #0
    5a12:	d134      	bne.n	5a7e <__udivmoddi4+0x16e>
    5a14:	1beb      	subs	r3, r5, r7
    5a16:	0c3a      	lsrs	r2, r7, #16
    5a18:	fa1f fc87 	uxth.w	ip, r7
    5a1c:	2101      	movs	r1, #1
    5a1e:	fbb3 f8f2 	udiv	r8, r3, r2
    5a22:	0c25      	lsrs	r5, r4, #16
    5a24:	fb02 3318 	mls	r3, r2, r8, r3
    5a28:	ea45 4503 	orr.w	r5, r5, r3, lsl #16
    5a2c:	fb0c f308 	mul.w	r3, ip, r8
    5a30:	42ab      	cmp	r3, r5
    5a32:	d907      	bls.n	5a44 <__udivmoddi4+0x134>
    5a34:	19ed      	adds	r5, r5, r7
    5a36:	f108 30ff 	add.w	r0, r8, #4294967295
    5a3a:	d202      	bcs.n	5a42 <__udivmoddi4+0x132>
    5a3c:	42ab      	cmp	r3, r5
    5a3e:	f200 80d1 	bhi.w	5be4 <__udivmoddi4+0x2d4>
    5a42:	4680      	mov	r8, r0
    5a44:	1aed      	subs	r5, r5, r3
    5a46:	b2a3      	uxth	r3, r4
    5a48:	fbb5 f0f2 	udiv	r0, r5, r2
    5a4c:	fb02 5510 	mls	r5, r2, r0, r5
    5a50:	ea43 4405 	orr.w	r4, r3, r5, lsl #16
    5a54:	fb0c fc00 	mul.w	ip, ip, r0
    5a58:	45a4      	cmp	ip, r4
    5a5a:	d907      	bls.n	5a6c <__udivmoddi4+0x15c>
    5a5c:	19e4      	adds	r4, r4, r7
    5a5e:	f100 33ff 	add.w	r3, r0, #4294967295
    5a62:	d202      	bcs.n	5a6a <__udivmoddi4+0x15a>
    5a64:	45a4      	cmp	ip, r4
    5a66:	f200 80b8 	bhi.w	5bda <__udivmoddi4+0x2ca>
    5a6a:	4618      	mov	r0, r3
    5a6c:	eba4 040c 	sub.w	r4, r4, ip
    5a70:	ea40 4008 	orr.w	r0, r0, r8, lsl #16
    5a74:	e79d      	b.n	59b2 <__udivmoddi4+0xa2>
    5a76:	4631      	mov	r1, r6
    5a78:	4630      	mov	r0, r6
    5a7a:	e8bd 87f0 	ldmia.w	sp!, {r4, r5, r6, r7, r8, r9, sl, pc}
    5a7e:	f1ce 0420 	rsb	r4, lr, #32
    5a82:	fa05 f30e 	lsl.w	r3, r5, lr
    5a86:	fa07 f70e 	lsl.w	r7, r7, lr
    5a8a:	fa20 f804 	lsr.w	r8, r0, r4
    5a8e:	0c3a      	lsrs	r2, r7, #16
    5a90:	fa25 f404 	lsr.w	r4, r5, r4
    5a94:	ea48 0803 	orr.w	r8, r8, r3
    5a98:	fbb4 f1f2 	udiv	r1, r4, r2
    5a9c:	ea4f 4518 	mov.w	r5, r8, lsr #16
    5aa0:	fb02 4411 	mls	r4, r2, r1, r4
    5aa4:	fa1f fc87 	uxth.w	ip, r7
    5aa8:	ea45 4504 	orr.w	r5, r5, r4, lsl #16
    5aac:	fb01 f30c 	mul.w	r3, r1, ip
    5ab0:	42ab      	cmp	r3, r5
    5ab2:	fa00 f40e 	lsl.w	r4, r0, lr
    5ab6:	d909      	bls.n	5acc <__udivmoddi4+0x1bc>
    5ab8:	19ed      	adds	r5, r5, r7
    5aba:	f101 30ff 	add.w	r0, r1, #4294967295
    5abe:	f080 808a 	bcs.w	5bd6 <__udivmoddi4+0x2c6>
    5ac2:	42ab      	cmp	r3, r5
    5ac4:	f240 8087 	bls.w	5bd6 <__udivmoddi4+0x2c6>
    5ac8:	3902      	subs	r1, #2
    5aca:	443d      	add	r5, r7
    5acc:	1aeb      	subs	r3, r5, r3
    5ace:	fa1f f588 	uxth.w	r5, r8
    5ad2:	fbb3 f0f2 	udiv	r0, r3, r2
    5ad6:	fb02 3310 	mls	r3, r2, r0, r3
    5ada:	ea45 4503 	orr.w	r5, r5, r3, lsl #16
    5ade:	fb00 f30c 	mul.w	r3, r0, ip
    5ae2:	42ab      	cmp	r3, r5
    5ae4:	d907      	bls.n	5af6 <__udivmoddi4+0x1e6>
    5ae6:	19ed      	adds	r5, r5, r7
    5ae8:	f100 38ff 	add.w	r8, r0, #4294967295
    5aec:	d26f      	bcs.n	5bce <__udivmoddi4+0x2be>
    5aee:	42ab      	cmp	r3, r5
    5af0:	d96d      	bls.n	5bce <__udivmoddi4+0x2be>
    5af2:	3802      	subs	r0, #2
    5af4:	443d      	add	r5, r7
    5af6:	1aeb      	subs	r3, r5, r3
    5af8:	ea40 4101 	orr.w	r1, r0, r1, lsl #16
    5afc:	e78f      	b.n	5a1e <__udivmoddi4+0x10e>
    5afe:	f1c1 0720 	rsb	r7, r1, #32
    5b02:	fa22 f807 	lsr.w	r8, r2, r7
    5b06:	408b      	lsls	r3, r1
    5b08:	fa05 f401 	lsl.w	r4, r5, r1
    5b0c:	ea48 0303 	orr.w	r3, r8, r3
    5b10:	fa20 fe07 	lsr.w	lr, r0, r7
    5b14:	ea4f 4c13 	mov.w	ip, r3, lsr #16
    5b18:	40fd      	lsrs	r5, r7
    5b1a:	ea4e 0e04 	orr.w	lr, lr, r4
    5b1e:	fbb5 f9fc 	udiv	r9, r5, ip
    5b22:	ea4f 441e 	mov.w	r4, lr, lsr #16
    5b26:	fb0c 5519 	mls	r5, ip, r9, r5
    5b2a:	fa1f f883 	uxth.w	r8, r3
    5b2e:	ea44 4505 	orr.w	r5, r4, r5, lsl #16
    5b32:	fb09 f408 	mul.w	r4, r9, r8
    5b36:	42ac      	cmp	r4, r5
    5b38:	fa02 f201 	lsl.w	r2, r2, r1
    5b3c:	fa00 fa01 	lsl.w	sl, r0, r1
    5b40:	d908      	bls.n	5b54 <__udivmoddi4+0x244>
    5b42:	18ed      	adds	r5, r5, r3
    5b44:	f109 30ff 	add.w	r0, r9, #4294967295
    5b48:	d243      	bcs.n	5bd2 <__udivmoddi4+0x2c2>
    5b4a:	42ac      	cmp	r4, r5
    5b4c:	d941      	bls.n	5bd2 <__udivmoddi4+0x2c2>
    5b4e:	f1a9 0902 	sub.w	r9, r9, #2
    5b52:	441d      	add	r5, r3
    5b54:	1b2d      	subs	r5, r5, r4
    5b56:	fa1f fe8e 	uxth.w	lr, lr
    5b5a:	fbb5 f0fc 	udiv	r0, r5, ip
    5b5e:	fb0c 5510 	mls	r5, ip, r0, r5
    5b62:	ea4e 4405 	orr.w	r4, lr, r5, lsl #16
    5b66:	fb00 f808 	mul.w	r8, r0, r8
    5b6a:	45a0      	cmp	r8, r4
    5b6c:	d907      	bls.n	5b7e <__udivmoddi4+0x26e>
    5b6e:	18e4      	adds	r4, r4, r3
    5b70:	f100 35ff 	add.w	r5, r0, #4294967295
    5b74:	d229      	bcs.n	5bca <__udivmoddi4+0x2ba>
    5b76:	45a0      	cmp	r8, r4
    5b78:	d927      	bls.n	5bca <__udivmoddi4+0x2ba>
    5b7a:	3802      	subs	r0, #2
    5b7c:	441c      	add	r4, r3
    5b7e:	ea40 4009 	orr.w	r0, r0, r9, lsl #16
    5b82:	eba4 0408 	sub.w	r4, r4, r8
    5b86:	fba0 8902 	umull	r8, r9, r0, r2
    5b8a:	454c      	cmp	r4, r9
    5b8c:	46c6      	mov	lr, r8
    5b8e:	464d      	mov	r5, r9
    5b90:	d315      	bcc.n	5bbe <__udivmoddi4+0x2ae>
    5b92:	d012      	beq.n	5bba <__udivmoddi4+0x2aa>
    5b94:	b156      	cbz	r6, 5bac <__udivmoddi4+0x29c>
    5b96:	ebba 030e 	subs.w	r3, sl, lr
    5b9a:	eb64 0405 	sbc.w	r4, r4, r5
    5b9e:	fa04 f707 	lsl.w	r7, r4, r7
    5ba2:	40cb      	lsrs	r3, r1
    5ba4:	431f      	orrs	r7, r3
    5ba6:	40cc      	lsrs	r4, r1
    5ba8:	6037      	str	r7, [r6, #0]
    5baa:	6074      	str	r4, [r6, #4]
    5bac:	2100      	movs	r1, #0
    5bae:	e8bd 87f0 	ldmia.w	sp!, {r4, r5, r6, r7, r8, r9, sl, pc}
    5bb2:	4618      	mov	r0, r3
    5bb4:	e6f8      	b.n	59a8 <__udivmoddi4+0x98>
    5bb6:	4690      	mov	r8, r2
    5bb8:	e6e0      	b.n	597c <__udivmoddi4+0x6c>
    5bba:	45c2      	cmp	sl, r8
    5bbc:	d2ea      	bcs.n	5b94 <__udivmoddi4+0x284>
    5bbe:	ebb8 0e02 	subs.w	lr, r8, r2
    5bc2:	eb69 0503 	sbc.w	r5, r9, r3
    5bc6:	3801      	subs	r0, #1
    5bc8:	e7e4      	b.n	5b94 <__udivmoddi4+0x284>
    5bca:	4628      	mov	r0, r5
    5bcc:	e7d7      	b.n	5b7e <__udivmoddi4+0x26e>
    5bce:	4640      	mov	r0, r8
    5bd0:	e791      	b.n	5af6 <__udivmoddi4+0x1e6>
    5bd2:	4681      	mov	r9, r0
    5bd4:	e7be      	b.n	5b54 <__udivmoddi4+0x244>
    5bd6:	4601      	mov	r1, r0
    5bd8:	e778      	b.n	5acc <__udivmoddi4+0x1bc>
    5bda:	3802      	subs	r0, #2
    5bdc:	443c      	add	r4, r7
    5bde:	e745      	b.n	5a6c <__udivmoddi4+0x15c>
    5be0:	4608      	mov	r0, r1
    5be2:	e708      	b.n	59f6 <__udivmoddi4+0xe6>
    5be4:	f1a8 0802 	sub.w	r8, r8, #2
    5be8:	443d      	add	r5, r7
    5bea:	e72b      	b.n	5a44 <__udivmoddi4+0x134>

00005bec <__aeabi_idiv0>:
    5bec:	4770      	bx	lr
    5bee:	bf00      	nop
    5bf0:	6c6c6568 	.word	0x6c6c6568
    5bf4:	0000006f 	.word	0x0000006f
    5bf8:	73696874 	.word	0x73696874
    5bfc:	726f7720 	.word	0x726f7720
    5c00:	0000736b 	.word	0x0000736b
    5c04:	00006c25 	.word	0x00006c25

00005c08 <_global_impure_ptr>:
    5c08:	20000008 00464e49 00666e69 004e414e     ... INF.inf.NAN.
    5c18:	006e616e 33323130 37363534 42413938     nan.0123456789AB
    5c28:	46454443 00000000 33323130 37363534     CDEF....01234567
    5c38:	62613938 66656463 00000000 6c756e28     89abcdef....(nul
    5c48:	0000296c 00000030                       l)..0...

00005c50 <blanks.7238>:
    5c50:	20202020 20202020 20202020 20202020                     

00005c60 <zeroes.7239>:
    5c60:	30303030 30303030 30303030 30303030     0000000000000000
    5c70:	69666e49 7974696e 00000000 004e614e     Infinity....NaN.

00005c80 <__mprec_bigtens>:
    5c80:	37e08000 4341c379 b5056e17 4693b8b5     ...7y.AC.n.....F
    5c90:	e93ff9f5 4d384f03 f9301d32 5a827748     ..?..O8M2.0.Hw.Z
    5ca0:	7f73bf3c 75154fdd                       <.s..O.u

00005ca8 <__mprec_tens>:
    5ca8:	00000000 3ff00000 00000000 40240000     .......?......$@
    5cb8:	00000000 40590000 00000000 408f4000     ......Y@.....@.@
    5cc8:	00000000 40c38800 00000000 40f86a00     .......@.....j.@
    5cd8:	00000000 412e8480 00000000 416312d0     .......A......cA
    5ce8:	00000000 4197d784 00000000 41cdcd65     .......A....e..A
    5cf8:	20000000 4202a05f e8000000 42374876     ... _..B....vH7B
    5d08:	a2000000 426d1a94 e5400000 42a2309c     ......mB..@..0.B
    5d18:	1e900000 42d6bcc4 26340000 430c6bf5     .......B..4&.k.C
    5d28:	37e08000 4341c379 85d8a000 43763457     ...7y.AC....W4vC
    5d38:	674ec800 43abc16d 60913d00 43e158e4     ..Ngm..C.=.`.X.C
    5d48:	78b58c40 4415af1d d6e2ef50 444b1ae4     @..x...DP.....KD
    5d58:	064dd592 4480f0cf c7e14af6 44b52d02     ..M....D.J...-.D
    5d68:	79d99db4 44ea7843                       ...yCx.D

00005d70 <p05.6055>:
    5d70:	00000005 00000019 0000007d 00000043     ........}...C...
    5d80:	49534f50 00000058 0000002e              POSIX.......

00005d8c <_ctype_>:
    5d8c:	20202000 20202020 28282020 20282828     .         ((((( 
    5d9c:	20202020 20202020 20202020 20202020                     
    5dac:	10108820 10101010 10101010 10101010      ...............
    5dbc:	04040410 04040404 10040404 10101010     ................
    5dcc:	41411010 41414141 01010101 01010101     ..AAAAAA........
    5ddc:	01010101 01010101 01010101 10101010     ................
    5dec:	42421010 42424242 02020202 02020202     ..BBBBBB........
    5dfc:	02020202 02020202 02020202 10101010     ................
    5e0c:	00000020 00000000 00000000 00000000      ...............
	...

00005e90 <_init>:
    5e90:	b5f8      	push	{r3, r4, r5, r6, r7, lr}
    5e92:	bf00      	nop
    5e94:	bcf8      	pop	{r3, r4, r5, r6, r7}
    5e96:	bc08      	pop	{r3}
    5e98:	469e      	mov	lr, r3
    5e9a:	4770      	bx	lr

00005e9c <__init_array_start>:
    5e9c:	00001df1 	.word	0x00001df1

00005ea0 <__frame_dummy_init_array_entry>:
    5ea0:	00000289                                ....

00005ea4 <_fini>:
    5ea4:	b5f8      	push	{r3, r4, r5, r6, r7, lr}
    5ea6:	bf00      	nop
    5ea8:	bcf8      	pop	{r3, r4, r5, r6, r7}
    5eaa:	bc08      	pop	{r3}
    5eac:	469e      	mov	lr, r3
    5eae:	4770      	bx	lr

00005eb0 <__fini_array_start>:
    5eb0:	00000265 	.word	0x00000265
