
DumBadgeFirmware.elf:     file format elf32-littlearm

Sections:
Idx Name          Size      VMA       LMA       File off  Algn
  0 .text         0000661c  00000000  00000000  00010000  2**2
                  CONTENTS, ALLOC, LOAD, READONLY, CODE
  1 .relocate     000001bc  20000000  0000661c  00020000  2**2
                  CONTENTS, ALLOC, LOAD, DATA
  2 .bss          00000274  200001bc  000067d8  000201bc  2**2
                  ALLOC
  3 .stack        00002000  20000430  00006a4c  000201bc  2**0
                  ALLOC
  4 .ARM.attributes 00000028  00000000  00000000  000201bc  2**0
                  CONTENTS, READONLY
  5 .comment      00000059  00000000  00000000  000201e4  2**0
                  CONTENTS, READONLY
  6 .debug_info   0003740b  00000000  00000000  0002023d  2**0
                  CONTENTS, READONLY, DEBUGGING
  7 .debug_abbrev 00004fa0  00000000  00000000  00057648  2**0
                  CONTENTS, READONLY, DEBUGGING
  8 .debug_loc    000063f1  00000000  00000000  0005c5e8  2**0
                  CONTENTS, READONLY, DEBUGGING
  9 .debug_aranges 000006e0  00000000  00000000  000629d9  2**0
                  CONTENTS, READONLY, DEBUGGING
 10 .debug_ranges 000007e8  00000000  00000000  000630b9  2**0
                  CONTENTS, READONLY, DEBUGGING
 11 .debug_macro  0001e769  00000000  00000000  000638a1  2**0
                  CONTENTS, READONLY, DEBUGGING
 12 .debug_line   000127d5  00000000  00000000  0008200a  2**0
                  CONTENTS, READONLY, DEBUGGING
 13 .debug_str    000900db  00000000  00000000  000947df  2**0
                  CONTENTS, READONLY, DEBUGGING
 14 .debug_frame  00001844  00000000  00000000  001248bc  2**2
                  CONTENTS, READONLY, DEBUGGING

Disassembly of section .text:

00000000 <exception_table>:
 *         Initialize the System and update the SystemCoreClock variable.
 */
void SystemInit(void)
{
	// Keep the default device state after reset
	SystemCoreClock = __SYSTEM_CLOCK;
       0:	30 24 00 20 6d 1b 00 00 69 1b 00 00 69 1b 00 00     0$. m...i...i...
	...
      2c:	69 1b 00 00 00 00 00 00 00 00 00 00 69 1b 00 00     i...........i...
      3c:	4d 2e 00 00 69 1b 00 00 69 1b 00 00 69 1b 00 00     M...i...i...i...
      4c:	69 1b 00 00 69 1b 00 00 69 1b 00 00 69 1b 00 00     i...i...i...i...
      5c:	69 1b 00 00 69 1b 00 00 0d 0e 00 00 1d 0e 00 00     i...i...........
      6c:	2d 0e 00 00 3d 0e 00 00 4d 0e 00 00 5d 0e 00 00     -...=...M...]...
      7c:	69 1b 00 00 69 1b 00 00 69 1b 00 00 69 1b 00 00     i...i...i...i...
      8c:	69 1b 00 00 69 1b 00 00 69 1b 00 00 69 1b 00 00     i...i...i...i...
      9c:	41 09 00 00 69 1b 00 00 69 1b 00 00 69 1b 00 00     A...i...i...i...
      ac:	69 1b 00 00 00 00 00 00                             i.......

000000b4 <__do_global_dtors_aux>:
      b4:	b510      	push	{r4, lr}
      b6:	4c06      	ldr	r4, [pc, #24]	; (d0 <__do_global_dtors_aux+0x1c>)
      b8:	7823      	ldrb	r3, [r4, #0]
      ba:	2b00      	cmp	r3, #0
      bc:	d107      	bne.n	ce <__do_global_dtors_aux+0x1a>
      be:	4b05      	ldr	r3, [pc, #20]	; (d4 <__do_global_dtors_aux+0x20>)
      c0:	2b00      	cmp	r3, #0
      c2:	d002      	beq.n	ca <__do_global_dtors_aux+0x16>
      c4:	4804      	ldr	r0, [pc, #16]	; (d8 <__do_global_dtors_aux+0x24>)
      c6:	e000      	b.n	ca <__do_global_dtors_aux+0x16>
      c8:	bf00      	nop
      ca:	2301      	movs	r3, #1
      cc:	7023      	strb	r3, [r4, #0]
      ce:	bd10      	pop	{r4, pc}
      d0:	200001bc 	.word	0x200001bc
      d4:	00000000 	.word	0x00000000
      d8:	0000661c 	.word	0x0000661c

000000dc <frame_dummy>:
      dc:	4b08      	ldr	r3, [pc, #32]	; (100 <frame_dummy+0x24>)
      de:	b510      	push	{r4, lr}
      e0:	2b00      	cmp	r3, #0
      e2:	d003      	beq.n	ec <frame_dummy+0x10>
      e4:	4907      	ldr	r1, [pc, #28]	; (104 <frame_dummy+0x28>)
      e6:	4808      	ldr	r0, [pc, #32]	; (108 <frame_dummy+0x2c>)
      e8:	e000      	b.n	ec <frame_dummy+0x10>
      ea:	bf00      	nop
      ec:	4807      	ldr	r0, [pc, #28]	; (10c <frame_dummy+0x30>)
      ee:	6803      	ldr	r3, [r0, #0]
      f0:	2b00      	cmp	r3, #0
      f2:	d100      	bne.n	f6 <frame_dummy+0x1a>
      f4:	bd10      	pop	{r4, pc}
      f6:	4b06      	ldr	r3, [pc, #24]	; (110 <frame_dummy+0x34>)
      f8:	2b00      	cmp	r3, #0
      fa:	d0fb      	beq.n	f4 <frame_dummy+0x18>
      fc:	4798      	blx	r3
      fe:	e7f9      	b.n	f4 <frame_dummy+0x18>
     100:	00000000 	.word	0x00000000
     104:	200001c0 	.word	0x200001c0
     108:	0000661c 	.word	0x0000661c
     10c:	0000661c 	.word	0x0000661c
     110:	00000000 	.word	0x00000000

00000114 <drawKare>:
//	graphic in the entire project. Please note this is the most
//	space efficient way to do this; a 40x31 bitmap is 930 bytes,
//	whereas	this is (104*2)+28+20, or 256 bytes.
/*********************************************************************/
void drawKare(int emotion)
{
     114:	b5f0      	push	{r4, r5, r6, r7, lr}
     116:	b0c1      	sub	sp, #260	; 0x104
     118:	0007      	movs	r7, r0
	uint16_t body[104] = {10,10,20,20,20,0,380,10,380,10,390,20,0,
     11a:	22d0      	movs	r2, #208	; 0xd0
     11c:	492d      	ldr	r1, [pc, #180]	; (1d4 <drawKare+0xc0>)
     11e:	a80c      	add	r0, sp, #48	; 0x30
     120:	4b2d      	ldr	r3, [pc, #180]	; (1d8 <drawKare+0xc4>)
     122:	4798      	blx	r3
		80,190,280,200,280,40,290,190,0,70,50,80,0,90,50,100,0,110,
		50,120,0,130,50,140,0,150,50,160,0,170,50,180,0,190,50,200,
		300,200,370,210,30,220,370,230,30,240,370,250,30,260,370,
		270,90,280,300,290};
	
	uint8_t happyTerm[28] = {180,80,190,130,170,130,190,140,140,
     124:	a805      	add	r0, sp, #20
     126:	4b2d      	ldr	r3, [pc, #180]	; (1dc <drawKare+0xc8>)
     128:	001a      	movs	r2, r3
     12a:	3250      	adds	r2, #80	; 0x50
     12c:	0001      	movs	r1, r0
     12e:	ca31      	ldmia	r2!, {r0, r4, r5}
     130:	c131      	stmia	r1!, {r0, r4, r5}
     132:	ca31      	ldmia	r2!, {r0, r4, r5}
     134:	c131      	stmia	r1!, {r0, r4, r5}
     136:	6812      	ldr	r2, [r2, #0]
     138:	600a      	str	r2, [r1, #0]
		60,150,100,210,60,220,100,130,150,140,160,140,160,220,170,
	220,150,230,160};
	
	uint8_t rPiBeret[20] = {120,60,240,80,110,70,120,90,150,
     13a:	336c      	adds	r3, #108	; 0x6c
     13c:	466a      	mov	r2, sp
     13e:	cb13      	ldmia	r3!, {r0, r1, r4}
     140:	c213      	stmia	r2!, {r0, r1, r4}
     142:	cb03      	ldmia	r3!, {r0, r1}
     144:	c203      	stmia	r2!, {r0, r1}
     146:	ac0c      	add	r4, sp, #48	; 0x30
     148:	ae40      	add	r6, sp, #256	; 0x100

	
	
	for(int i = 0; i < 104; i = i+4)
	{
		fillRect(((body[i]/iSv)+(offsetGraphicX)),
     14a:	4d25      	ldr	r5, [pc, #148]	; (1e0 <drawKare+0xcc>)
		((body[i+1]/iSv)+(offsetGraphicY)),
		((body[i+2]/iSv)+(offsetGraphicX)),
		((body[i+3]/iSv)+(offsetGraphicY)));
     14c:	88e3      	ldrh	r3, [r4, #6]
     14e:	105b      	asrs	r3, r3, #1
		fillRect(((body[i]/iSv)+(offsetGraphicX)),
     150:	3396      	adds	r3, #150	; 0x96
		((body[i+2]/iSv)+(offsetGraphicX)),
     152:	88a2      	ldrh	r2, [r4, #4]
     154:	1052      	asrs	r2, r2, #1
		fillRect(((body[i]/iSv)+(offsetGraphicX)),
     156:	322d      	adds	r2, #45	; 0x2d
     158:	32ff      	adds	r2, #255	; 0xff
		((body[i+1]/iSv)+(offsetGraphicY)),
     15a:	8861      	ldrh	r1, [r4, #2]
     15c:	1049      	asrs	r1, r1, #1
		fillRect(((body[i]/iSv)+(offsetGraphicX)),
     15e:	3196      	adds	r1, #150	; 0x96
     160:	8820      	ldrh	r0, [r4, #0]
     162:	1040      	asrs	r0, r0, #1
     164:	302d      	adds	r0, #45	; 0x2d
     166:	30ff      	adds	r0, #255	; 0xff
     168:	47a8      	blx	r5
     16a:	3408      	adds	r4, #8
	for(int i = 0; i < 104; i = i+4)
     16c:	42b4      	cmp	r4, r6
     16e:	d1ed      	bne.n	14c <drawKare+0x38>
	}
	switch(emotion)
     170:	2f00      	cmp	r7, #0
     172:	d003      	beq.n	17c <drawKare+0x68>
     174:	2f01      	cmp	r7, #1
     176:	d017      	beq.n	1a8 <drawKare+0x94>
		break;
		case 2:
		//make a sad terminal thing go here
		break;
	}
}
     178:	b041      	add	sp, #260	; 0x104
     17a:	bdf0      	pop	{r4, r5, r6, r7, pc}
     17c:	ac05      	add	r4, sp, #20
     17e:	ae0c      	add	r6, sp, #48	; 0x30
			fillRect(((happyTerm[i]/iSv)+(offsetGraphicX)),
     180:	4d17      	ldr	r5, [pc, #92]	; (1e0 <drawKare+0xcc>)
			((happyTerm[i+3]/iSv)+(offsetGraphicY)));
     182:	78e3      	ldrb	r3, [r4, #3]
     184:	105b      	asrs	r3, r3, #1
			fillRect(((happyTerm[i]/iSv)+(offsetGraphicX)),
     186:	3396      	adds	r3, #150	; 0x96
			((happyTerm[i+2]/iSv)+(offsetGraphicX)),
     188:	78a2      	ldrb	r2, [r4, #2]
     18a:	1052      	asrs	r2, r2, #1
			fillRect(((happyTerm[i]/iSv)+(offsetGraphicX)),
     18c:	322d      	adds	r2, #45	; 0x2d
     18e:	32ff      	adds	r2, #255	; 0xff
			((happyTerm[i+1]/iSv)+(offsetGraphicY)),
     190:	7861      	ldrb	r1, [r4, #1]
     192:	1049      	asrs	r1, r1, #1
			fillRect(((happyTerm[i]/iSv)+(offsetGraphicX)),
     194:	3196      	adds	r1, #150	; 0x96
     196:	7820      	ldrb	r0, [r4, #0]
     198:	1040      	asrs	r0, r0, #1
     19a:	302d      	adds	r0, #45	; 0x2d
     19c:	30ff      	adds	r0, #255	; 0xff
     19e:	47a8      	blx	r5
     1a0:	3404      	adds	r4, #4
		for(int i = 0; i < 28; i = i+4)
     1a2:	42a6      	cmp	r6, r4
     1a4:	d1ed      	bne.n	182 <drawKare+0x6e>
     1a6:	e7e7      	b.n	178 <drawKare+0x64>
     1a8:	466c      	mov	r4, sp
     1aa:	ae05      	add	r6, sp, #20
			fillRect((
     1ac:	4d0c      	ldr	r5, [pc, #48]	; (1e0 <drawKare+0xcc>)
			((rPiBeret[i+3]/iSv)+(offsetGraphicY)));
     1ae:	78e3      	ldrb	r3, [r4, #3]
     1b0:	105b      	asrs	r3, r3, #1
			fillRect((
     1b2:	3396      	adds	r3, #150	; 0x96
			((rPiBeret[i+2]/iSv)+(offsetGraphicX)),
     1b4:	78a2      	ldrb	r2, [r4, #2]
     1b6:	1052      	asrs	r2, r2, #1
			fillRect((
     1b8:	322d      	adds	r2, #45	; 0x2d
     1ba:	32ff      	adds	r2, #255	; 0xff
			((rPiBeret[i+1]/iSv)+(offsetGraphicY)),
     1bc:	7861      	ldrb	r1, [r4, #1]
     1be:	1049      	asrs	r1, r1, #1
			fillRect((
     1c0:	3196      	adds	r1, #150	; 0x96
			(rPiBeret[i]/iSv)+(offsetGraphicX)),
     1c2:	7820      	ldrb	r0, [r4, #0]
     1c4:	1040      	asrs	r0, r0, #1
			fillRect((
     1c6:	302d      	adds	r0, #45	; 0x2d
     1c8:	30ff      	adds	r0, #255	; 0xff
     1ca:	47a8      	blx	r5
     1cc:	3404      	adds	r4, #4
		for(int i = 0; i < 20; i = i+4)
     1ce:	42b4      	cmp	r4, r6
     1d0:	d1ed      	bne.n	1ae <drawKare+0x9a>
     1d2:	e7d1      	b.n	178 <drawKare+0x64>
     1d4:	000043f4 	.word	0x000043f4
     1d8:	00003309 	.word	0x00003309
     1dc:	00004474 	.word	0x00004474
     1e0:	000029f1 	.word	0x000029f1

000001e4 <splashScreen>:

void splashScreen(void)
{
     1e4:	b570      	push	{r4, r5, r6, lr}
	static const char *splashText[32];
	splashText[0] = "Unix epoch minus 0xFF days";//
     1e6:	4c48      	ldr	r4, [pc, #288]	; (308 <splashScreen+0x124>)
     1e8:	4b48      	ldr	r3, [pc, #288]	; (30c <splashScreen+0x128>)
     1ea:	6023      	str	r3, [r4, #0]
	splashText[1] = "13^5 + 16^5 = 17^5";//
     1ec:	4b48      	ldr	r3, [pc, #288]	; (310 <splashScreen+0x12c>)
     1ee:	6063      	str	r3, [r4, #4]
	splashText[2] = "Reticulating Splines";//
     1f0:	4b48      	ldr	r3, [pc, #288]	; (314 <splashScreen+0x130>)
     1f2:	60a3      	str	r3, [r4, #8]
	splashText[3] = "Violence works";//
     1f4:	4b48      	ldr	r3, [pc, #288]	; (318 <splashScreen+0x134>)
     1f6:	60e3      	str	r3, [r4, #12]
	splashText[4] = "Tabs!";//
     1f8:	4b48      	ldr	r3, [pc, #288]	; (31c <splashScreen+0x138>)
     1fa:	6123      	str	r3, [r4, #16]
	splashText[5] = "Kill Billionaires (and Trillionaire)";//
     1fc:	4b48      	ldr	r3, [pc, #288]	; (320 <splashScreen+0x13c>)
     1fe:	6163      	str	r3, [r4, #20]
	splashText[6] = "Interest in technology is not a personality";//
     200:	4b48      	ldr	r3, [pc, #288]	; (324 <splashScreen+0x140>)
     202:	61a3      	str	r3, [r4, #24]
	splashText[7] = "10 PRINT CHR$(205.5+RND(1)); : GOTO 10";//
     204:	4b48      	ldr	r3, [pc, #288]	; (328 <splashScreen+0x144>)
     206:	61e3      	str	r3, [r4, #28]
	splashText[8] = "No gods. No masters. No external libraries.";//
     208:	4b48      	ldr	r3, [pc, #288]	; (32c <splashScreen+0x148>)
     20a:	6223      	str	r3, [r4, #32]
	splashText[9] = "Spaces!";//
     20c:	4b48      	ldr	r3, [pc, #288]	; (330 <splashScreen+0x14c>)
     20e:	6263      	str	r3, [r4, #36]	; 0x24
	splashText[10] = "Tiananmen Square 1989";//
     210:	4b48      	ldr	r3, [pc, #288]	; (334 <splashScreen+0x150>)
     212:	62a3      	str	r3, [r4, #40]	; 0x28
	splashText[11] = "America was founded on slavery";
     214:	4b48      	ldr	r3, [pc, #288]	; (338 <splashScreen+0x154>)
     216:	62e3      	str	r3, [r4, #44]	; 0x2c
	splashText[12] = "There is only capital and labor";//
     218:	4b48      	ldr	r3, [pc, #288]	; (33c <splashScreen+0x158>)
     21a:	6323      	str	r3, [r4, #48]	; 0x30
	splashText[13] = "Encourage symmetric class warfare";//
     21c:	4b48      	ldr	r3, [pc, #288]	; (340 <splashScreen+0x15c>)
     21e:	6363      	str	r3, [r4, #52]	; 0x34
	splashText[14] = "$CURRENT_MEME";//
     220:	4b48      	ldr	r3, [pc, #288]	; (344 <splashScreen+0x160>)
     222:	63a3      	str	r3, [r4, #56]	; 0x38
	splashText[15] = "A Nice TTY";//
     224:	4b48      	ldr	r3, [pc, #288]	; (348 <splashScreen+0x164>)
     226:	63e3      	str	r3, [r4, #60]	; 0x3c
	splashText[16] = "Trans rights are human rights";//
     228:	4b48      	ldr	r3, [pc, #288]	; (34c <splashScreen+0x168>)
     22a:	6423      	str	r3, [r4, #64]	; 0x40
	splashText[17] = "i  = 0x5f3759df - ( i >> 1 );";//
     22c:	4b48      	ldr	r3, [pc, #288]	; (350 <splashScreen+0x16c>)
     22e:	6463      	str	r3, [r4, #68]	; 0x44
	splashText[18] = "ACAB";//
     230:	4b48      	ldr	r3, [pc, #288]	; (354 <splashScreen+0x170>)
     232:	64a3      	str	r3, [r4, #72]	; 0x48
	splashText[19] = "Defcon's canceled.";//
     234:	4b48      	ldr	r3, [pc, #288]	; (358 <splashScreen+0x174>)
     236:	64e3      	str	r3, [r4, #76]	; 0x4c
	splashText[20] = "Ratsnest: Nothing To Do!";//
     238:	4b48      	ldr	r3, [pc, #288]	; (35c <splashScreen+0x178>)
     23a:	6523      	str	r3, [r4, #80]	; 0x50
	splashText[21] = "It has 69 keys.";//
     23c:	4b48      	ldr	r3, [pc, #288]	; (360 <splashScreen+0x17c>)
     23e:	6563      	str	r3, [r4, #84]	; 0x54
	splashText[22] = "Because VT-420 was already taken";//
     240:	4b48      	ldr	r3, [pc, #288]	; (364 <splashScreen+0x180>)
     242:	65a3      	str	r3, [r4, #88]	; 0x58
	splashText[23] = "Compression algorithm based on BBP (1997)";//
     244:	4b48      	ldr	r3, [pc, #288]	; (368 <splashScreen+0x184>)
     246:	65e3      	str	r3, [r4, #92]	; 0x5c
	splashText[24] = "The source of the Mississippi river is in Pennsylvania.";
     248:	4b48      	ldr	r3, [pc, #288]	; (36c <splashScreen+0x188>)
     24a:	6623      	str	r3, [r4, #96]	; 0x60
	splashText[25] = "Offensive hardware";//
     24c:	4b48      	ldr	r3, [pc, #288]	; (370 <splashScreen+0x18c>)
     24e:	6663      	str	r3, [r4, #100]	; 0x64
	splashText[26] = "Follow World Pog Federation    @WorldPog";//
     250:	4b48      	ldr	r3, [pc, #288]	; (374 <splashScreen+0x190>)
     252:	66a3      	str	r3, [r4, #104]	; 0x68
	splashText[27] = "Dummy thicc client";//
     254:	4b48      	ldr	r3, [pc, #288]	; (378 <splashScreen+0x194>)
     256:	66e3      	str	r3, [r4, #108]	; 0x6c
	splashText[28] = "A Nice TTY. An OK Computer.";//
     258:	4b48      	ldr	r3, [pc, #288]	; (37c <splashScreen+0x198>)
     25a:	6723      	str	r3, [r4, #112]	; 0x70
	splashText[29] = "I cAn OpEn A LoCk WiTh A sOdA cAn";//
     25c:	4b48      	ldr	r3, [pc, #288]	; (380 <splashScreen+0x19c>)
     25e:	6763      	str	r3, [r4, #116]	; 0x74
	splashText[30] = "Solidarity is not a new framework";//
     260:	4b48      	ldr	r3, [pc, #288]	; (384 <splashScreen+0x1a0>)
     262:	67a3      	str	r3, [r4, #120]	; 0x78
	splashText[31] = "Breadboarding Is Not A Crime";//
     264:	4b48      	ldr	r3, [pc, #288]	; (388 <splashScreen+0x1a4>)
     266:	67e3      	str	r3, [r4, #124]	; 0x7c
	splashText[32] = "Off by one errors are common";
     268:	4a48      	ldr	r2, [pc, #288]	; (38c <splashScreen+0x1a8>)
     26a:	2380      	movs	r3, #128	; 0x80
     26c:	50e2      	str	r2, [r4, r3]
	
	const char *textPhrase = splashText[((rand()%32))];
     26e:	4b48      	ldr	r3, [pc, #288]	; (390 <splashScreen+0x1ac>)
     270:	4798      	blx	r3
     272:	17c3      	asrs	r3, r0, #31
     274:	0edb      	lsrs	r3, r3, #27
     276:	18c2      	adds	r2, r0, r3
     278:	201f      	movs	r0, #31
     27a:	4010      	ands	r0, r2
     27c:	1ac0      	subs	r0, r0, r3
     27e:	0080      	lsls	r0, r0, #2
     280:	5904      	ldr	r4, [r0, r4]
	
	
	clearScreen();
     282:	4b44      	ldr	r3, [pc, #272]	; (394 <splashScreen+0x1b0>)
     284:	4798      	blx	r3
	setColorRGB(255,255,255);
     286:	22ff      	movs	r2, #255	; 0xff
     288:	21ff      	movs	r1, #255	; 0xff
     28a:	20ff      	movs	r0, #255	; 0xff
     28c:	4b42      	ldr	r3, [pc, #264]	; (398 <splashScreen+0x1b4>)
     28e:	4798      	blx	r3
	
	REG_PORT_DIRTGL1 = PORT_PB31;
     290:	2280      	movs	r2, #128	; 0x80
     292:	0612      	lsls	r2, r2, #24
     294:	4b41      	ldr	r3, [pc, #260]	; (39c <splashScreen+0x1b8>)
     296:	601a      	str	r2, [r3, #0]
	PORT->Group[1].PINCFG[31].bit.PULLEN = 1;
     298:	4b41      	ldr	r3, [pc, #260]	; (3a0 <splashScreen+0x1bc>)
     29a:	22df      	movs	r2, #223	; 0xdf
     29c:	5c99      	ldrb	r1, [r3, r2]
     29e:	2004      	movs	r0, #4
     2a0:	4301      	orrs	r1, r0
     2a2:	5499      	strb	r1, [r3, r2]
	PORT->Group[1].PINCFG[31].bit.INEN = 1;
     2a4:	5c99      	ldrb	r1, [r3, r2]
     2a6:	2002      	movs	r0, #2
     2a8:	4301      	orrs	r1, r0
     2aa:	5499      	strb	r1, [r3, r2]
	if((PORT->Group[1].IN.reg & PORT_PB31) != 0)
     2ac:	3a3f      	subs	r2, #63	; 0x3f
     2ae:	589b      	ldr	r3, [r3, r2]
     2b0:	2b00      	cmp	r3, #0
     2b2:	db24      	blt.n	2fe <splashScreen+0x11a>
		//This is the 'pi' graphic; put some codes
		//here to handle setting up the uarts.
		drawKare(1);
	}
	else
	drawKare(0); //The normal graphic
     2b4:	2000      	movs	r0, #0
     2b6:	4b3b      	ldr	r3, [pc, #236]	; (3a4 <splashScreen+0x1c0>)
     2b8:	4798      	blx	r3
	This is not used since I fixed the way fonts are rendered;
	Now, pixel(0,0) is in the top *right* corner of the screen.
	Trust me, this is easier.
	*/
	
	xCharPos = 40 - (strlen(textPhrase)/2);
     2ba:	0020      	movs	r0, r4
     2bc:	4b3a      	ldr	r3, [pc, #232]	; (3a8 <splashScreen+0x1c4>)
     2be:	4798      	blx	r3
     2c0:	4e3a      	ldr	r6, [pc, #232]	; (3ac <splashScreen+0x1c8>)
     2c2:	0840      	lsrs	r0, r0, #1
     2c4:	2328      	movs	r3, #40	; 0x28
     2c6:	1a18      	subs	r0, r3, r0
     2c8:	8030      	strh	r0, [r6, #0]
	yCharPos = 16;
     2ca:	4d39      	ldr	r5, [pc, #228]	; (3b0 <splashScreen+0x1cc>)
     2cc:	2310      	movs	r3, #16
     2ce:	802b      	strh	r3, [r5, #0]
	
	writeString(textPhrase);
     2d0:	0020      	movs	r0, r4
     2d2:	4b38      	ldr	r3, [pc, #224]	; (3b4 <splashScreen+0x1d0>)
     2d4:	4798      	blx	r3
	delay_ms(2000);
     2d6:	20fa      	movs	r0, #250	; 0xfa
     2d8:	00c0      	lsls	r0, r0, #3
     2da:	4b37      	ldr	r3, [pc, #220]	; (3b8 <splashScreen+0x1d4>)
     2dc:	4798      	blx	r3
	clearScreen();
     2de:	4b2d      	ldr	r3, [pc, #180]	; (394 <splashScreen+0x1b0>)
     2e0:	4798      	blx	r3
	
	setColorRGB(0,255,0);
     2e2:	2200      	movs	r2, #0
     2e4:	21ff      	movs	r1, #255	; 0xff
     2e6:	2000      	movs	r0, #0
     2e8:	4b2b      	ldr	r3, [pc, #172]	; (398 <splashScreen+0x1b4>)
     2ea:	4798      	blx	r3
	setBackColorRGB(0,0,0);
     2ec:	2200      	movs	r2, #0
     2ee:	2100      	movs	r1, #0
     2f0:	2000      	movs	r0, #0
     2f2:	4b32      	ldr	r3, [pc, #200]	; (3bc <splashScreen+0x1d8>)
     2f4:	4798      	blx	r3
	
	//Setting the xChar and yChar position has to come
	//after splashScreen() and InitLCD();
	xCharPos = 0;
     2f6:	2300      	movs	r3, #0
     2f8:	8033      	strh	r3, [r6, #0]
	yCharPos = 0;
     2fa:	802b      	strh	r3, [r5, #0]
	

     2fc:	bd70      	pop	{r4, r5, r6, pc}
		drawKare(1);
     2fe:	2001      	movs	r0, #1
     300:	4b28      	ldr	r3, [pc, #160]	; (3a4 <splashScreen+0x1c0>)
     302:	4798      	blx	r3
     304:	e7d9      	b.n	2ba <splashScreen+0xd6>
     306:	46c0      	nop			; (mov r8, r8)
     308:	200001d8 	.word	0x200001d8
     30c:	000044f4 	.word	0x000044f4
     310:	00004510 	.word	0x00004510
     314:	00004524 	.word	0x00004524
     318:	0000453c 	.word	0x0000453c
     31c:	0000454c 	.word	0x0000454c
     320:	00004554 	.word	0x00004554
     324:	0000457c 	.word	0x0000457c
     328:	000045a8 	.word	0x000045a8
     32c:	000045d0 	.word	0x000045d0
     330:	000045fc 	.word	0x000045fc
     334:	00004604 	.word	0x00004604
     338:	0000461c 	.word	0x0000461c
     33c:	0000463c 	.word	0x0000463c
     340:	0000465c 	.word	0x0000465c
     344:	00004680 	.word	0x00004680
     348:	00004690 	.word	0x00004690
     34c:	0000469c 	.word	0x0000469c
     350:	000046bc 	.word	0x000046bc
     354:	000046dc 	.word	0x000046dc
     358:	000046e4 	.word	0x000046e4
     35c:	000046f8 	.word	0x000046f8
     360:	00004714 	.word	0x00004714
     364:	00004724 	.word	0x00004724
     368:	00004748 	.word	0x00004748
     36c:	00004774 	.word	0x00004774
     370:	000047ac 	.word	0x000047ac
     374:	000047c0 	.word	0x000047c0
     378:	000047ec 	.word	0x000047ec
     37c:	00004800 	.word	0x00004800
     380:	0000481c 	.word	0x0000481c
     384:	00004840 	.word	0x00004840
     388:	00004864 	.word	0x00004864
     38c:	00004884 	.word	0x00004884
     390:	000033bd 	.word	0x000033bd
     394:	00002b59 	.word	0x00002b59
     398:	000028b5 	.word	0x000028b5
     39c:	4100448c 	.word	0x4100448c
     3a0:	41004400 	.word	0x41004400
     3a4:	00000115 	.word	0x00000115
     3a8:	000035a1 	.word	0x000035a1
     3ac:	20000298 	.word	0x20000298
     3b0:	2000029a 	.word	0x2000029a
     3b4:	000020b9 	.word	0x000020b9
     3b8:	00000401 	.word	0x00000401
     3bc:	000028dd 	.word	0x000028dd

000003c0 <delay_init>:
 *
 * This must be called during start up to initialize the delay routine with
 * the current used main clock. It must run any time the main CPU clock is changed.
 */
void delay_init(void)
{
     3c0:	b570      	push	{r4, r5, r6, lr}
	cycles_per_ms = system_gclk_gen_get_hz(0);
     3c2:	2000      	movs	r0, #0
     3c4:	4b08      	ldr	r3, [pc, #32]	; (3e8 <delay_init+0x28>)
     3c6:	4798      	blx	r3
     3c8:	0005      	movs	r5, r0
	cycles_per_ms /= 1000;
     3ca:	4c08      	ldr	r4, [pc, #32]	; (3ec <delay_init+0x2c>)
     3cc:	21fa      	movs	r1, #250	; 0xfa
     3ce:	0089      	lsls	r1, r1, #2
     3d0:	47a0      	blx	r4
     3d2:	4b07      	ldr	r3, [pc, #28]	; (3f0 <delay_init+0x30>)
     3d4:	6018      	str	r0, [r3, #0]
	cycles_per_us = cycles_per_ms / 1000;
     3d6:	4907      	ldr	r1, [pc, #28]	; (3f4 <delay_init+0x34>)
     3d8:	0028      	movs	r0, r5
     3da:	47a0      	blx	r4
     3dc:	4b06      	ldr	r3, [pc, #24]	; (3f8 <delay_init+0x38>)
     3de:	6018      	str	r0, [r3, #0]

	SysTick->CTRL = SysTick_CTRL_CLKSOURCE_Msk | SysTick_CTRL_ENABLE_Msk;
     3e0:	2205      	movs	r2, #5
     3e2:	4b06      	ldr	r3, [pc, #24]	; (3fc <delay_init+0x3c>)
     3e4:	601a      	str	r2, [r3, #0]
}
     3e6:	bd70      	pop	{r4, r5, r6, pc}
     3e8:	000018f9 	.word	0x000018f9
     3ec:	00003155 	.word	0x00003155
     3f0:	20000000 	.word	0x20000000
     3f4:	000f4240 	.word	0x000f4240
     3f8:	20000004 	.word	0x20000004
     3fc:	e000e010 	.word	0xe000e010

00000400 <delay_cycles_ms>:
 *
 * \param n  Number of milliseconds to wait
 */
void delay_cycles_ms(
		uint32_t n)
{
     400:	b530      	push	{r4, r5, lr}
	while (n--) {
		/* Devide up to blocks of 1ms */
		delay_cycles(cycles_per_ms);
     402:	4b08      	ldr	r3, [pc, #32]	; (424 <delay_cycles_ms+0x24>)
     404:	681c      	ldr	r4, [r3, #0]
 */
static inline void delay_cycles(
		const uint32_t n)
{
	if (n > 0) {
		SysTick->LOAD = n;
     406:	4a08      	ldr	r2, [pc, #32]	; (428 <delay_cycles_ms+0x28>)
		SysTick->VAL = 0;
     408:	2500      	movs	r5, #0

		while (!(SysTick->CTRL & SysTick_CTRL_COUNTFLAG_Msk)) {
     40a:	2180      	movs	r1, #128	; 0x80
     40c:	0249      	lsls	r1, r1, #9
	while (n--) {
     40e:	3801      	subs	r0, #1
     410:	d307      	bcc.n	422 <delay_cycles_ms+0x22>
	if (n > 0) {
     412:	2c00      	cmp	r4, #0
     414:	d0fb      	beq.n	40e <delay_cycles_ms+0xe>
		SysTick->LOAD = n;
     416:	6054      	str	r4, [r2, #4]
		SysTick->VAL = 0;
     418:	6095      	str	r5, [r2, #8]
		while (!(SysTick->CTRL & SysTick_CTRL_COUNTFLAG_Msk)) {
     41a:	6813      	ldr	r3, [r2, #0]
     41c:	420b      	tst	r3, r1
     41e:	d0fc      	beq.n	41a <delay_cycles_ms+0x1a>
     420:	e7f5      	b.n	40e <delay_cycles_ms+0xe>
	}
}
     422:	bd30      	pop	{r4, r5, pc}
     424:	20000000 	.word	0x20000000
     428:	e000e010 	.word	0xe000e010

0000042c <cpu_irq_enter_critical>:
volatile bool g_interrupt_enabled = true;
#endif

void cpu_irq_enter_critical(void)
{
	if (cpu_irq_critical_section_counter == 0) {
     42c:	4b0c      	ldr	r3, [pc, #48]	; (460 <cpu_irq_enter_critical+0x34>)
     42e:	681b      	ldr	r3, [r3, #0]
     430:	2b00      	cmp	r3, #0
     432:	d106      	bne.n	442 <cpu_irq_enter_critical+0x16>
 */
__STATIC_FORCEINLINE uint32_t __get_PRIMASK(void)
{
  uint32_t result;

  __ASM volatile ("MRS %0, primask" : "=r" (result) :: "memory");
     434:	f3ef 8310 	mrs	r3, PRIMASK
		if (cpu_irq_is_enabled()) {
     438:	2b00      	cmp	r3, #0
     43a:	d007      	beq.n	44c <cpu_irq_enter_critical+0x20>
			cpu_irq_disable();
			cpu_irq_prev_interrupt_state = true;
		} else {
			/* Make sure the to save the prev state as false */
			cpu_irq_prev_interrupt_state = false;
     43c:	2200      	movs	r2, #0
     43e:	4b09      	ldr	r3, [pc, #36]	; (464 <cpu_irq_enter_critical+0x38>)
     440:	701a      	strb	r2, [r3, #0]
		}

	}

	cpu_irq_critical_section_counter++;
     442:	4a07      	ldr	r2, [pc, #28]	; (460 <cpu_irq_enter_critical+0x34>)
     444:	6813      	ldr	r3, [r2, #0]
     446:	3301      	adds	r3, #1
     448:	6013      	str	r3, [r2, #0]
}
     44a:	4770      	bx	lr
  __ASM volatile ("cpsid i" : : : "memory");
     44c:	b672      	cpsid	i
  \details Ensures the apparent order of the explicit memory operations before
           and after the instruction, without ensuring their completion.
 */
__STATIC_FORCEINLINE void __DMB(void)
{
  __ASM volatile ("dmb 0xF":::"memory");
     44e:	f3bf 8f5f 	dmb	sy
			cpu_irq_disable();
     452:	2200      	movs	r2, #0
     454:	4b04      	ldr	r3, [pc, #16]	; (468 <cpu_irq_enter_critical+0x3c>)
     456:	701a      	strb	r2, [r3, #0]
			cpu_irq_prev_interrupt_state = true;
     458:	3201      	adds	r2, #1
     45a:	4b02      	ldr	r3, [pc, #8]	; (464 <cpu_irq_enter_critical+0x38>)
     45c:	701a      	strb	r2, [r3, #0]
     45e:	e7f0      	b.n	442 <cpu_irq_enter_critical+0x16>
     460:	20000258 	.word	0x20000258
     464:	2000025c 	.word	0x2000025c
     468:	20000008 	.word	0x20000008

0000046c <cpu_irq_leave_critical>:
void cpu_irq_leave_critical(void)
{
	/* Check if the user is trying to leave a critical section when not in a critical section */
	Assert(cpu_irq_critical_section_counter > 0);

	cpu_irq_critical_section_counter--;
     46c:	4b08      	ldr	r3, [pc, #32]	; (490 <cpu_irq_leave_critical+0x24>)
     46e:	681a      	ldr	r2, [r3, #0]
     470:	3a01      	subs	r2, #1
     472:	601a      	str	r2, [r3, #0]

	/* Only enable global interrupts when the counter reaches 0 and the state of the global interrupt flag
	   was enabled when entering critical state */
	if ((cpu_irq_critical_section_counter == 0) && (cpu_irq_prev_interrupt_state)) {
     474:	681b      	ldr	r3, [r3, #0]
     476:	2b00      	cmp	r3, #0
     478:	d109      	bne.n	48e <cpu_irq_leave_critical+0x22>
     47a:	4b06      	ldr	r3, [pc, #24]	; (494 <cpu_irq_leave_critical+0x28>)
     47c:	781b      	ldrb	r3, [r3, #0]
     47e:	2b00      	cmp	r3, #0
     480:	d005      	beq.n	48e <cpu_irq_leave_critical+0x22>
		cpu_irq_enable();
     482:	2201      	movs	r2, #1
     484:	4b04      	ldr	r3, [pc, #16]	; (498 <cpu_irq_leave_critical+0x2c>)
     486:	701a      	strb	r2, [r3, #0]
     488:	f3bf 8f5f 	dmb	sy
  __ASM volatile ("cpsie i" : : : "memory");
     48c:	b662      	cpsie	i
	}
}
     48e:	4770      	bx	lr
     490:	20000258 	.word	0x20000258
     494:	2000025c 	.word	0x2000025c
     498:	20000008 	.word	0x20000008

0000049c <system_board_init>:
void board_init(void);
#  pragma weak board_init=system_board_init
#endif

void system_board_init(void)
{
     49c:	b5f0      	push	{r4, r5, r6, r7, lr}
     49e:	b083      	sub	sp, #12
	/* Sanity check arguments */
	Assert(config);

	/* Default configuration values */
	config->direction  = PORT_PIN_DIR_INPUT;
	config->input_pull = PORT_PIN_PULL_UP;
     4a0:	ac01      	add	r4, sp, #4
     4a2:	2501      	movs	r5, #1
     4a4:	7065      	strb	r5, [r4, #1]
	config->powersave  = false;
     4a6:	2700      	movs	r7, #0
     4a8:	70a7      	strb	r7, [r4, #2]
	struct port_config pin_conf;
	port_get_config_defaults(&pin_conf);

	/* Configure LEDs as outputs, turn them off */
	pin_conf.direction  = PORT_PIN_DIR_OUTPUT;
     4aa:	7025      	strb	r5, [r4, #0]
	port_pin_set_config(LED_0_PIN, &pin_conf);
     4ac:	0021      	movs	r1, r4
     4ae:	203e      	movs	r0, #62	; 0x3e
     4b0:	4e06      	ldr	r6, [pc, #24]	; (4cc <system_board_init+0x30>)
     4b2:	47b0      	blx	r6
	PortGroup *const port_base = port_get_group_from_gpio_pin(gpio_pin);
	uint32_t pin_mask  = (1UL << (gpio_pin % 32));

	/* Set the pin to high or low atomically based on the requested level */
	if (level) {
		port_base->OUTSET.reg = pin_mask;
     4b4:	2280      	movs	r2, #128	; 0x80
     4b6:	05d2      	lsls	r2, r2, #23
     4b8:	4b05      	ldr	r3, [pc, #20]	; (4d0 <system_board_init+0x34>)
     4ba:	619a      	str	r2, [r3, #24]
	port_pin_set_output_level(LED_0_PIN, LED_0_INACTIVE);

	/* Set buttons as inputs */
	pin_conf.direction  = PORT_PIN_DIR_INPUT;
     4bc:	7027      	strb	r7, [r4, #0]
	pin_conf.input_pull = PORT_PIN_PULL_UP;
     4be:	7065      	strb	r5, [r4, #1]
	port_pin_set_config(BUTTON_0_PIN, &pin_conf);
     4c0:	0021      	movs	r1, r4
     4c2:	200f      	movs	r0, #15
     4c4:	47b0      	blx	r6
	port_pin_set_output_level(AT86RFX_RST_PIN, true);
	port_pin_set_output_level(AT86RFX_SLP_PIN, true);
	pin_conf.direction  = PORT_PIN_DIR_INPUT;
	port_pin_set_config(AT86RFX_SPI_MISO, &pin_conf);
#endif	
}
     4c6:	b003      	add	sp, #12
     4c8:	bdf0      	pop	{r4, r5, r6, r7, pc}
     4ca:	46c0      	nop			; (mov r8, r8)
     4cc:	00000a05 	.word	0x00000a05
     4d0:	41004480 	.word	0x41004480

000004d4 <adc_get_config_defaults>:
 *
 * \param[out] config  Pointer to configuration struct to initialize to
 *                     default values
 */
void adc_get_config_defaults(struct adc_config *const config)
{
     4d4:	b510      	push	{r4, lr}
	Assert(config);
	config->clock_source                  = GCLK_GENERATOR_0;
     4d6:	2200      	movs	r2, #0
     4d8:	2300      	movs	r3, #0
     4da:	7002      	strb	r2, [r0, #0]
	config->reference                     = ADC_REFERENCE_INT1V;
     4dc:	7042      	strb	r2, [r0, #1]
	config->clock_prescaler               = ADC_CLOCK_PRESCALER_DIV4;
     4de:	2100      	movs	r1, #0
     4e0:	8042      	strh	r2, [r0, #2]
	config->resolution                    = ADC_RESOLUTION_12BIT;
     4e2:	7101      	strb	r1, [r0, #4]
	config->window.window_mode            = ADC_WINDOW_MODE_DISABLE;
     4e4:	7603      	strb	r3, [r0, #24]
	config->window.window_upper_value     = 0;
     4e6:	6202      	str	r2, [r0, #32]
	config->window.window_lower_value     = 0;
     4e8:	61c2      	str	r2, [r0, #28]
	config->gain_factor                   = ADC_GAIN_FACTOR_1X;
     4ea:	6082      	str	r2, [r0, #8]
#if SAMR21
	config->positive_input                = ADC_POSITIVE_INPUT_PIN6 ;
#else
 	//config->positive_input                = ADC_POSITIVE_INPUT_PIN0 ;
#endif
	config->negative_input                = ADC_NEGATIVE_INPUT_GND ;
     4ec:	24c0      	movs	r4, #192	; 0xc0
     4ee:	0164      	lsls	r4, r4, #5
     4f0:	81c4      	strh	r4, [r0, #14]
	config->accumulate_samples            = ADC_ACCUMULATE_DISABLE;
     4f2:	7403      	strb	r3, [r0, #16]
	config->divide_result                 = ADC_DIVIDE_RESULT_DISABLE;
     4f4:	7443      	strb	r3, [r0, #17]
	config->left_adjust                   = false;
     4f6:	7483      	strb	r3, [r0, #18]
	config->differential_mode             = false;
     4f8:	74c3      	strb	r3, [r0, #19]
	config->freerunning                   = false;
     4fa:	7503      	strb	r3, [r0, #20]
	config->event_action                  = ADC_EVENT_ACTION_DISABLED;
     4fc:	242a      	movs	r4, #42	; 0x2a
     4fe:	5503      	strb	r3, [r0, r4]
	config->run_in_standby                = false;
     500:	7543      	strb	r3, [r0, #21]
	config->reference_compensation_enable = false;
     502:	7583      	strb	r3, [r0, #22]
	config->correction.correction_enable  = false;
     504:	3c06      	subs	r4, #6
     506:	5503      	strb	r3, [r0, r4]
	config->correction.gain_correction    = ADC_GAINCORR_RESETVALUE;
     508:	84c2      	strh	r2, [r0, #38]	; 0x26
	config->correction.offset_correction  = ADC_OFFSETCORR_RESETVALUE;
     50a:	8502      	strh	r2, [r0, #40]	; 0x28
	config->sample_length                 = 0;
     50c:	75c1      	strb	r1, [r0, #23]
	config->pin_scan.offset_start_scan    = 0;
     50e:	232b      	movs	r3, #43	; 0x2b
     510:	54c1      	strb	r1, [r0, r3]
	config->pin_scan.inputs_to_scan       = 0;
     512:	3301      	adds	r3, #1
     514:	54c1      	strb	r1, [r0, r3]
}
     516:	bd10      	pop	{r4, pc}

00000518 <adc_init>:
 */
enum status_code adc_init(
		struct adc_module *const module_inst,
		Adc *hw,
		struct adc_config *config)
{
     518:	b5f0      	push	{r4, r5, r6, r7, lr}
     51a:	46d6      	mov	lr, sl
     51c:	464f      	mov	r7, r9
     51e:	4646      	mov	r6, r8
     520:	b5c0      	push	{r6, r7, lr}
     522:	b096      	sub	sp, #88	; 0x58
     524:	0007      	movs	r7, r0
     526:	0016      	movs	r6, r2
	Assert(module_inst);
	Assert(hw);
	Assert(config);

	/* Associate the software module instance with the hardware module */
	module_inst->hw = hw;
     528:	6001      	str	r1, [r0, #0]
		case SYSTEM_CLOCK_APB_APBB:
			PM->APBBMASK.reg |= mask;
			break;

		case SYSTEM_CLOCK_APB_APBC:
			PM->APBCMASK.reg |= mask;
     52a:	4ac6      	ldr	r2, [pc, #792]	; (844 <adc_init+0x32c>)
     52c:	6a10      	ldr	r0, [r2, #32]
     52e:	2380      	movs	r3, #128	; 0x80
     530:	025b      	lsls	r3, r3, #9
     532:	4303      	orrs	r3, r0
     534:	6213      	str	r3, [r2, #32]

	/* Turn on the digital interface clock */
	system_apb_clock_set_mask(SYSTEM_CLOCK_APB_APBC, PM_APBCMASK_ADC);

	if (hw->CTRLA.reg & ADC_CTRLA_SWRST) {
     536:	780b      	ldrb	r3, [r1, #0]
		/* We are in the middle of a reset. Abort. */
		return STATUS_BUSY;
     538:	2005      	movs	r0, #5
	if (hw->CTRLA.reg & ADC_CTRLA_SWRST) {
     53a:	07db      	lsls	r3, r3, #31
     53c:	d505      	bpl.n	54a <adc_init+0x32>
	}
#endif

	/* Write configuration to module */
	return _adc_set_config(module_inst, config);
}
     53e:	b016      	add	sp, #88	; 0x58
     540:	bc1c      	pop	{r2, r3, r4}
     542:	4690      	mov	r8, r2
     544:	4699      	mov	r9, r3
     546:	46a2      	mov	sl, r4
     548:	bdf0      	pop	{r4, r5, r6, r7, pc}
	if (hw->CTRLA.reg & ADC_CTRLA_ENABLE) {
     54a:	780b      	ldrb	r3, [r1, #0]
		return STATUS_ERR_DENIED;
     54c:	3017      	adds	r0, #23
	if (hw->CTRLA.reg & ADC_CTRLA_ENABLE) {
     54e:	079b      	lsls	r3, r3, #30
     550:	d4f5      	bmi.n	53e <adc_init+0x26>
	module_inst->reference = config->reference;
     552:	7873      	ldrb	r3, [r6, #1]
     554:	713b      	strb	r3, [r7, #4]
	if (module_inst->reference == ADC_REFERENCE_INT1V) {
     556:	2b00      	cmp	r3, #0
     558:	d104      	bne.n	564 <adc_init+0x4c>
		case SYSTEM_VOLTAGE_REFERENCE_TEMPSENSE:
			SYSCTRL->VREF.reg |= SYSCTRL_VREF_TSEN;
			break;

		case SYSTEM_VOLTAGE_REFERENCE_BANDGAP:
			SYSCTRL->VREF.reg |= SYSCTRL_VREF_BGOUTEN;
     55a:	4abb      	ldr	r2, [pc, #748]	; (848 <adc_init+0x330>)
     55c:	6c13      	ldr	r3, [r2, #64]	; 0x40
     55e:	2104      	movs	r1, #4
     560:	430b      	orrs	r3, r1
     562:	6413      	str	r3, [r2, #64]	; 0x40
		module_inst->callback[i] = NULL;
     564:	2300      	movs	r3, #0
     566:	60bb      	str	r3, [r7, #8]
     568:	60fb      	str	r3, [r7, #12]
     56a:	613b      	str	r3, [r7, #16]
	module_inst->registered_callback_mask = 0;
     56c:	76bb      	strb	r3, [r7, #26]
	module_inst->enabled_callback_mask = 0;
     56e:	76fb      	strb	r3, [r7, #27]
	module_inst->remaining_conversions = 0;
     570:	833b      	strh	r3, [r7, #24]
	module_inst->job_status = STATUS_OK;
     572:	773b      	strb	r3, [r7, #28]
	_adc_instances[0] = module_inst;
     574:	4bb5      	ldr	r3, [pc, #724]	; (84c <adc_init+0x334>)
     576:	601f      	str	r7, [r3, #0]
	if (config->event_action == ADC_EVENT_ACTION_DISABLED &&
     578:	232a      	movs	r3, #42	; 0x2a
     57a:	5cf3      	ldrb	r3, [r6, r3]
     57c:	2b00      	cmp	r3, #0
     57e:	d105      	bne.n	58c <adc_init+0x74>
     580:	7d33      	ldrb	r3, [r6, #20]
     582:	2b00      	cmp	r3, #0
     584:	d102      	bne.n	58c <adc_init+0x74>
		module_inst->software_trigger = true;
     586:	3301      	adds	r3, #1
     588:	777b      	strb	r3, [r7, #29]
     58a:	e001      	b.n	590 <adc_init+0x78>
		module_inst->software_trigger = false;
     58c:	2300      	movs	r3, #0
     58e:	777b      	strb	r3, [r7, #29]
	Adc *const adc_module = module_inst->hw;
     590:	683b      	ldr	r3, [r7, #0]
     592:	4698      	mov	r8, r3
	gclk_chan_conf.source_generator = config->clock_source;
     594:	7833      	ldrb	r3, [r6, #0]
     596:	466a      	mov	r2, sp
     598:	7013      	strb	r3, [r2, #0]
	system_gclk_chan_set_config(ADC_GCLK_ID, &gclk_chan_conf);
     59a:	4669      	mov	r1, sp
     59c:	201e      	movs	r0, #30
     59e:	4bac      	ldr	r3, [pc, #688]	; (850 <adc_init+0x338>)
     5a0:	4798      	blx	r3
	system_gclk_chan_enable(ADC_GCLK_ID);
     5a2:	201e      	movs	r0, #30
     5a4:	4bab      	ldr	r3, [pc, #684]	; (854 <adc_init+0x33c>)
     5a6:	4798      	blx	r3
	if (config->pin_scan.inputs_to_scan != 0) {
     5a8:	232c      	movs	r3, #44	; 0x2c
     5aa:	5cf2      	ldrb	r2, [r6, r3]
     5ac:	2a00      	cmp	r2, #0
     5ae:	d054      	beq.n	65a <adc_init+0x142>
		uint8_t offset = config->pin_scan.offset_start_scan;
     5b0:	3b01      	subs	r3, #1
     5b2:	5cf5      	ldrb	r5, [r6, r3]
		uint8_t start_pin =
     5b4:	7b33      	ldrb	r3, [r6, #12]
     5b6:	18eb      	adds	r3, r5, r3
     5b8:	b2db      	uxtb	r3, r3
		uint8_t end_pin =
     5ba:	18d1      	adds	r1, r2, r3
		while (start_pin < end_pin) {
     5bc:	b2c9      	uxtb	r1, r1
     5be:	428b      	cmp	r3, r1
     5c0:	d221      	bcs.n	606 <adc_init+0xee>
     5c2:	1952      	adds	r2, r2, r5
     5c4:	b2d3      	uxtb	r3, r2
     5c6:	4699      	mov	r9, r3
	const uint32_t pinmapping[] = {
     5c8:	4ba3      	ldr	r3, [pc, #652]	; (858 <adc_init+0x340>)
     5ca:	469a      	mov	sl, r3
     5cc:	e003      	b.n	5d6 <adc_init+0xbe>
			offset++;
     5ce:	3501      	adds	r5, #1
     5d0:	b2ed      	uxtb	r5, r5
		while (start_pin < end_pin) {
     5d2:	454d      	cmp	r5, r9
     5d4:	d017      	beq.n	606 <adc_init+0xee>
			_adc_configure_ain_pin((offset % 16)+(uint8_t)config->positive_input);
     5d6:	240f      	movs	r4, #15
     5d8:	402c      	ands	r4, r5
     5da:	7b33      	ldrb	r3, [r6, #12]
     5dc:	18e4      	adds	r4, r4, r3
	const uint32_t pinmapping[] = {
     5de:	2250      	movs	r2, #80	; 0x50
     5e0:	499e      	ldr	r1, [pc, #632]	; (85c <adc_init+0x344>)
     5e2:	a802      	add	r0, sp, #8
     5e4:	47d0      	blx	sl
	if (pin <= ADC_EXTCHANNEL_MSB) {
     5e6:	2c13      	cmp	r4, #19
     5e8:	d8f1      	bhi.n	5ce <adc_init+0xb6>
		pin_map_result = pinmapping[pin >> ADC_INPUTCTRL_MUXPOS_Pos];
     5ea:	00a4      	lsls	r4, r4, #2
     5ec:	ab02      	add	r3, sp, #8
     5ee:	58e0      	ldr	r0, [r4, r3]
	/* Sanity check arguments */
	Assert(config);

	/* Default configuration values */
	config->mux_position = SYSTEM_PINMUX_GPIO;
	config->direction    = SYSTEM_PINMUX_PIN_DIR_INPUT;
     5f0:	a901      	add	r1, sp, #4
     5f2:	2300      	movs	r3, #0
     5f4:	704b      	strb	r3, [r1, #1]
	config->input_pull   = SYSTEM_PINMUX_PIN_PULL_UP;
	config->powersave    = false;
     5f6:	70cb      	strb	r3, [r1, #3]
		config.input_pull   = SYSTEM_PINMUX_PIN_PULL_NONE;
     5f8:	708b      	strb	r3, [r1, #2]
		config.mux_position = 1;
     5fa:	3301      	adds	r3, #1
     5fc:	700b      	strb	r3, [r1, #0]
		system_pinmux_pin_set_config(pin_map_result, &config);
     5fe:	b2c0      	uxtb	r0, r0
     600:	4b97      	ldr	r3, [pc, #604]	; (860 <adc_init+0x348>)
     602:	4798      	blx	r3
     604:	e7e3      	b.n	5ce <adc_init+0xb6>
		_adc_configure_ain_pin(config->negative_input);
     606:	89f4      	ldrh	r4, [r6, #14]
	const uint32_t pinmapping[] = {
     608:	2250      	movs	r2, #80	; 0x50
     60a:	4994      	ldr	r1, [pc, #592]	; (85c <adc_init+0x344>)
     60c:	a802      	add	r0, sp, #8
     60e:	4b92      	ldr	r3, [pc, #584]	; (858 <adc_init+0x340>)
     610:	4798      	blx	r3
	if (pin <= ADC_EXTCHANNEL_MSB) {
     612:	2c13      	cmp	r4, #19
     614:	d913      	bls.n	63e <adc_init+0x126>
	adc_module->CTRLA.reg = (config->run_in_standby << ADC_CTRLA_RUNSTDBY_Pos);
     616:	7d73      	ldrb	r3, [r6, #21]
     618:	009b      	lsls	r3, r3, #2
     61a:	b2db      	uxtb	r3, r3
     61c:	4642      	mov	r2, r8
     61e:	7013      	strb	r3, [r2, #0]
			(config->reference_compensation_enable << ADC_REFCTRL_REFCOMP_Pos) |
     620:	7db3      	ldrb	r3, [r6, #22]
     622:	01db      	lsls	r3, r3, #7
     624:	7872      	ldrb	r2, [r6, #1]
     626:	4313      	orrs	r3, r2
     628:	b2db      	uxtb	r3, r3
	adc_module->REFCTRL.reg =
     62a:	4642      	mov	r2, r8
     62c:	7053      	strb	r3, [r2, #1]
	switch (config->resolution) {
     62e:	7933      	ldrb	r3, [r6, #4]
     630:	2b34      	cmp	r3, #52	; 0x34
     632:	d900      	bls.n	636 <adc_init+0x11e>
     634:	e17b      	b.n	92e <adc_init+0x416>
     636:	009b      	lsls	r3, r3, #2
     638:	4a8a      	ldr	r2, [pc, #552]	; (864 <adc_init+0x34c>)
     63a:	58d3      	ldr	r3, [r2, r3]
     63c:	469f      	mov	pc, r3
		pin_map_result = pinmapping[pin >> ADC_INPUTCTRL_MUXPOS_Pos];
     63e:	00a4      	lsls	r4, r4, #2
     640:	ab02      	add	r3, sp, #8
     642:	58e0      	ldr	r0, [r4, r3]
	config->direction    = SYSTEM_PINMUX_PIN_DIR_INPUT;
     644:	a901      	add	r1, sp, #4
     646:	2300      	movs	r3, #0
     648:	704b      	strb	r3, [r1, #1]
	config->powersave    = false;
     64a:	70cb      	strb	r3, [r1, #3]
		config.input_pull   = SYSTEM_PINMUX_PIN_PULL_NONE;
     64c:	708b      	strb	r3, [r1, #2]
		config.mux_position = 1;
     64e:	3301      	adds	r3, #1
     650:	700b      	strb	r3, [r1, #0]
		system_pinmux_pin_set_config(pin_map_result, &config);
     652:	b2c0      	uxtb	r0, r0
     654:	4b82      	ldr	r3, [pc, #520]	; (860 <adc_init+0x348>)
     656:	4798      	blx	r3
     658:	e7dd      	b.n	616 <adc_init+0xfe>
		_adc_configure_ain_pin(config->positive_input);
     65a:	7b34      	ldrb	r4, [r6, #12]
	const uint32_t pinmapping[] = {
     65c:	2250      	movs	r2, #80	; 0x50
     65e:	497f      	ldr	r1, [pc, #508]	; (85c <adc_init+0x344>)
     660:	a802      	add	r0, sp, #8
     662:	4b7d      	ldr	r3, [pc, #500]	; (858 <adc_init+0x340>)
     664:	4798      	blx	r3
	if (pin <= ADC_EXTCHANNEL_MSB) {
     666:	2c13      	cmp	r4, #19
     668:	d915      	bls.n	696 <adc_init+0x17e>
		_adc_configure_ain_pin(config->negative_input);
     66a:	89f4      	ldrh	r4, [r6, #14]
	const uint32_t pinmapping[] = {
     66c:	2250      	movs	r2, #80	; 0x50
     66e:	497b      	ldr	r1, [pc, #492]	; (85c <adc_init+0x344>)
     670:	a802      	add	r0, sp, #8
     672:	4b79      	ldr	r3, [pc, #484]	; (858 <adc_init+0x340>)
     674:	4798      	blx	r3
	if (pin <= ADC_EXTCHANNEL_MSB) {
     676:	2c13      	cmp	r4, #19
     678:	d8cd      	bhi.n	616 <adc_init+0xfe>
		pin_map_result = pinmapping[pin >> ADC_INPUTCTRL_MUXPOS_Pos];
     67a:	00a4      	lsls	r4, r4, #2
     67c:	ab02      	add	r3, sp, #8
     67e:	58e0      	ldr	r0, [r4, r3]
	config->direction    = SYSTEM_PINMUX_PIN_DIR_INPUT;
     680:	a901      	add	r1, sp, #4
     682:	2300      	movs	r3, #0
     684:	704b      	strb	r3, [r1, #1]
	config->powersave    = false;
     686:	70cb      	strb	r3, [r1, #3]
		config.input_pull   = SYSTEM_PINMUX_PIN_PULL_NONE;
     688:	708b      	strb	r3, [r1, #2]
		config.mux_position = 1;
     68a:	3301      	adds	r3, #1
     68c:	700b      	strb	r3, [r1, #0]
		system_pinmux_pin_set_config(pin_map_result, &config);
     68e:	b2c0      	uxtb	r0, r0
     690:	4b73      	ldr	r3, [pc, #460]	; (860 <adc_init+0x348>)
     692:	4798      	blx	r3
     694:	e7bf      	b.n	616 <adc_init+0xfe>
		pin_map_result = pinmapping[pin >> ADC_INPUTCTRL_MUXPOS_Pos];
     696:	00a4      	lsls	r4, r4, #2
     698:	ab02      	add	r3, sp, #8
     69a:	58e0      	ldr	r0, [r4, r3]
	config->direction    = SYSTEM_PINMUX_PIN_DIR_INPUT;
     69c:	a901      	add	r1, sp, #4
     69e:	2300      	movs	r3, #0
     6a0:	704b      	strb	r3, [r1, #1]
	config->powersave    = false;
     6a2:	70cb      	strb	r3, [r1, #3]
		config.input_pull   = SYSTEM_PINMUX_PIN_PULL_NONE;
     6a4:	708b      	strb	r3, [r1, #2]
		config.mux_position = 1;
     6a6:	3301      	adds	r3, #1
     6a8:	700b      	strb	r3, [r1, #0]
		system_pinmux_pin_set_config(pin_map_result, &config);
     6aa:	b2c0      	uxtb	r0, r0
     6ac:	4b6c      	ldr	r3, [pc, #432]	; (860 <adc_init+0x348>)
     6ae:	4798      	blx	r3
     6b0:	e7db      	b.n	66a <adc_init+0x152>
		accumulate = ADC_ACCUMULATE_SAMPLES_16;
     6b2:	2304      	movs	r3, #4
		resolution = ADC_RESOLUTION_16BIT;
     6b4:	2410      	movs	r4, #16
		adjres = ADC_DIVIDE_RESULT_4;
     6b6:	2102      	movs	r1, #2
     6b8:	e01a      	b.n	6f0 <adc_init+0x1d8>
		adjres = config->divide_result;
     6ba:	7c71      	ldrb	r1, [r6, #17]
		accumulate = config->accumulate_samples;
     6bc:	7c33      	ldrb	r3, [r6, #16]
		resolution = ADC_RESOLUTION_16BIT;
     6be:	2410      	movs	r4, #16
     6c0:	e016      	b.n	6f0 <adc_init+0x1d8>
		accumulate = ADC_ACCUMULATE_SAMPLES_64;
     6c2:	2306      	movs	r3, #6
		resolution = ADC_RESOLUTION_16BIT;
     6c4:	2410      	movs	r4, #16
		adjres = ADC_DIVIDE_RESULT_2;
     6c6:	2101      	movs	r1, #1
     6c8:	e012      	b.n	6f0 <adc_init+0x1d8>
		accumulate = ADC_ACCUMULATE_SAMPLES_256;
     6ca:	2308      	movs	r3, #8
		resolution = ADC_RESOLUTION_16BIT;
     6cc:	2410      	movs	r4, #16
		adjres = ADC_DIVIDE_RESULT_DISABLE;
     6ce:	2100      	movs	r1, #0
     6d0:	e00e      	b.n	6f0 <adc_init+0x1d8>
	enum adc_accumulate_samples accumulate = ADC_ACCUMULATE_DISABLE;
     6d2:	2300      	movs	r3, #0
		resolution = ADC_RESOLUTION_8BIT;
     6d4:	2430      	movs	r4, #48	; 0x30
	uint8_t adjres = 0;
     6d6:	2100      	movs	r1, #0
     6d8:	e00a      	b.n	6f0 <adc_init+0x1d8>
	enum adc_accumulate_samples accumulate = ADC_ACCUMULATE_DISABLE;
     6da:	2300      	movs	r3, #0
		resolution = ADC_RESOLUTION_10BIT;
     6dc:	2420      	movs	r4, #32
	uint8_t adjres = 0;
     6de:	2100      	movs	r1, #0
     6e0:	e006      	b.n	6f0 <adc_init+0x1d8>
	enum adc_accumulate_samples accumulate = ADC_ACCUMULATE_DISABLE;
     6e2:	2300      	movs	r3, #0
		resolution = ADC_RESOLUTION_12BIT;
     6e4:	2400      	movs	r4, #0
	uint8_t adjres = 0;
     6e6:	2100      	movs	r1, #0
     6e8:	e002      	b.n	6f0 <adc_init+0x1d8>
		accumulate = ADC_ACCUMULATE_SAMPLES_4;
     6ea:	2302      	movs	r3, #2
		resolution = ADC_RESOLUTION_16BIT;
     6ec:	2410      	movs	r4, #16
		adjres = ADC_DIVIDE_RESULT_2;
     6ee:	2101      	movs	r1, #1
	adc_module->AVGCTRL.reg = ADC_AVGCTRL_ADJRES(adjres) | accumulate;
     6f0:	0109      	lsls	r1, r1, #4
     6f2:	2270      	movs	r2, #112	; 0x70
     6f4:	400a      	ands	r2, r1
     6f6:	4313      	orrs	r3, r2
     6f8:	4642      	mov	r2, r8
     6fa:	7093      	strb	r3, [r2, #2]
	if (config->sample_length > 63) {
     6fc:	7df3      	ldrb	r3, [r6, #23]
		return STATUS_ERR_INVALID_ARG;
     6fe:	2017      	movs	r0, #23
	if (config->sample_length > 63) {
     700:	2b3f      	cmp	r3, #63	; 0x3f
     702:	d900      	bls.n	706 <adc_init+0x1ee>
     704:	e71b      	b.n	53e <adc_init+0x26>
		adc_module->SAMPCTRL.reg =
     706:	70d3      	strb	r3, [r2, #3]
	struct adc_module *const module_inst)
{
	/* Sanity check arguments */
	Assert(module_inst);

	Adc *const adc_module = module_inst->hw;
     708:	683a      	ldr	r2, [r7, #0]

	if (adc_module->STATUS.reg & ADC_STATUS_SYNCBUSY) {
     70a:	7e53      	ldrb	r3, [r2, #25]
	while (adc_is_syncing(module_inst)) {
     70c:	b25b      	sxtb	r3, r3
     70e:	2b00      	cmp	r3, #0
     710:	dbfb      	blt.n	70a <adc_init+0x1f2>
			(config->differential_mode << ADC_CTRLB_DIFFMODE_Pos);
     712:	7cf3      	ldrb	r3, [r6, #19]
			(config->left_adjust << ADC_CTRLB_LEFTADJ_Pos) |
     714:	8872      	ldrh	r2, [r6, #2]
     716:	4313      	orrs	r3, r2
			(config->correction.correction_enable << ADC_CTRLB_CORREN_Pos) |
     718:	2224      	movs	r2, #36	; 0x24
     71a:	5cb2      	ldrb	r2, [r6, r2]
     71c:	00d2      	lsls	r2, r2, #3
			(config->left_adjust << ADC_CTRLB_LEFTADJ_Pos) |
     71e:	4313      	orrs	r3, r2
			(config->freerunning << ADC_CTRLB_FREERUN_Pos) |
     720:	7d32      	ldrb	r2, [r6, #20]
     722:	0092      	lsls	r2, r2, #2
			(config->left_adjust << ADC_CTRLB_LEFTADJ_Pos) |
     724:	4313      	orrs	r3, r2
     726:	7cb2      	ldrb	r2, [r6, #18]
     728:	0052      	lsls	r2, r2, #1
     72a:	4313      	orrs	r3, r2
     72c:	4323      	orrs	r3, r4
	adc_module->CTRLB.reg =
     72e:	4642      	mov	r2, r8
     730:	8093      	strh	r3, [r2, #4]
	if (config->window.window_mode != ADC_WINDOW_MODE_DISABLE) {
     732:	7e33      	ldrb	r3, [r6, #24]
     734:	2b00      	cmp	r3, #0
     736:	d020      	beq.n	77a <adc_init+0x262>
		switch (resolution) {
     738:	2c10      	cmp	r4, #16
     73a:	d100      	bne.n	73e <adc_init+0x226>
     73c:	e0d9      	b.n	8f2 <adc_init+0x3da>
     73e:	d800      	bhi.n	742 <adc_init+0x22a>
     740:	e098      	b.n	874 <adc_init+0x35c>
     742:	2c20      	cmp	r4, #32
     744:	d100      	bne.n	748 <adc_init+0x230>
     746:	e0b6      	b.n	8b6 <adc_init+0x39e>
     748:	2c30      	cmp	r4, #48	; 0x30
     74a:	d116      	bne.n	77a <adc_init+0x262>
			if (config->differential_mode &&
     74c:	7cf2      	ldrb	r2, [r6, #19]
     74e:	2a00      	cmp	r2, #0
     750:	d00a      	beq.n	768 <adc_init+0x250>
					(config->window.window_lower_value > 127 ||
     752:	69f2      	ldr	r2, [r6, #28]
     754:	3280      	adds	r2, #128	; 0x80
				return STATUS_ERR_INVALID_ARG;
     756:	2017      	movs	r0, #23
			if (config->differential_mode &&
     758:	2aff      	cmp	r2, #255	; 0xff
     75a:	d900      	bls.n	75e <adc_init+0x246>
     75c:	e6ef      	b.n	53e <adc_init+0x26>
					config->window.window_lower_value < -128 ||
     75e:	6a32      	ldr	r2, [r6, #32]
     760:	3280      	adds	r2, #128	; 0x80
     762:	2aff      	cmp	r2, #255	; 0xff
     764:	d900      	bls.n	768 <adc_init+0x250>
     766:	e6ea      	b.n	53e <adc_init+0x26>
				return STATUS_ERR_INVALID_ARG;
     768:	2017      	movs	r0, #23
			} else if (config->window.window_lower_value > 255 ||
     76a:	69f2      	ldr	r2, [r6, #28]
     76c:	2aff      	cmp	r2, #255	; 0xff
     76e:	dd00      	ble.n	772 <adc_init+0x25a>
     770:	e6e5      	b.n	53e <adc_init+0x26>
     772:	6a32      	ldr	r2, [r6, #32]
     774:	2aff      	cmp	r2, #255	; 0xff
     776:	dd00      	ble.n	77a <adc_init+0x262>
     778:	e6e1      	b.n	53e <adc_init+0x26>
	Adc *const adc_module = module_inst->hw;
     77a:	6839      	ldr	r1, [r7, #0]
	if (adc_module->STATUS.reg & ADC_STATUS_SYNCBUSY) {
     77c:	7e4a      	ldrb	r2, [r1, #25]
	while (adc_is_syncing(module_inst)) {
     77e:	b252      	sxtb	r2, r2
     780:	2a00      	cmp	r2, #0
     782:	dbfb      	blt.n	77c <adc_init+0x264>
	adc_module->WINCTRL.reg = config->window.window_mode;
     784:	4642      	mov	r2, r8
     786:	7213      	strb	r3, [r2, #8]
	Adc *const adc_module = module_inst->hw;
     788:	683a      	ldr	r2, [r7, #0]
	if (adc_module->STATUS.reg & ADC_STATUS_SYNCBUSY) {
     78a:	7e53      	ldrb	r3, [r2, #25]
	while (adc_is_syncing(module_inst)) {
     78c:	b25b      	sxtb	r3, r3
     78e:	2b00      	cmp	r3, #0
     790:	dbfb      	blt.n	78a <adc_init+0x272>
	adc_module->WINLT.reg =
     792:	8bb3      	ldrh	r3, [r6, #28]
     794:	4642      	mov	r2, r8
     796:	8393      	strh	r3, [r2, #28]
	Adc *const adc_module = module_inst->hw;
     798:	683a      	ldr	r2, [r7, #0]
	if (adc_module->STATUS.reg & ADC_STATUS_SYNCBUSY) {
     79a:	7e53      	ldrb	r3, [r2, #25]
	while (adc_is_syncing(module_inst)) {
     79c:	b25b      	sxtb	r3, r3
     79e:	2b00      	cmp	r3, #0
     7a0:	dbfb      	blt.n	79a <adc_init+0x282>
	adc_module->WINUT.reg = config->window.window_upper_value <<
     7a2:	8c33      	ldrh	r3, [r6, #32]
     7a4:	4642      	mov	r2, r8
     7a6:	8413      	strh	r3, [r2, #32]
	uint8_t inputs_to_scan = config->pin_scan.inputs_to_scan;
     7a8:	232c      	movs	r3, #44	; 0x2c
     7aa:	5cf3      	ldrb	r3, [r6, r3]
	if (inputs_to_scan > 0) {
     7ac:	2b00      	cmp	r3, #0
     7ae:	d005      	beq.n	7bc <adc_init+0x2a4>
		inputs_to_scan--;
     7b0:	3b01      	subs	r3, #1
     7b2:	b2db      	uxtb	r3, r3
		return STATUS_ERR_INVALID_ARG;
     7b4:	2017      	movs	r0, #23
	if (inputs_to_scan > (ADC_INPUTCTRL_INPUTSCAN_Msk >> ADC_INPUTCTRL_INPUTSCAN_Pos) ||
     7b6:	2b0f      	cmp	r3, #15
     7b8:	d900      	bls.n	7bc <adc_init+0x2a4>
     7ba:	e6c0      	b.n	53e <adc_init+0x26>
			config->pin_scan.offset_start_scan > (ADC_INPUTCTRL_INPUTOFFSET_Msk >> ADC_INPUTCTRL_INPUTOFFSET_Pos)) {
     7bc:	222b      	movs	r2, #43	; 0x2b
     7be:	5cb1      	ldrb	r1, [r6, r2]
		return STATUS_ERR_INVALID_ARG;
     7c0:	2017      	movs	r0, #23
	if (inputs_to_scan > (ADC_INPUTCTRL_INPUTSCAN_Msk >> ADC_INPUTCTRL_INPUTSCAN_Pos) ||
     7c2:	290f      	cmp	r1, #15
     7c4:	d900      	bls.n	7c8 <adc_init+0x2b0>
     7c6:	e6ba      	b.n	53e <adc_init+0x26>
	Adc *const adc_module = module_inst->hw;
     7c8:	6838      	ldr	r0, [r7, #0]
	if (adc_module->STATUS.reg & ADC_STATUS_SYNCBUSY) {
     7ca:	7e42      	ldrb	r2, [r0, #25]
	while (adc_is_syncing(module_inst)) {
     7cc:	b252      	sxtb	r2, r2
     7ce:	2a00      	cmp	r2, #0
     7d0:	dbfb      	blt.n	7ca <adc_init+0x2b2>
			config->negative_input |
     7d2:	89f2      	ldrh	r2, [r6, #14]
			config->positive_input;
     7d4:	7b30      	ldrb	r0, [r6, #12]
			config->negative_input |
     7d6:	4302      	orrs	r2, r0
     7d8:	68b0      	ldr	r0, [r6, #8]
     7da:	4302      	orrs	r2, r0
			(config->pin_scan.offset_start_scan <<
     7dc:	0509      	lsls	r1, r1, #20
			config->negative_input |
     7de:	430a      	orrs	r2, r1
			(inputs_to_scan << ADC_INPUTCTRL_INPUTSCAN_Pos) |
     7e0:	041b      	lsls	r3, r3, #16
			config->negative_input |
     7e2:	4313      	orrs	r3, r2
	adc_module->INPUTCTRL.reg =
     7e4:	4642      	mov	r2, r8
     7e6:	6113      	str	r3, [r2, #16]
	adc_module->EVCTRL.reg = config->event_action;
     7e8:	232a      	movs	r3, #42	; 0x2a
     7ea:	5cf3      	ldrb	r3, [r6, r3]
     7ec:	7513      	strb	r3, [r2, #20]
	adc_module->INTENCLR.reg =
     7ee:	230f      	movs	r3, #15
     7f0:	7593      	strb	r3, [r2, #22]
	if (config->correction.correction_enable){
     7f2:	3315      	adds	r3, #21
     7f4:	5cf3      	ldrb	r3, [r6, r3]
     7f6:	2b00      	cmp	r3, #0
     7f8:	d012      	beq.n	820 <adc_init+0x308>
		if (config->correction.gain_correction > ADC_GAINCORR_GAINCORR_Msk) {
     7fa:	8cf3      	ldrh	r3, [r6, #38]	; 0x26
     7fc:	4a1a      	ldr	r2, [pc, #104]	; (868 <adc_init+0x350>)
			return STATUS_ERR_INVALID_ARG;
     7fe:	2017      	movs	r0, #23
		if (config->correction.gain_correction > ADC_GAINCORR_GAINCORR_Msk) {
     800:	4293      	cmp	r3, r2
     802:	d900      	bls.n	806 <adc_init+0x2ee>
     804:	e69b      	b.n	53e <adc_init+0x26>
			adc_module->GAINCORR.reg = config->correction.gain_correction <<
     806:	4642      	mov	r2, r8
     808:	8493      	strh	r3, [r2, #36]	; 0x24
		if (config->correction.offset_correction > 2047 ||
     80a:	8d32      	ldrh	r2, [r6, #40]	; 0x28
     80c:	2380      	movs	r3, #128	; 0x80
     80e:	011b      	lsls	r3, r3, #4
     810:	18d3      	adds	r3, r2, r3
     812:	4915      	ldr	r1, [pc, #84]	; (868 <adc_init+0x350>)
     814:	b29b      	uxth	r3, r3
     816:	428b      	cmp	r3, r1
     818:	d900      	bls.n	81c <adc_init+0x304>
     81a:	e690      	b.n	53e <adc_init+0x26>
			adc_module->OFFSETCORR.reg = config->correction.offset_correction <<
     81c:	4643      	mov	r3, r8
     81e:	84da      	strh	r2, [r3, #38]	; 0x26
			ADC_CALIB_BIAS_CAL(
     820:	4b12      	ldr	r3, [pc, #72]	; (86c <adc_init+0x354>)
     822:	681b      	ldr	r3, [r3, #0]
     824:	015b      	lsls	r3, r3, #5
     826:	22e0      	movs	r2, #224	; 0xe0
     828:	00d2      	lsls	r2, r2, #3
     82a:	4013      	ands	r3, r2
			ADC_CALIB_LINEARITY_CAL(
     82c:	4a10      	ldr	r2, [pc, #64]	; (870 <adc_init+0x358>)
     82e:	6851      	ldr	r1, [r2, #4]
     830:	0149      	lsls	r1, r1, #5
     832:	6812      	ldr	r2, [r2, #0]
     834:	0ed2      	lsrs	r2, r2, #27
     836:	430a      	orrs	r2, r1
     838:	b2d2      	uxtb	r2, r2
			) |
     83a:	4313      	orrs	r3, r2
	adc_module->CALIB.reg =
     83c:	4642      	mov	r2, r8
     83e:	8513      	strh	r3, [r2, #40]	; 0x28
	return STATUS_OK;
     840:	2000      	movs	r0, #0
     842:	e67c      	b.n	53e <adc_init+0x26>
     844:	40000400 	.word	0x40000400
     848:	40000800 	.word	0x40000800
     84c:	200002a8 	.word	0x200002a8
     850:	00001a11 	.word	0x00001a11
     854:	00001985 	.word	0x00001985
     858:	00003309 	.word	0x00003309
     85c:	00004978 	.word	0x00004978
     860:	00001b09 	.word	0x00001b09
     864:	000048a4 	.word	0x000048a4
     868:	00000fff 	.word	0x00000fff
     86c:	00806024 	.word	0x00806024
     870:	00806020 	.word	0x00806020
		switch (resolution) {
     874:	2c00      	cmp	r4, #0
     876:	d000      	beq.n	87a <adc_init+0x362>
     878:	e77f      	b.n	77a <adc_init+0x262>
			if (config->differential_mode &&
     87a:	7cf2      	ldrb	r2, [r6, #19]
     87c:	2a00      	cmp	r2, #0
     87e:	d00f      	beq.n	8a0 <adc_init+0x388>
					(config->window.window_lower_value > 2047 ||
     880:	69f2      	ldr	r2, [r6, #28]
     882:	2180      	movs	r1, #128	; 0x80
     884:	0109      	lsls	r1, r1, #4
     886:	468c      	mov	ip, r1
     888:	4462      	add	r2, ip
			if (config->differential_mode &&
     88a:	492a      	ldr	r1, [pc, #168]	; (934 <adc_init+0x41c>)
				return STATUS_ERR_INVALID_ARG;
     88c:	2017      	movs	r0, #23
			if (config->differential_mode &&
     88e:	428a      	cmp	r2, r1
     890:	d900      	bls.n	894 <adc_init+0x37c>
     892:	e654      	b.n	53e <adc_init+0x26>
					config->window.window_lower_value < -2048 ||
     894:	6a32      	ldr	r2, [r6, #32]
     896:	4462      	add	r2, ip
     898:	4926      	ldr	r1, [pc, #152]	; (934 <adc_init+0x41c>)
     89a:	428a      	cmp	r2, r1
     89c:	d900      	bls.n	8a0 <adc_init+0x388>
     89e:	e64e      	b.n	53e <adc_init+0x26>
			} else if (config->window.window_lower_value > 4095 ||
     8a0:	4a24      	ldr	r2, [pc, #144]	; (934 <adc_init+0x41c>)
				return STATUS_ERR_INVALID_ARG;
     8a2:	2017      	movs	r0, #23
			} else if (config->window.window_lower_value > 4095 ||
     8a4:	69f1      	ldr	r1, [r6, #28]
     8a6:	4291      	cmp	r1, r2
     8a8:	dd00      	ble.n	8ac <adc_init+0x394>
     8aa:	e648      	b.n	53e <adc_init+0x26>
     8ac:	6a31      	ldr	r1, [r6, #32]
     8ae:	4291      	cmp	r1, r2
     8b0:	dd00      	ble.n	8b4 <adc_init+0x39c>
     8b2:	e644      	b.n	53e <adc_init+0x26>
     8b4:	e761      	b.n	77a <adc_init+0x262>
			if (config->differential_mode &&
     8b6:	7cf2      	ldrb	r2, [r6, #19]
     8b8:	2a00      	cmp	r2, #0
     8ba:	d00f      	beq.n	8dc <adc_init+0x3c4>
					(config->window.window_lower_value > 511 ||
     8bc:	69f2      	ldr	r2, [r6, #28]
     8be:	2180      	movs	r1, #128	; 0x80
     8c0:	0089      	lsls	r1, r1, #2
     8c2:	468c      	mov	ip, r1
     8c4:	4462      	add	r2, ip
			if (config->differential_mode &&
     8c6:	491c      	ldr	r1, [pc, #112]	; (938 <adc_init+0x420>)
				return STATUS_ERR_INVALID_ARG;
     8c8:	2017      	movs	r0, #23
			if (config->differential_mode &&
     8ca:	428a      	cmp	r2, r1
     8cc:	d900      	bls.n	8d0 <adc_init+0x3b8>
     8ce:	e636      	b.n	53e <adc_init+0x26>
					config->window.window_lower_value < -512 ||
     8d0:	6a32      	ldr	r2, [r6, #32]
     8d2:	4462      	add	r2, ip
     8d4:	4918      	ldr	r1, [pc, #96]	; (938 <adc_init+0x420>)
     8d6:	428a      	cmp	r2, r1
     8d8:	d900      	bls.n	8dc <adc_init+0x3c4>
     8da:	e630      	b.n	53e <adc_init+0x26>
			} else if (config->window.window_lower_value > 1023 ||
     8dc:	4a16      	ldr	r2, [pc, #88]	; (938 <adc_init+0x420>)
				return STATUS_ERR_INVALID_ARG;
     8de:	2017      	movs	r0, #23
			} else if (config->window.window_lower_value > 1023 ||
     8e0:	69f1      	ldr	r1, [r6, #28]
     8e2:	4291      	cmp	r1, r2
     8e4:	dd00      	ble.n	8e8 <adc_init+0x3d0>
     8e6:	e62a      	b.n	53e <adc_init+0x26>
     8e8:	6a31      	ldr	r1, [r6, #32]
     8ea:	4291      	cmp	r1, r2
     8ec:	dd00      	ble.n	8f0 <adc_init+0x3d8>
     8ee:	e626      	b.n	53e <adc_init+0x26>
     8f0:	e743      	b.n	77a <adc_init+0x262>
			if (config->differential_mode &&
     8f2:	7cf2      	ldrb	r2, [r6, #19]
     8f4:	2a00      	cmp	r2, #0
     8f6:	d00f      	beq.n	918 <adc_init+0x400>
					(config->window.window_lower_value > 32767 ||
     8f8:	69f2      	ldr	r2, [r6, #28]
     8fa:	2180      	movs	r1, #128	; 0x80
     8fc:	0209      	lsls	r1, r1, #8
     8fe:	468c      	mov	ip, r1
     900:	4462      	add	r2, ip
			if (config->differential_mode &&
     902:	490e      	ldr	r1, [pc, #56]	; (93c <adc_init+0x424>)
				return STATUS_ERR_INVALID_ARG;
     904:	2017      	movs	r0, #23
			if (config->differential_mode &&
     906:	428a      	cmp	r2, r1
     908:	d900      	bls.n	90c <adc_init+0x3f4>
     90a:	e618      	b.n	53e <adc_init+0x26>
					config->window.window_lower_value < -32768 ||
     90c:	6a32      	ldr	r2, [r6, #32]
     90e:	4462      	add	r2, ip
     910:	490a      	ldr	r1, [pc, #40]	; (93c <adc_init+0x424>)
     912:	428a      	cmp	r2, r1
     914:	d900      	bls.n	918 <adc_init+0x400>
     916:	e612      	b.n	53e <adc_init+0x26>
			} else if (config->window.window_lower_value > 65535 ||
     918:	4a08      	ldr	r2, [pc, #32]	; (93c <adc_init+0x424>)
				return STATUS_ERR_INVALID_ARG;
     91a:	2017      	movs	r0, #23
			} else if (config->window.window_lower_value > 65535 ||
     91c:	69f1      	ldr	r1, [r6, #28]
     91e:	4291      	cmp	r1, r2
     920:	dd00      	ble.n	924 <adc_init+0x40c>
     922:	e60c      	b.n	53e <adc_init+0x26>
     924:	6a31      	ldr	r1, [r6, #32]
     926:	4291      	cmp	r1, r2
     928:	dd00      	ble.n	92c <adc_init+0x414>
     92a:	e608      	b.n	53e <adc_init+0x26>
     92c:	e725      	b.n	77a <adc_init+0x262>
		return STATUS_ERR_INVALID_ARG;
     92e:	2017      	movs	r0, #23
     930:	e605      	b.n	53e <adc_init+0x26>
     932:	46c0      	nop			; (mov r8, r8)
     934:	00000fff 	.word	0x00000fff
     938:	000003ff 	.word	0x000003ff
     93c:	0000ffff 	.word	0x0000ffff

00000940 <ADC_Handler>:
	}
}

/** Interrupt handler for the ADC module. */
void ADC_Handler(void)
{
     940:	b570      	push	{r4, r5, r6, lr}
	struct adc_module *module = _adc_instances[instance];
     942:	4b2f      	ldr	r3, [pc, #188]	; (a00 <ADC_Handler+0xc0>)
     944:	681d      	ldr	r5, [r3, #0]
	uint32_t flags = module->hw->INTFLAG.reg & module->hw->INTENSET.reg;
     946:	682b      	ldr	r3, [r5, #0]
     948:	7e1a      	ldrb	r2, [r3, #24]
     94a:	7ddc      	ldrb	r4, [r3, #23]
     94c:	4014      	ands	r4, r2
	if (flags & ADC_INTFLAG_RESRDY) {
     94e:	07e2      	lsls	r2, r4, #31
     950:	d416      	bmi.n	980 <ADC_Handler+0x40>
	if (flags & ADC_INTFLAG_WINMON) {
     952:	0763      	lsls	r3, r4, #29
     954:	d508      	bpl.n	968 <ADC_Handler+0x28>
		module->hw->INTFLAG.reg = ADC_INTFLAG_WINMON;
     956:	2304      	movs	r3, #4
     958:	682a      	ldr	r2, [r5, #0]
     95a:	7613      	strb	r3, [r2, #24]
		if ((module->enabled_callback_mask & (1 << ADC_CALLBACK_WINDOW)) &&
     95c:	7eeb      	ldrb	r3, [r5, #27]
     95e:	079b      	lsls	r3, r3, #30
     960:	d502      	bpl.n	968 <ADC_Handler+0x28>
     962:	7eab      	ldrb	r3, [r5, #26]
     964:	079b      	lsls	r3, r3, #30
     966:	d442      	bmi.n	9ee <ADC_Handler+0xae>
	if (flags & ADC_INTFLAG_OVERRUN) {
     968:	07a3      	lsls	r3, r4, #30
     96a:	d508      	bpl.n	97e <ADC_Handler+0x3e>
		module->hw->INTFLAG.reg = ADC_INTFLAG_OVERRUN;
     96c:	2302      	movs	r3, #2
     96e:	682a      	ldr	r2, [r5, #0]
     970:	7613      	strb	r3, [r2, #24]
		if ((module->enabled_callback_mask & (1 << ADC_CALLBACK_ERROR)) &&
     972:	7eeb      	ldrb	r3, [r5, #27]
     974:	075b      	lsls	r3, r3, #29
     976:	d502      	bpl.n	97e <ADC_Handler+0x3e>
     978:	7eab      	ldrb	r3, [r5, #26]
     97a:	075b      	lsls	r3, r3, #29
     97c:	d43b      	bmi.n	9f6 <ADC_Handler+0xb6>
	_adc_interrupt_handler(0);
}
     97e:	bd70      	pop	{r4, r5, r6, pc}
		module->hw->INTFLAG.reg = ADC_INTFLAG_RESRDY;
     980:	2201      	movs	r2, #1
     982:	761a      	strb	r2, [r3, #24]
	Adc *const adc_module = module_inst->hw;
     984:	682a      	ldr	r2, [r5, #0]
	if (adc_module->STATUS.reg & ADC_STATUS_SYNCBUSY) {
     986:	7e53      	ldrb	r3, [r2, #25]
		while (adc_is_syncing(module)) {
     988:	b25b      	sxtb	r3, r3
     98a:	2b00      	cmp	r3, #0
     98c:	dbfb      	blt.n	986 <ADC_Handler+0x46>
		*(module->job_buffer++) = module->hw->RESULT.reg;
     98e:	6969      	ldr	r1, [r5, #20]
     990:	1c8b      	adds	r3, r1, #2
     992:	616b      	str	r3, [r5, #20]
     994:	8b53      	ldrh	r3, [r2, #26]
     996:	b29b      	uxth	r3, r3
     998:	800b      	strh	r3, [r1, #0]
		if (--module->remaining_conversions > 0) {
     99a:	8b2b      	ldrh	r3, [r5, #24]
     99c:	3b01      	subs	r3, #1
     99e:	b29b      	uxth	r3, r3
     9a0:	832b      	strh	r3, [r5, #24]
     9a2:	2b00      	cmp	r3, #0
     9a4:	d011      	beq.n	9ca <ADC_Handler+0x8a>
			if (module->software_trigger == true) {
     9a6:	7f6b      	ldrb	r3, [r5, #29]
     9a8:	2b00      	cmp	r3, #0
     9aa:	d0d2      	beq.n	952 <ADC_Handler+0x12>
		struct adc_module *const module_inst)
{
	Assert(module_inst);
	Assert(module_inst->hw);

	Adc *const adc_module = module_inst->hw;
     9ac:	682a      	ldr	r2, [r5, #0]
     9ae:	7e53      	ldrb	r3, [r2, #25]

	while (adc_is_syncing(module_inst)) {
     9b0:	b25b      	sxtb	r3, r3
     9b2:	2b00      	cmp	r3, #0
     9b4:	dbfb      	blt.n	9ae <ADC_Handler+0x6e>
		/* Wait for synchronization */
	}

	adc_module->SWTRIG.reg |= ADC_SWTRIG_START;
     9b6:	7b13      	ldrb	r3, [r2, #12]
     9b8:	2102      	movs	r1, #2
     9ba:	430b      	orrs	r3, r1
     9bc:	7313      	strb	r3, [r2, #12]
	Adc *const adc_module = module_inst->hw;
     9be:	682a      	ldr	r2, [r5, #0]
	if (adc_module->STATUS.reg & ADC_STATUS_SYNCBUSY) {
     9c0:	7e53      	ldrb	r3, [r2, #25]

	while (adc_is_syncing(module_inst)) {
     9c2:	b25b      	sxtb	r3, r3
     9c4:	2b00      	cmp	r3, #0
     9c6:	dbfb      	blt.n	9c0 <ADC_Handler+0x80>
     9c8:	e7c3      	b.n	952 <ADC_Handler+0x12>
	Assert(module_inst);
	Assert(module_inst->hw);

	Adc *const adc_module = module_inst->hw;
	/* Enable interrupt */
	adc_module->INTENCLR.reg = interrupt;
     9ca:	2301      	movs	r3, #1
     9cc:	682a      	ldr	r2, [r5, #0]
     9ce:	7593      	strb	r3, [r2, #22]
			if (module->job_status == STATUS_BUSY) {
     9d0:	7f2b      	ldrb	r3, [r5, #28]
     9d2:	2b05      	cmp	r3, #5
     9d4:	d1bd      	bne.n	952 <ADC_Handler+0x12>
				module->job_status = STATUS_OK;
     9d6:	2300      	movs	r3, #0
     9d8:	772b      	strb	r3, [r5, #28]
				if ((module->enabled_callback_mask &
     9da:	7eeb      	ldrb	r3, [r5, #27]
     9dc:	07db      	lsls	r3, r3, #31
     9de:	d5b8      	bpl.n	952 <ADC_Handler+0x12>
						(1 << ADC_CALLBACK_READ_BUFFER)) &&
     9e0:	7eab      	ldrb	r3, [r5, #26]
     9e2:	07db      	lsls	r3, r3, #31
     9e4:	d5b5      	bpl.n	952 <ADC_Handler+0x12>
					(module->callback[ADC_CALLBACK_READ_BUFFER])(module);
     9e6:	0028      	movs	r0, r5
     9e8:	68ab      	ldr	r3, [r5, #8]
     9ea:	4798      	blx	r3
     9ec:	e7b1      	b.n	952 <ADC_Handler+0x12>
			(module->callback[ADC_CALLBACK_WINDOW])(module);
     9ee:	0028      	movs	r0, r5
     9f0:	68eb      	ldr	r3, [r5, #12]
     9f2:	4798      	blx	r3
     9f4:	e7b8      	b.n	968 <ADC_Handler+0x28>
			(module->callback[ADC_CALLBACK_ERROR])(module);
     9f6:	692b      	ldr	r3, [r5, #16]
     9f8:	0028      	movs	r0, r5
     9fa:	4798      	blx	r3
}
     9fc:	e7bf      	b.n	97e <ADC_Handler+0x3e>
     9fe:	46c0      	nop			; (mov r8, r8)
     a00:	200002a8 	.word	0x200002a8

00000a04 <port_pin_set_config>:
 *  \param[in] config    Configuration settings for the pin
 */
void port_pin_set_config(
		const uint8_t gpio_pin,
		const struct port_config *const config)
{
     a04:	b500      	push	{lr}
     a06:	b083      	sub	sp, #12
	config->mux_position = SYSTEM_PINMUX_GPIO;
     a08:	ab01      	add	r3, sp, #4
     a0a:	2280      	movs	r2, #128	; 0x80
     a0c:	701a      	strb	r2, [r3, #0]

	struct system_pinmux_config pinmux_config;
	system_pinmux_get_config_defaults(&pinmux_config);

	pinmux_config.mux_position = SYSTEM_PINMUX_GPIO;
	pinmux_config.direction    = (enum system_pinmux_pin_dir)config->direction;
     a0e:	780a      	ldrb	r2, [r1, #0]
     a10:	705a      	strb	r2, [r3, #1]
	pinmux_config.input_pull   = (enum system_pinmux_pin_pull)config->input_pull;
     a12:	784a      	ldrb	r2, [r1, #1]
     a14:	709a      	strb	r2, [r3, #2]
	pinmux_config.powersave    = config->powersave;
     a16:	788a      	ldrb	r2, [r1, #2]
     a18:	70da      	strb	r2, [r3, #3]

	system_pinmux_pin_set_config(gpio_pin, &pinmux_config);
     a1a:	0019      	movs	r1, r3
     a1c:	4b01      	ldr	r3, [pc, #4]	; (a24 <port_pin_set_config+0x20>)
     a1e:	4798      	blx	r3
}
     a20:	b003      	add	sp, #12
     a22:	bd00      	pop	{pc}
     a24:	00001b09 	.word	0x00001b09

00000a28 <long_division>:
/**
 * \internal Calculate 64 bit division, ref can be found in
 * http://en.wikipedia.org/wiki/Division_algorithm#Long_division
 */
static uint64_t long_division(uint64_t n, uint64_t d)
{
     a28:	b5f0      	push	{r4, r5, r6, r7, lr}
     a2a:	46de      	mov	lr, fp
     a2c:	4657      	mov	r7, sl
     a2e:	464e      	mov	r6, r9
     a30:	4645      	mov	r5, r8
     a32:	b5e0      	push	{r5, r6, r7, lr}
     a34:	b087      	sub	sp, #28
     a36:	4680      	mov	r8, r0
     a38:	9104      	str	r1, [sp, #16]
     a3a:	0016      	movs	r6, r2
     a3c:	001f      	movs	r7, r3
	int32_t i;
	uint64_t q = 0, r = 0, bit_shift;
     a3e:	2200      	movs	r2, #0
     a40:	2300      	movs	r3, #0
     a42:	2100      	movs	r1, #0
     a44:	468b      	mov	fp, r1
	for (i = 63; i >= 0; i--) {
     a46:	243f      	movs	r4, #63	; 0x3f
		bit_shift = (uint64_t)1 << i;
     a48:	2001      	movs	r0, #1
     a4a:	0021      	movs	r1, r4
     a4c:	9600      	str	r6, [sp, #0]
     a4e:	9701      	str	r7, [sp, #4]
     a50:	465c      	mov	r4, fp
     a52:	9403      	str	r4, [sp, #12]
     a54:	4644      	mov	r4, r8
     a56:	9405      	str	r4, [sp, #20]
     a58:	e013      	b.n	a82 <long_division+0x5a>
     a5a:	2420      	movs	r4, #32
     a5c:	1a64      	subs	r4, r4, r1
     a5e:	0005      	movs	r5, r0
     a60:	40e5      	lsrs	r5, r4
     a62:	46a8      	mov	r8, r5
     a64:	e014      	b.n	a90 <long_division+0x68>
		if (n & bit_shift) {
			r |= 0x01;
		}

		if (r >= d) {
			r = r - d;
     a66:	9c00      	ldr	r4, [sp, #0]
     a68:	9d01      	ldr	r5, [sp, #4]
     a6a:	1b12      	subs	r2, r2, r4
     a6c:	41ab      	sbcs	r3, r5
			q |= bit_shift;
     a6e:	465c      	mov	r4, fp
     a70:	464d      	mov	r5, r9
     a72:	432c      	orrs	r4, r5
     a74:	46a3      	mov	fp, r4
     a76:	9c03      	ldr	r4, [sp, #12]
     a78:	4645      	mov	r5, r8
     a7a:	432c      	orrs	r4, r5
     a7c:	9403      	str	r4, [sp, #12]
	for (i = 63; i >= 0; i--) {
     a7e:	3901      	subs	r1, #1
     a80:	d325      	bcc.n	ace <long_division+0xa6>
		bit_shift = (uint64_t)1 << i;
     a82:	2420      	movs	r4, #32
     a84:	4264      	negs	r4, r4
     a86:	190c      	adds	r4, r1, r4
     a88:	d4e7      	bmi.n	a5a <long_division+0x32>
     a8a:	0005      	movs	r5, r0
     a8c:	40a5      	lsls	r5, r4
     a8e:	46a8      	mov	r8, r5
     a90:	0004      	movs	r4, r0
     a92:	408c      	lsls	r4, r1
     a94:	46a1      	mov	r9, r4
		r = r << 1;
     a96:	1892      	adds	r2, r2, r2
     a98:	415b      	adcs	r3, r3
     a9a:	0014      	movs	r4, r2
     a9c:	001d      	movs	r5, r3
		if (n & bit_shift) {
     a9e:	9e05      	ldr	r6, [sp, #20]
     aa0:	464f      	mov	r7, r9
     aa2:	403e      	ands	r6, r7
     aa4:	46b4      	mov	ip, r6
     aa6:	9e04      	ldr	r6, [sp, #16]
     aa8:	4647      	mov	r7, r8
     aaa:	403e      	ands	r6, r7
     aac:	46b2      	mov	sl, r6
     aae:	4666      	mov	r6, ip
     ab0:	4657      	mov	r7, sl
     ab2:	433e      	orrs	r6, r7
     ab4:	d003      	beq.n	abe <long_division+0x96>
			r |= 0x01;
     ab6:	0006      	movs	r6, r0
     ab8:	4326      	orrs	r6, r4
     aba:	0032      	movs	r2, r6
     abc:	002b      	movs	r3, r5
		if (r >= d) {
     abe:	9c00      	ldr	r4, [sp, #0]
     ac0:	9d01      	ldr	r5, [sp, #4]
     ac2:	429d      	cmp	r5, r3
     ac4:	d8db      	bhi.n	a7e <long_division+0x56>
     ac6:	d1ce      	bne.n	a66 <long_division+0x3e>
     ac8:	4294      	cmp	r4, r2
     aca:	d8d8      	bhi.n	a7e <long_division+0x56>
     acc:	e7cb      	b.n	a66 <long_division+0x3e>
     ace:	9b03      	ldr	r3, [sp, #12]
		}
	}

	return q;
}
     ad0:	4658      	mov	r0, fp
     ad2:	0019      	movs	r1, r3
     ad4:	b007      	add	sp, #28
     ad6:	bc3c      	pop	{r2, r3, r4, r5}
     ad8:	4690      	mov	r8, r2
     ada:	4699      	mov	r9, r3
     adc:	46a2      	mov	sl, r4
     ade:	46ab      	mov	fp, r5
     ae0:	bdf0      	pop	{r4, r5, r6, r7, pc}

00000ae2 <_sercom_get_sync_baud_val>:
 */
enum status_code _sercom_get_sync_baud_val(
		const uint32_t baudrate,
		const uint32_t external_clock,
		uint16_t *const baudvalue)
{
     ae2:	b510      	push	{r4, lr}
	uint16_t baud_calculated = 0;
	uint32_t clock_value = external_clock;


	/* Check if baudrate is outside of valid range */
	if (baudrate > (external_clock / 2)) {
     ae4:	0849      	lsrs	r1, r1, #1
		/* Return with error code */
		return STATUS_ERR_BAUDRATE_UNAVAILABLE;
     ae6:	2340      	movs	r3, #64	; 0x40
     ae8:	2400      	movs	r4, #0
	if (baudrate > (external_clock / 2)) {
     aea:	4281      	cmp	r1, r0
     aec:	d202      	bcs.n	af4 <_sercom_get_sync_baud_val+0x12>
		return STATUS_ERR_BAUDRATE_UNAVAILABLE;
	} else {
		*baudvalue = baud_calculated;
		return STATUS_OK;
	}
}
     aee:	0018      	movs	r0, r3
     af0:	bd10      	pop	{r4, pc}
		baud_calculated++;
     af2:	001c      	movs	r4, r3
		clock_value = clock_value - baudrate;
     af4:	1a09      	subs	r1, r1, r0
		baud_calculated++;
     af6:	1c63      	adds	r3, r4, #1
     af8:	b29b      	uxth	r3, r3
	while (clock_value >= baudrate) {
     afa:	4288      	cmp	r0, r1
     afc:	d9f9      	bls.n	af2 <_sercom_get_sync_baud_val+0x10>
		return STATUS_ERR_BAUDRATE_UNAVAILABLE;
     afe:	2340      	movs	r3, #64	; 0x40
	if (baud_calculated > 0xFF) {
     b00:	2cff      	cmp	r4, #255	; 0xff
     b02:	d8f4      	bhi.n	aee <_sercom_get_sync_baud_val+0xc>
		*baudvalue = baud_calculated;
     b04:	8014      	strh	r4, [r2, #0]
		return STATUS_OK;
     b06:	2300      	movs	r3, #0
     b08:	e7f1      	b.n	aee <_sercom_get_sync_baud_val+0xc>
	...

00000b0c <_sercom_get_async_baud_val>:
		const uint32_t baudrate,
		const uint32_t peripheral_clock,
		uint16_t *const baudval,
		enum sercom_asynchronous_operation_mode mode,
		enum sercom_asynchronous_sample_num sample_num)
{
     b0c:	b5f0      	push	{r4, r5, r6, r7, lr}
     b0e:	b083      	sub	sp, #12
     b10:	000f      	movs	r7, r1
     b12:	0016      	movs	r6, r2
     b14:	aa08      	add	r2, sp, #32
     b16:	7811      	ldrb	r1, [r2, #0]
	uint8_t baud_fp;
	uint32_t baud_int = 0;
	uint64_t temp1;

	/* Check if the baudrate is outside of valid range */
	if ((baudrate * sample_num) > peripheral_clock) {
     b18:	0004      	movs	r4, r0
     b1a:	434c      	muls	r4, r1
		/* Return with error code */
		return STATUS_ERR_BAUDRATE_UNAVAILABLE;
     b1c:	2240      	movs	r2, #64	; 0x40
	if ((baudrate * sample_num) > peripheral_clock) {
     b1e:	42bc      	cmp	r4, r7
     b20:	d902      	bls.n	b28 <_sercom_get_async_baud_val+0x1c>
		baud_calculated = baud_int | (baud_fp << 13);
	}

	*baudval = baud_calculated;
	return STATUS_OK;
}
     b22:	0010      	movs	r0, r2
     b24:	b003      	add	sp, #12
     b26:	bdf0      	pop	{r4, r5, r6, r7, pc}
	if(mode == SERCOM_ASYNC_OPERATION_MODE_ARITHMETIC) {
     b28:	2b00      	cmp	r3, #0
     b2a:	d114      	bne.n	b56 <_sercom_get_async_baud_val+0x4a>
		temp1 = ((sample_num * (uint64_t)baudrate) << SHIFT);
     b2c:	0002      	movs	r2, r0
     b2e:	0008      	movs	r0, r1
     b30:	2100      	movs	r1, #0
     b32:	4c19      	ldr	r4, [pc, #100]	; (b98 <_sercom_get_async_baud_val+0x8c>)
     b34:	47a0      	blx	r4
     b36:	0001      	movs	r1, r0
		ratio = long_division(temp1, peripheral_clock);
     b38:	003a      	movs	r2, r7
     b3a:	2300      	movs	r3, #0
     b3c:	2000      	movs	r0, #0
     b3e:	4c17      	ldr	r4, [pc, #92]	; (b9c <_sercom_get_async_baud_val+0x90>)
     b40:	47a0      	blx	r4
		scale = ((uint64_t)1 << SHIFT) - ratio;
     b42:	2200      	movs	r2, #0
     b44:	2301      	movs	r3, #1
     b46:	1a12      	subs	r2, r2, r0
     b48:	418b      	sbcs	r3, r1
		baud_calculated = (65536 * scale) >> SHIFT;
     b4a:	0c12      	lsrs	r2, r2, #16
     b4c:	041b      	lsls	r3, r3, #16
     b4e:	431a      	orrs	r2, r3
	*baudval = baud_calculated;
     b50:	8032      	strh	r2, [r6, #0]
	return STATUS_OK;
     b52:	2200      	movs	r2, #0
     b54:	e7e5      	b.n	b22 <_sercom_get_async_baud_val+0x16>
	uint64_t baud_calculated = 0;
     b56:	2200      	movs	r2, #0
	} else if(mode == SERCOM_ASYNC_OPERATION_MODE_FRACTIONAL) {
     b58:	2b01      	cmp	r3, #1
     b5a:	d1f9      	bne.n	b50 <_sercom_get_async_baud_val+0x44>
		temp1 = ((uint64_t)baudrate * sample_num);
     b5c:	000a      	movs	r2, r1
     b5e:	2300      	movs	r3, #0
     b60:	2100      	movs	r1, #0
     b62:	4c0d      	ldr	r4, [pc, #52]	; (b98 <_sercom_get_async_baud_val+0x8c>)
     b64:	47a0      	blx	r4
     b66:	0002      	movs	r2, r0
     b68:	000b      	movs	r3, r1
     b6a:	9200      	str	r2, [sp, #0]
     b6c:	9301      	str	r3, [sp, #4]
		baud_int = long_division( peripheral_clock, temp1);
     b6e:	0038      	movs	r0, r7
     b70:	2100      	movs	r1, #0
     b72:	4c0a      	ldr	r4, [pc, #40]	; (b9c <_sercom_get_async_baud_val+0x90>)
     b74:	47a0      	blx	r4
     b76:	0005      	movs	r5, r0
		if(baud_int > BAUD_INT_MAX) {
     b78:	2380      	movs	r3, #128	; 0x80
     b7a:	019b      	lsls	r3, r3, #6
				return STATUS_ERR_BAUDRATE_UNAVAILABLE;
     b7c:	2240      	movs	r2, #64	; 0x40
		if(baud_int > BAUD_INT_MAX) {
     b7e:	4298      	cmp	r0, r3
     b80:	d8cf      	bhi.n	b22 <_sercom_get_async_baud_val+0x16>
		temp1 = long_division( 8 * (uint64_t)peripheral_clock, temp1);
     b82:	0f79      	lsrs	r1, r7, #29
     b84:	00f8      	lsls	r0, r7, #3
     b86:	9a00      	ldr	r2, [sp, #0]
     b88:	9b01      	ldr	r3, [sp, #4]
     b8a:	47a0      	blx	r4
		baud_fp = temp1 - 8 * baud_int;
     b8c:	00ea      	lsls	r2, r5, #3
     b8e:	1a82      	subs	r2, r0, r2
		baud_calculated = baud_int | (baud_fp << 13);
     b90:	b2d2      	uxtb	r2, r2
     b92:	0352      	lsls	r2, r2, #13
     b94:	432a      	orrs	r2, r5
     b96:	e7db      	b.n	b50 <_sercom_get_async_baud_val+0x44>
     b98:	0000326d 	.word	0x0000326d
     b9c:	00000a29 	.word	0x00000a29

00000ba0 <sercom_set_gclk_generator>:
 *                                         forced.
 */
enum status_code sercom_set_gclk_generator(
		const enum gclk_generator generator_source,
		const bool force_change)
{
     ba0:	b510      	push	{r4, lr}
     ba2:	b082      	sub	sp, #8
     ba4:	0004      	movs	r4, r0
	/* Check if valid option */
	if (!_sercom_config.generator_is_set || force_change) {
     ba6:	4b0e      	ldr	r3, [pc, #56]	; (be0 <sercom_set_gclk_generator+0x40>)
     ba8:	781b      	ldrb	r3, [r3, #0]
     baa:	2b00      	cmp	r3, #0
     bac:	d007      	beq.n	bbe <sercom_set_gclk_generator+0x1e>
     bae:	2900      	cmp	r1, #0
     bb0:	d105      	bne.n	bbe <sercom_set_gclk_generator+0x1e>
		/* Save config */
		_sercom_config.generator_source = generator_source;
		_sercom_config.generator_is_set = true;

		return STATUS_OK;
	} else if (generator_source == _sercom_config.generator_source) {
     bb2:	4b0b      	ldr	r3, [pc, #44]	; (be0 <sercom_set_gclk_generator+0x40>)
     bb4:	785b      	ldrb	r3, [r3, #1]
     bb6:	4283      	cmp	r3, r0
     bb8:	d010      	beq.n	bdc <sercom_set_gclk_generator+0x3c>
		/* Return status OK if same config */
		return STATUS_OK;
	}

	/* Return invalid config to already initialized GCLK */
	return STATUS_ERR_ALREADY_INITIALIZED;
     bba:	201d      	movs	r0, #29
     bbc:	e00c      	b.n	bd8 <sercom_set_gclk_generator+0x38>
		gclk_chan_conf.source_generator = generator_source;
     bbe:	a901      	add	r1, sp, #4
     bc0:	700c      	strb	r4, [r1, #0]
		system_gclk_chan_set_config(SERCOM_GCLK_ID, &gclk_chan_conf);
     bc2:	2013      	movs	r0, #19
     bc4:	4b07      	ldr	r3, [pc, #28]	; (be4 <sercom_set_gclk_generator+0x44>)
     bc6:	4798      	blx	r3
		system_gclk_chan_enable(SERCOM_GCLK_ID);
     bc8:	2013      	movs	r0, #19
     bca:	4b07      	ldr	r3, [pc, #28]	; (be8 <sercom_set_gclk_generator+0x48>)
     bcc:	4798      	blx	r3
		_sercom_config.generator_source = generator_source;
     bce:	4b04      	ldr	r3, [pc, #16]	; (be0 <sercom_set_gclk_generator+0x40>)
     bd0:	705c      	strb	r4, [r3, #1]
		_sercom_config.generator_is_set = true;
     bd2:	2201      	movs	r2, #1
     bd4:	701a      	strb	r2, [r3, #0]
		return STATUS_OK;
     bd6:	2000      	movs	r0, #0
}
     bd8:	b002      	add	sp, #8
     bda:	bd10      	pop	{r4, pc}
		return STATUS_OK;
     bdc:	2000      	movs	r0, #0
     bde:	e7fb      	b.n	bd8 <sercom_set_gclk_generator+0x38>
     be0:	20000260 	.word	0x20000260
     be4:	00001a11 	.word	0x00001a11
     be8:	00001985 	.word	0x00001985

00000bec <_sercom_get_default_pad>:
 */
uint32_t _sercom_get_default_pad(
		Sercom *const sercom_module,
		const uint8_t pad)
{
	switch ((uintptr_t)sercom_module) {
     bec:	4b40      	ldr	r3, [pc, #256]	; (cf0 <_sercom_get_default_pad+0x104>)
     bee:	4298      	cmp	r0, r3
     bf0:	d031      	beq.n	c56 <_sercom_get_default_pad+0x6a>
     bf2:	d90a      	bls.n	c0a <_sercom_get_default_pad+0x1e>
     bf4:	4b3f      	ldr	r3, [pc, #252]	; (cf4 <_sercom_get_default_pad+0x108>)
     bf6:	4298      	cmp	r0, r3
     bf8:	d04d      	beq.n	c96 <_sercom_get_default_pad+0xaa>
     bfa:	4b3f      	ldr	r3, [pc, #252]	; (cf8 <_sercom_get_default_pad+0x10c>)
     bfc:	4298      	cmp	r0, r3
     bfe:	d05a      	beq.n	cb6 <_sercom_get_default_pad+0xca>
     c00:	4b3e      	ldr	r3, [pc, #248]	; (cfc <_sercom_get_default_pad+0x110>)
     c02:	4298      	cmp	r0, r3
     c04:	d037      	beq.n	c76 <_sercom_get_default_pad+0x8a>
		/* Auto-generate a lookup table for the default SERCOM pad defaults */
		MREPEAT(SERCOM_INST_NUM, _SERCOM_PAD_DEFAULTS_CASE, pad)
	}

	Assert(false);
	return 0;
     c06:	2000      	movs	r0, #0
}
     c08:	4770      	bx	lr
	switch ((uintptr_t)sercom_module) {
     c0a:	4b3d      	ldr	r3, [pc, #244]	; (d00 <_sercom_get_default_pad+0x114>)
     c0c:	4298      	cmp	r0, r3
     c0e:	d00c      	beq.n	c2a <_sercom_get_default_pad+0x3e>
     c10:	4b3c      	ldr	r3, [pc, #240]	; (d04 <_sercom_get_default_pad+0x118>)
     c12:	4298      	cmp	r0, r3
     c14:	d1f7      	bne.n	c06 <_sercom_get_default_pad+0x1a>
		MREPEAT(SERCOM_INST_NUM, _SERCOM_PAD_DEFAULTS_CASE, pad)
     c16:	2901      	cmp	r1, #1
     c18:	d017      	beq.n	c4a <_sercom_get_default_pad+0x5e>
     c1a:	2900      	cmp	r1, #0
     c1c:	d05d      	beq.n	cda <_sercom_get_default_pad+0xee>
     c1e:	2902      	cmp	r1, #2
     c20:	d015      	beq.n	c4e <_sercom_get_default_pad+0x62>
     c22:	2903      	cmp	r1, #3
     c24:	d015      	beq.n	c52 <_sercom_get_default_pad+0x66>
	return 0;
     c26:	2000      	movs	r0, #0
     c28:	e7ee      	b.n	c08 <_sercom_get_default_pad+0x1c>
		MREPEAT(SERCOM_INST_NUM, _SERCOM_PAD_DEFAULTS_CASE, pad)
     c2a:	2901      	cmp	r1, #1
     c2c:	d007      	beq.n	c3e <_sercom_get_default_pad+0x52>
     c2e:	2900      	cmp	r1, #0
     c30:	d051      	beq.n	cd6 <_sercom_get_default_pad+0xea>
     c32:	2902      	cmp	r1, #2
     c34:	d005      	beq.n	c42 <_sercom_get_default_pad+0x56>
     c36:	2903      	cmp	r1, #3
     c38:	d005      	beq.n	c46 <_sercom_get_default_pad+0x5a>
	return 0;
     c3a:	2000      	movs	r0, #0
     c3c:	e7e4      	b.n	c08 <_sercom_get_default_pad+0x1c>
		MREPEAT(SERCOM_INST_NUM, _SERCOM_PAD_DEFAULTS_CASE, pad)
     c3e:	4832      	ldr	r0, [pc, #200]	; (d08 <_sercom_get_default_pad+0x11c>)
     c40:	e7e2      	b.n	c08 <_sercom_get_default_pad+0x1c>
     c42:	4832      	ldr	r0, [pc, #200]	; (d0c <_sercom_get_default_pad+0x120>)
     c44:	e7e0      	b.n	c08 <_sercom_get_default_pad+0x1c>
     c46:	4832      	ldr	r0, [pc, #200]	; (d10 <_sercom_get_default_pad+0x124>)
     c48:	e7de      	b.n	c08 <_sercom_get_default_pad+0x1c>
     c4a:	4832      	ldr	r0, [pc, #200]	; (d14 <_sercom_get_default_pad+0x128>)
     c4c:	e7dc      	b.n	c08 <_sercom_get_default_pad+0x1c>
     c4e:	4832      	ldr	r0, [pc, #200]	; (d18 <_sercom_get_default_pad+0x12c>)
     c50:	e7da      	b.n	c08 <_sercom_get_default_pad+0x1c>
     c52:	4832      	ldr	r0, [pc, #200]	; (d1c <_sercom_get_default_pad+0x130>)
     c54:	e7d8      	b.n	c08 <_sercom_get_default_pad+0x1c>
     c56:	2901      	cmp	r1, #1
     c58:	d007      	beq.n	c6a <_sercom_get_default_pad+0x7e>
     c5a:	2900      	cmp	r1, #0
     c5c:	d03f      	beq.n	cde <_sercom_get_default_pad+0xf2>
     c5e:	2902      	cmp	r1, #2
     c60:	d005      	beq.n	c6e <_sercom_get_default_pad+0x82>
     c62:	2903      	cmp	r1, #3
     c64:	d005      	beq.n	c72 <_sercom_get_default_pad+0x86>
	return 0;
     c66:	2000      	movs	r0, #0
     c68:	e7ce      	b.n	c08 <_sercom_get_default_pad+0x1c>
		MREPEAT(SERCOM_INST_NUM, _SERCOM_PAD_DEFAULTS_CASE, pad)
     c6a:	482d      	ldr	r0, [pc, #180]	; (d20 <_sercom_get_default_pad+0x134>)
     c6c:	e7cc      	b.n	c08 <_sercom_get_default_pad+0x1c>
     c6e:	482d      	ldr	r0, [pc, #180]	; (d24 <_sercom_get_default_pad+0x138>)
     c70:	e7ca      	b.n	c08 <_sercom_get_default_pad+0x1c>
     c72:	482d      	ldr	r0, [pc, #180]	; (d28 <_sercom_get_default_pad+0x13c>)
     c74:	e7c8      	b.n	c08 <_sercom_get_default_pad+0x1c>
     c76:	2901      	cmp	r1, #1
     c78:	d007      	beq.n	c8a <_sercom_get_default_pad+0x9e>
     c7a:	2900      	cmp	r1, #0
     c7c:	d031      	beq.n	ce2 <_sercom_get_default_pad+0xf6>
     c7e:	2902      	cmp	r1, #2
     c80:	d005      	beq.n	c8e <_sercom_get_default_pad+0xa2>
     c82:	2903      	cmp	r1, #3
     c84:	d005      	beq.n	c92 <_sercom_get_default_pad+0xa6>
	return 0;
     c86:	2000      	movs	r0, #0
     c88:	e7be      	b.n	c08 <_sercom_get_default_pad+0x1c>
		MREPEAT(SERCOM_INST_NUM, _SERCOM_PAD_DEFAULTS_CASE, pad)
     c8a:	4828      	ldr	r0, [pc, #160]	; (d2c <_sercom_get_default_pad+0x140>)
     c8c:	e7bc      	b.n	c08 <_sercom_get_default_pad+0x1c>
     c8e:	4828      	ldr	r0, [pc, #160]	; (d30 <_sercom_get_default_pad+0x144>)
     c90:	e7ba      	b.n	c08 <_sercom_get_default_pad+0x1c>
     c92:	4828      	ldr	r0, [pc, #160]	; (d34 <_sercom_get_default_pad+0x148>)
     c94:	e7b8      	b.n	c08 <_sercom_get_default_pad+0x1c>
     c96:	2901      	cmp	r1, #1
     c98:	d007      	beq.n	caa <_sercom_get_default_pad+0xbe>
     c9a:	2900      	cmp	r1, #0
     c9c:	d023      	beq.n	ce6 <_sercom_get_default_pad+0xfa>
     c9e:	2902      	cmp	r1, #2
     ca0:	d005      	beq.n	cae <_sercom_get_default_pad+0xc2>
     ca2:	2903      	cmp	r1, #3
     ca4:	d005      	beq.n	cb2 <_sercom_get_default_pad+0xc6>
	return 0;
     ca6:	2000      	movs	r0, #0
     ca8:	e7ae      	b.n	c08 <_sercom_get_default_pad+0x1c>
		MREPEAT(SERCOM_INST_NUM, _SERCOM_PAD_DEFAULTS_CASE, pad)
     caa:	4823      	ldr	r0, [pc, #140]	; (d38 <_sercom_get_default_pad+0x14c>)
     cac:	e7ac      	b.n	c08 <_sercom_get_default_pad+0x1c>
     cae:	4823      	ldr	r0, [pc, #140]	; (d3c <_sercom_get_default_pad+0x150>)
     cb0:	e7aa      	b.n	c08 <_sercom_get_default_pad+0x1c>
     cb2:	4823      	ldr	r0, [pc, #140]	; (d40 <_sercom_get_default_pad+0x154>)
     cb4:	e7a8      	b.n	c08 <_sercom_get_default_pad+0x1c>
     cb6:	2901      	cmp	r1, #1
     cb8:	d007      	beq.n	cca <_sercom_get_default_pad+0xde>
     cba:	2900      	cmp	r1, #0
     cbc:	d015      	beq.n	cea <_sercom_get_default_pad+0xfe>
     cbe:	2902      	cmp	r1, #2
     cc0:	d005      	beq.n	cce <_sercom_get_default_pad+0xe2>
     cc2:	2903      	cmp	r1, #3
     cc4:	d005      	beq.n	cd2 <_sercom_get_default_pad+0xe6>
	return 0;
     cc6:	2000      	movs	r0, #0
     cc8:	e79e      	b.n	c08 <_sercom_get_default_pad+0x1c>
		MREPEAT(SERCOM_INST_NUM, _SERCOM_PAD_DEFAULTS_CASE, pad)
     cca:	481e      	ldr	r0, [pc, #120]	; (d44 <_sercom_get_default_pad+0x158>)
     ccc:	e79c      	b.n	c08 <_sercom_get_default_pad+0x1c>
     cce:	481e      	ldr	r0, [pc, #120]	; (d48 <_sercom_get_default_pad+0x15c>)
     cd0:	e79a      	b.n	c08 <_sercom_get_default_pad+0x1c>
     cd2:	481e      	ldr	r0, [pc, #120]	; (d4c <_sercom_get_default_pad+0x160>)
     cd4:	e798      	b.n	c08 <_sercom_get_default_pad+0x1c>
     cd6:	481e      	ldr	r0, [pc, #120]	; (d50 <_sercom_get_default_pad+0x164>)
     cd8:	e796      	b.n	c08 <_sercom_get_default_pad+0x1c>
     cda:	2003      	movs	r0, #3
     cdc:	e794      	b.n	c08 <_sercom_get_default_pad+0x1c>
     cde:	481d      	ldr	r0, [pc, #116]	; (d54 <_sercom_get_default_pad+0x168>)
     ce0:	e792      	b.n	c08 <_sercom_get_default_pad+0x1c>
     ce2:	481d      	ldr	r0, [pc, #116]	; (d58 <_sercom_get_default_pad+0x16c>)
     ce4:	e790      	b.n	c08 <_sercom_get_default_pad+0x1c>
     ce6:	481d      	ldr	r0, [pc, #116]	; (d5c <_sercom_get_default_pad+0x170>)
     ce8:	e78e      	b.n	c08 <_sercom_get_default_pad+0x1c>
     cea:	481d      	ldr	r0, [pc, #116]	; (d60 <_sercom_get_default_pad+0x174>)
     cec:	e78c      	b.n	c08 <_sercom_get_default_pad+0x1c>
     cee:	46c0      	nop			; (mov r8, r8)
     cf0:	42001000 	.word	0x42001000
     cf4:	42001800 	.word	0x42001800
     cf8:	42001c00 	.word	0x42001c00
     cfc:	42001400 	.word	0x42001400
     d00:	42000800 	.word	0x42000800
     d04:	42000c00 	.word	0x42000c00
     d08:	00050003 	.word	0x00050003
     d0c:	00060003 	.word	0x00060003
     d10:	00070003 	.word	0x00070003
     d14:	00010003 	.word	0x00010003
     d18:	001e0003 	.word	0x001e0003
     d1c:	001f0003 	.word	0x001f0003
     d20:	00090003 	.word	0x00090003
     d24:	000a0003 	.word	0x000a0003
     d28:	000b0003 	.word	0x000b0003
     d2c:	00110003 	.word	0x00110003
     d30:	00120003 	.word	0x00120003
     d34:	00130003 	.word	0x00130003
     d38:	000d0003 	.word	0x000d0003
     d3c:	000e0003 	.word	0x000e0003
     d40:	000f0003 	.word	0x000f0003
     d44:	00170003 	.word	0x00170003
     d48:	00180003 	.word	0x00180003
     d4c:	00190003 	.word	0x00190003
     d50:	00040003 	.word	0x00040003
     d54:	00080003 	.word	0x00080003
     d58:	00100003 	.word	0x00100003
     d5c:	000c0003 	.word	0x000c0003
     d60:	00160003 	.word	0x00160003

00000d64 <_sercom_get_sercom_inst_index>:
 *
 * \return Index of given instance.
 */
uint8_t _sercom_get_sercom_inst_index(
		Sercom *const sercom_instance)
{
     d64:	b530      	push	{r4, r5, lr}
     d66:	b087      	sub	sp, #28
	/* Save all available SERCOM instances for compare */
	Sercom *sercom_instances[SERCOM_INST_NUM] = SERCOM_INSTS;
     d68:	4b0b      	ldr	r3, [pc, #44]	; (d98 <_sercom_get_sercom_inst_index+0x34>)
     d6a:	466a      	mov	r2, sp
     d6c:	cb32      	ldmia	r3!, {r1, r4, r5}
     d6e:	c232      	stmia	r2!, {r1, r4, r5}
     d70:	cb32      	ldmia	r3!, {r1, r4, r5}
     d72:	c232      	stmia	r2!, {r1, r4, r5}

	/* Find index for sercom instance */
	for (uint32_t i = 0; i < SERCOM_INST_NUM; i++) {
		if ((uintptr_t)sercom_instance == (uintptr_t)sercom_instances[i]) {
     d74:	9b00      	ldr	r3, [sp, #0]
     d76:	4283      	cmp	r3, r0
     d78:	d00b      	beq.n	d92 <_sercom_get_sercom_inst_index+0x2e>
     d7a:	2301      	movs	r3, #1
     d7c:	009a      	lsls	r2, r3, #2
     d7e:	4669      	mov	r1, sp
     d80:	5852      	ldr	r2, [r2, r1]
     d82:	4282      	cmp	r2, r0
     d84:	d006      	beq.n	d94 <_sercom_get_sercom_inst_index+0x30>
	for (uint32_t i = 0; i < SERCOM_INST_NUM; i++) {
     d86:	3301      	adds	r3, #1
     d88:	2b06      	cmp	r3, #6
     d8a:	d1f7      	bne.n	d7c <_sercom_get_sercom_inst_index+0x18>
		}
	}

	/* Invalid data given */
	Assert(false);
	return 0;
     d8c:	2000      	movs	r0, #0
}
     d8e:	b007      	add	sp, #28
     d90:	bd30      	pop	{r4, r5, pc}
	for (uint32_t i = 0; i < SERCOM_INST_NUM; i++) {
     d92:	2300      	movs	r3, #0
			return i;
     d94:	b2d8      	uxtb	r0, r3
     d96:	e7fa      	b.n	d8e <_sercom_get_sercom_inst_index+0x2a>
     d98:	000049c8 	.word	0x000049c8

00000d9c <_sercom_default_handler>:
 */
static void _sercom_default_handler(
		const uint8_t instance)
{
	Assert(false);
}
     d9c:	4770      	bx	lr
	...

00000da0 <_sercom_set_handler>:
 * \param[in]  interrupt_handler  Pointer to instance callback handler.
 */
void _sercom_set_handler(
		const uint8_t instance,
		const sercom_handler_t interrupt_handler)
{
     da0:	b5f0      	push	{r4, r5, r6, r7, lr}
	/* Initialize handlers with default handler and device instances with 0 */
	if (_handler_table_initialized == false) {
     da2:	4b0a      	ldr	r3, [pc, #40]	; (dcc <_sercom_set_handler+0x2c>)
     da4:	781b      	ldrb	r3, [r3, #0]
     da6:	2b00      	cmp	r3, #0
     da8:	d10c      	bne.n	dc4 <_sercom_set_handler+0x24>
		for (uint32_t i = 0; i < SERCOM_INST_NUM; i++) {
			_sercom_interrupt_handlers[i] = &_sercom_default_handler;
     daa:	4f09      	ldr	r7, [pc, #36]	; (dd0 <_sercom_set_handler+0x30>)
     dac:	4e09      	ldr	r6, [pc, #36]	; (dd4 <_sercom_set_handler+0x34>)
			_sercom_instances[i] = NULL;
     dae:	4d0a      	ldr	r5, [pc, #40]	; (dd8 <_sercom_set_handler+0x38>)
     db0:	2400      	movs	r4, #0
			_sercom_interrupt_handlers[i] = &_sercom_default_handler;
     db2:	51de      	str	r6, [r3, r7]
			_sercom_instances[i] = NULL;
     db4:	195a      	adds	r2, r3, r5
     db6:	6014      	str	r4, [r2, #0]
     db8:	3304      	adds	r3, #4
		for (uint32_t i = 0; i < SERCOM_INST_NUM; i++) {
     dba:	2b18      	cmp	r3, #24
     dbc:	d1f9      	bne.n	db2 <_sercom_set_handler+0x12>
		}

		_handler_table_initialized = true;
     dbe:	2201      	movs	r2, #1
     dc0:	4b02      	ldr	r3, [pc, #8]	; (dcc <_sercom_set_handler+0x2c>)
     dc2:	701a      	strb	r2, [r3, #0]
	}

	/* Save interrupt handler */
	_sercom_interrupt_handlers[instance] = interrupt_handler;
     dc4:	0080      	lsls	r0, r0, #2
     dc6:	4b02      	ldr	r3, [pc, #8]	; (dd0 <_sercom_set_handler+0x30>)
     dc8:	50c1      	str	r1, [r0, r3]
}
     dca:	bdf0      	pop	{r4, r5, r6, r7, pc}
     dcc:	20000262 	.word	0x20000262
     dd0:	20000264 	.word	0x20000264
     dd4:	00000d9d 	.word	0x00000d9d
     dd8:	200002ac 	.word	0x200002ac

00000ddc <_sercom_get_interrupt_vector>:
 * \retval SYSTEM_INTERRUPT_MODULE_SERCOM6
 * \retval SYSTEM_INTERRUPT_MODULE_SERCOM7
 */
enum system_interrupt_vector _sercom_get_interrupt_vector(
		Sercom *const sercom_instance)
{
     ddc:	b500      	push	{lr}
     dde:	b083      	sub	sp, #12
	const uint8_t sercom_int_vectors[SERCOM_INST_NUM] =
     de0:	2309      	movs	r3, #9
     de2:	466a      	mov	r2, sp
     de4:	7013      	strb	r3, [r2, #0]
     de6:	3301      	adds	r3, #1
     de8:	7053      	strb	r3, [r2, #1]
     dea:	3301      	adds	r3, #1
     dec:	7093      	strb	r3, [r2, #2]
     dee:	3301      	adds	r3, #1
     df0:	70d3      	strb	r3, [r2, #3]
     df2:	3301      	adds	r3, #1
     df4:	7113      	strb	r3, [r2, #4]
     df6:	3301      	adds	r3, #1
     df8:	7153      	strb	r3, [r2, #5]
		{
			MREPEAT(SERCOM_INST_NUM, _SERCOM_INTERRUPT_VECT_NUM, ~)
		};

	/* Retrieve the index of the SERCOM being requested */
	uint8_t instance_index = _sercom_get_sercom_inst_index(sercom_instance);
     dfa:	4b03      	ldr	r3, [pc, #12]	; (e08 <_sercom_get_interrupt_vector+0x2c>)
     dfc:	4798      	blx	r3

	/* Get the vector number from the lookup table for the requested SERCOM */
	return (enum system_interrupt_vector)sercom_int_vectors[instance_index];
     dfe:	466b      	mov	r3, sp
     e00:	5618      	ldrsb	r0, [r3, r0]
}
     e02:	b003      	add	sp, #12
     e04:	bd00      	pop	{pc}
     e06:	46c0      	nop			; (mov r8, r8)
     e08:	00000d65 	.word	0x00000d65

00000e0c <SERCOM0_Handler>:

/** Auto-generate a set of interrupt handlers for each SERCOM in the device */
MREPEAT(SERCOM_INST_NUM, _SERCOM_INTERRUPT_HANDLER, ~)
     e0c:	b510      	push	{r4, lr}
     e0e:	4b02      	ldr	r3, [pc, #8]	; (e18 <SERCOM0_Handler+0xc>)
     e10:	681b      	ldr	r3, [r3, #0]
     e12:	2000      	movs	r0, #0
     e14:	4798      	blx	r3
     e16:	bd10      	pop	{r4, pc}
     e18:	20000264 	.word	0x20000264

00000e1c <SERCOM1_Handler>:
     e1c:	b510      	push	{r4, lr}
     e1e:	4b02      	ldr	r3, [pc, #8]	; (e28 <SERCOM1_Handler+0xc>)
     e20:	685b      	ldr	r3, [r3, #4]
     e22:	2001      	movs	r0, #1
     e24:	4798      	blx	r3
     e26:	bd10      	pop	{r4, pc}
     e28:	20000264 	.word	0x20000264

00000e2c <SERCOM2_Handler>:
     e2c:	b510      	push	{r4, lr}
     e2e:	4b02      	ldr	r3, [pc, #8]	; (e38 <SERCOM2_Handler+0xc>)
     e30:	689b      	ldr	r3, [r3, #8]
     e32:	2002      	movs	r0, #2
     e34:	4798      	blx	r3
     e36:	bd10      	pop	{r4, pc}
     e38:	20000264 	.word	0x20000264

00000e3c <SERCOM3_Handler>:
     e3c:	b510      	push	{r4, lr}
     e3e:	4b02      	ldr	r3, [pc, #8]	; (e48 <SERCOM3_Handler+0xc>)
     e40:	68db      	ldr	r3, [r3, #12]
     e42:	2003      	movs	r0, #3
     e44:	4798      	blx	r3
     e46:	bd10      	pop	{r4, pc}
     e48:	20000264 	.word	0x20000264

00000e4c <SERCOM4_Handler>:
     e4c:	b510      	push	{r4, lr}
     e4e:	4b02      	ldr	r3, [pc, #8]	; (e58 <SERCOM4_Handler+0xc>)
     e50:	691b      	ldr	r3, [r3, #16]
     e52:	2004      	movs	r0, #4
     e54:	4798      	blx	r3
     e56:	bd10      	pop	{r4, pc}
     e58:	20000264 	.word	0x20000264

00000e5c <SERCOM5_Handler>:
     e5c:	b510      	push	{r4, lr}
     e5e:	4b02      	ldr	r3, [pc, #8]	; (e68 <SERCOM5_Handler+0xc>)
     e60:	695b      	ldr	r3, [r3, #20]
     e62:	2005      	movs	r0, #5
     e64:	4798      	blx	r3
     e66:	bd10      	pop	{r4, pc}
     e68:	20000264 	.word	0x20000264

00000e6c <usart_init>:
 */
enum status_code usart_init(
		struct usart_module *const module,
		Sercom *const hw,
		const struct usart_config *const config)
{
     e6c:	b5f0      	push	{r4, r5, r6, r7, lr}
     e6e:	46de      	mov	lr, fp
     e70:	4657      	mov	r7, sl
     e72:	464e      	mov	r6, r9
     e74:	4645      	mov	r5, r8
     e76:	b5e0      	push	{r5, r6, r7, lr}
     e78:	b091      	sub	sp, #68	; 0x44
     e7a:	0005      	movs	r5, r0
     e7c:	000c      	movs	r4, r1
     e7e:	0016      	movs	r6, r2
	Assert(config);

	enum status_code status_code = STATUS_OK;

	/* Assign module pointer to software instance struct */
	module->hw = hw;
     e80:	6029      	str	r1, [r5, #0]

	/* Get a pointer to the hardware module instance */
	SercomUsart *const usart_hw = &(module->hw->USART);

	uint32_t sercom_index = _sercom_get_sercom_inst_index(module->hw);
     e82:	0008      	movs	r0, r1
     e84:	4bba      	ldr	r3, [pc, #744]	; (1170 <usart_init+0x304>)
     e86:	4798      	blx	r3
     e88:	0002      	movs	r2, r0
#else
	pm_index     = sercom_index + PM_APBCMASK_SERCOM0_Pos;
	gclk_index   = sercom_index + SERCOM0_GCLK_ID_CORE;
#endif

	if (usart_hw->CTRLA.reg & SERCOM_USART_CTRLA_SWRST) {
     e8a:	6823      	ldr	r3, [r4, #0]
		/* The module is busy resetting itself */
		return STATUS_BUSY;
     e8c:	2005      	movs	r0, #5
	if (usart_hw->CTRLA.reg & SERCOM_USART_CTRLA_SWRST) {
     e8e:	07db      	lsls	r3, r3, #31
     e90:	d506      	bpl.n	ea0 <usart_init+0x34>
	_sercom_set_handler(instance_index, _usart_interrupt_handler);
	_sercom_instances[instance_index] = module;
#endif

	return status_code;
}
     e92:	b011      	add	sp, #68	; 0x44
     e94:	bc3c      	pop	{r2, r3, r4, r5}
     e96:	4690      	mov	r8, r2
     e98:	4699      	mov	r9, r3
     e9a:	46a2      	mov	sl, r4
     e9c:	46ab      	mov	fp, r5
     e9e:	bdf0      	pop	{r4, r5, r6, r7, pc}
	if (usart_hw->CTRLA.reg & SERCOM_USART_CTRLA_ENABLE) {
     ea0:	6823      	ldr	r3, [r4, #0]
		return STATUS_ERR_DENIED;
     ea2:	3017      	adds	r0, #23
	if (usart_hw->CTRLA.reg & SERCOM_USART_CTRLA_ENABLE) {
     ea4:	079b      	lsls	r3, r3, #30
     ea6:	d4f4      	bmi.n	e92 <usart_init+0x26>
     ea8:	49b2      	ldr	r1, [pc, #712]	; (1174 <usart_init+0x308>)
     eaa:	6a08      	ldr	r0, [r1, #32]
	pm_index     = sercom_index + PM_APBCMASK_SERCOM0_Pos;
     eac:	1c97      	adds	r7, r2, #2
	system_apb_clock_set_mask(SYSTEM_CLOCK_APB_APBC, 1 << pm_index);
     eae:	2301      	movs	r3, #1
     eb0:	40bb      	lsls	r3, r7
     eb2:	4303      	orrs	r3, r0
     eb4:	620b      	str	r3, [r1, #32]
	gclk_chan_conf.source_generator = config->generator_source;
     eb6:	a90f      	add	r1, sp, #60	; 0x3c
     eb8:	272d      	movs	r7, #45	; 0x2d
     eba:	5df3      	ldrb	r3, [r6, r7]
     ebc:	700b      	strb	r3, [r1, #0]
	gclk_index   = sercom_index + SERCOM0_GCLK_ID_CORE;
     ebe:	3214      	adds	r2, #20
	system_gclk_chan_set_config(gclk_index, &gclk_chan_conf);
     ec0:	b2d3      	uxtb	r3, r2
     ec2:	9302      	str	r3, [sp, #8]
     ec4:	0018      	movs	r0, r3
     ec6:	4bac      	ldr	r3, [pc, #688]	; (1178 <usart_init+0x30c>)
     ec8:	4798      	blx	r3
	system_gclk_chan_enable(gclk_index);
     eca:	9802      	ldr	r0, [sp, #8]
     ecc:	4bab      	ldr	r3, [pc, #684]	; (117c <usart_init+0x310>)
     ece:	4798      	blx	r3
	sercom_set_gclk_generator(config->generator_source, false);
     ed0:	5df0      	ldrb	r0, [r6, r7]
     ed2:	2100      	movs	r1, #0
     ed4:	4baa      	ldr	r3, [pc, #680]	; (1180 <usart_init+0x314>)
     ed6:	4798      	blx	r3
	module->character_size = config->character_size;
     ed8:	7af3      	ldrb	r3, [r6, #11]
     eda:	716b      	strb	r3, [r5, #5]
	module->receiver_enabled = config->receiver_enable;
     edc:	2324      	movs	r3, #36	; 0x24
     ede:	5cf3      	ldrb	r3, [r6, r3]
     ee0:	71ab      	strb	r3, [r5, #6]
	module->transmitter_enabled = config->transmitter_enable;
     ee2:	2325      	movs	r3, #37	; 0x25
     ee4:	5cf3      	ldrb	r3, [r6, r3]
     ee6:	71eb      	strb	r3, [r5, #7]
	module->lin_slave_enabled = config->lin_slave_enable;
     ee8:	7ef3      	ldrb	r3, [r6, #27]
     eea:	722b      	strb	r3, [r5, #8]
	module->start_frame_detection_enabled = config->start_frame_detection_enable;
     eec:	7f33      	ldrb	r3, [r6, #28]
     eee:	726b      	strb	r3, [r5, #9]
	SercomUsart *const usart_hw = &(module->hw->USART);
     ef0:	682b      	ldr	r3, [r5, #0]
     ef2:	4698      	mov	r8, r3
	uint32_t sercom_index = _sercom_get_sercom_inst_index(module->hw);
     ef4:	0018      	movs	r0, r3
     ef6:	4b9e      	ldr	r3, [pc, #632]	; (1170 <usart_init+0x304>)
     ef8:	4798      	blx	r3
	gclk_index   = sercom_index + SERCOM0_GCLK_ID_CORE;
     efa:	3014      	adds	r0, #20
	uint16_t baud  = 0;
     efc:	2200      	movs	r2, #0
     efe:	230e      	movs	r3, #14
     f00:	a906      	add	r1, sp, #24
     f02:	468c      	mov	ip, r1
     f04:	4463      	add	r3, ip
     f06:	801a      	strh	r2, [r3, #0]
	switch (config->sample_rate) {
     f08:	8a32      	ldrh	r2, [r6, #16]
     f0a:	9202      	str	r2, [sp, #8]
     f0c:	2380      	movs	r3, #128	; 0x80
     f0e:	01db      	lsls	r3, r3, #7
     f10:	429a      	cmp	r2, r3
     f12:	d100      	bne.n	f16 <usart_init+0xaa>
     f14:	e09a      	b.n	104c <usart_init+0x1e0>
     f16:	d90f      	bls.n	f38 <usart_init+0xcc>
     f18:	23c0      	movs	r3, #192	; 0xc0
     f1a:	01db      	lsls	r3, r3, #7
     f1c:	9a02      	ldr	r2, [sp, #8]
     f1e:	429a      	cmp	r2, r3
     f20:	d100      	bne.n	f24 <usart_init+0xb8>
     f22:	e08e      	b.n	1042 <usart_init+0x1d6>
     f24:	2380      	movs	r3, #128	; 0x80
     f26:	021b      	lsls	r3, r3, #8
     f28:	429a      	cmp	r2, r3
     f2a:	d000      	beq.n	f2e <usart_init+0xc2>
     f2c:	e11b      	b.n	1166 <usart_init+0x2fa>
			sample_num = SERCOM_ASYNC_SAMPLE_NUM_3;
     f2e:	2303      	movs	r3, #3
     f30:	9306      	str	r3, [sp, #24]
			mode = SERCOM_ASYNC_OPERATION_MODE_ARITHMETIC;
     f32:	2300      	movs	r3, #0
     f34:	9307      	str	r3, [sp, #28]
     f36:	e008      	b.n	f4a <usart_init+0xde>
	switch (config->sample_rate) {
     f38:	2380      	movs	r3, #128	; 0x80
     f3a:	019b      	lsls	r3, r3, #6
     f3c:	429a      	cmp	r2, r3
     f3e:	d000      	beq.n	f42 <usart_init+0xd6>
     f40:	e111      	b.n	1166 <usart_init+0x2fa>
			sample_num = SERCOM_ASYNC_SAMPLE_NUM_16;
     f42:	2310      	movs	r3, #16
     f44:	9306      	str	r3, [sp, #24]
			mode = SERCOM_ASYNC_OPERATION_MODE_FRACTIONAL;
     f46:	3b0f      	subs	r3, #15
     f48:	9307      	str	r3, [sp, #28]
	ctrla = (uint32_t)config->data_order |
     f4a:	6833      	ldr	r3, [r6, #0]
     f4c:	9305      	str	r3, [sp, #20]
		(uint32_t)config->mux_setting |
     f4e:	68f3      	ldr	r3, [r6, #12]
     f50:	469b      	mov	fp, r3
		config->sample_adjustment |
     f52:	6973      	ldr	r3, [r6, #20]
     f54:	9303      	str	r3, [sp, #12]
		(config->immediate_buffer_overflow_notification << SERCOM_USART_CTRLA_IBON_Pos) |
     f56:	7e33      	ldrb	r3, [r6, #24]
     f58:	9304      	str	r3, [sp, #16]
		(config->clock_polarity_inverted << SERCOM_USART_CTRLA_CPOL_Pos);
     f5a:	2326      	movs	r3, #38	; 0x26
     f5c:	5cf3      	ldrb	r3, [r6, r3]
     f5e:	469a      	mov	sl, r3
	transfer_mode = (uint32_t)config->transfer_mode;
     f60:	6873      	ldr	r3, [r6, #4]
     f62:	4699      	mov	r9, r3
	switch (transfer_mode)
     f64:	2b00      	cmp	r3, #0
     f66:	d100      	bne.n	f6a <usart_init+0xfe>
     f68:	e09c      	b.n	10a4 <usart_init+0x238>
     f6a:	2380      	movs	r3, #128	; 0x80
     f6c:	055b      	lsls	r3, r3, #21
     f6e:	4599      	cmp	r9, r3
     f70:	d100      	bne.n	f74 <usart_init+0x108>
     f72:	e080      	b.n	1076 <usart_init+0x20a>
	if(config->encoding_format_enable) {
     f74:	7e73      	ldrb	r3, [r6, #25]
     f76:	2b00      	cmp	r3, #0
     f78:	d002      	beq.n	f80 <usart_init+0x114>
		usart_hw->RXPL.reg = config->receive_pulse_length;
     f7a:	7eb3      	ldrb	r3, [r6, #26]
     f7c:	4642      	mov	r2, r8
     f7e:	7393      	strb	r3, [r2, #14]
	usart_hw->BAUD.reg = baud;
     f80:	230e      	movs	r3, #14
     f82:	aa06      	add	r2, sp, #24
     f84:	4694      	mov	ip, r2
     f86:	4463      	add	r3, ip
     f88:	881b      	ldrh	r3, [r3, #0]
     f8a:	4642      	mov	r2, r8
     f8c:	8193      	strh	r3, [r2, #12]
	ctrla |= transfer_mode;
     f8e:	9b05      	ldr	r3, [sp, #20]
     f90:	465a      	mov	r2, fp
     f92:	4313      	orrs	r3, r2
     f94:	9a03      	ldr	r2, [sp, #12]
     f96:	4313      	orrs	r3, r2
     f98:	464a      	mov	r2, r9
     f9a:	4313      	orrs	r3, r2
     f9c:	9f02      	ldr	r7, [sp, #8]
     f9e:	431f      	orrs	r7, r3
		(config->immediate_buffer_overflow_notification << SERCOM_USART_CTRLA_IBON_Pos) |
     fa0:	9b04      	ldr	r3, [sp, #16]
     fa2:	021b      	lsls	r3, r3, #8
	ctrla |= transfer_mode;
     fa4:	431f      	orrs	r7, r3
		(config->clock_polarity_inverted << SERCOM_USART_CTRLA_CPOL_Pos);
     fa6:	4653      	mov	r3, sl
     fa8:	075b      	lsls	r3, r3, #29
	ctrla |= transfer_mode;
     faa:	431f      	orrs	r7, r3
	if (config->use_external_clock == false) {
     fac:	2327      	movs	r3, #39	; 0x27
     fae:	5cf3      	ldrb	r3, [r6, r3]
     fb0:	2b00      	cmp	r3, #0
     fb2:	d101      	bne.n	fb8 <usart_init+0x14c>
		ctrla |= SERCOM_USART_CTRLA_MODE(0x1);
     fb4:	3304      	adds	r3, #4
     fb6:	431f      	orrs	r7, r3
			(config->encoding_format_enable << SERCOM_USART_CTRLB_ENC_Pos) |
     fb8:	7e73      	ldrb	r3, [r6, #25]
     fba:	029b      	lsls	r3, r3, #10
			(config->start_frame_detection_enable << SERCOM_USART_CTRLB_SFDE_Pos) |
     fbc:	7f32      	ldrb	r2, [r6, #28]
     fbe:	0252      	lsls	r2, r2, #9
			(config->encoding_format_enable << SERCOM_USART_CTRLB_ENC_Pos) |
     fc0:	4313      	orrs	r3, r2
			(config->collision_detection_enable << SERCOM_USART_CTRLB_COLDEN_Pos) |
     fc2:	7f72      	ldrb	r2, [r6, #29]
     fc4:	0212      	lsls	r2, r2, #8
			(config->start_frame_detection_enable << SERCOM_USART_CTRLB_SFDE_Pos) |
     fc6:	4313      	orrs	r3, r2
			(config->receiver_enable << SERCOM_USART_CTRLB_RXEN_Pos) |
     fc8:	2224      	movs	r2, #36	; 0x24
     fca:	5cb2      	ldrb	r2, [r6, r2]
     fcc:	0452      	lsls	r2, r2, #17
			(config->collision_detection_enable << SERCOM_USART_CTRLB_COLDEN_Pos) |
     fce:	4313      	orrs	r3, r2
			(config->transmitter_enable << SERCOM_USART_CTRLB_TXEN_Pos);
     fd0:	2225      	movs	r2, #37	; 0x25
     fd2:	5cb2      	ldrb	r2, [r6, r2]
     fd4:	0412      	lsls	r2, r2, #16
			(config->receiver_enable << SERCOM_USART_CTRLB_RXEN_Pos) |
     fd6:	4313      	orrs	r3, r2
	ctrlb |= (uint32_t)config->character_size;
     fd8:	7ab1      	ldrb	r1, [r6, #10]
     fda:	7af2      	ldrb	r2, [r6, #11]
     fdc:	4311      	orrs	r1, r2
     fde:	4319      	orrs	r1, r3
	if (config->parity != USART_PARITY_NONE) {
     fe0:	8933      	ldrh	r3, [r6, #8]
     fe2:	2bff      	cmp	r3, #255	; 0xff
     fe4:	d100      	bne.n	fe8 <usart_init+0x17c>
     fe6:	e081      	b.n	10ec <usart_init+0x280>
		ctrla |= SERCOM_USART_CTRLA_FORM(1);
     fe8:	2280      	movs	r2, #128	; 0x80
     fea:	0452      	lsls	r2, r2, #17
     fec:	4317      	orrs	r7, r2
		ctrlb |= config->parity;
     fee:	4319      	orrs	r1, r3
	if (config->run_in_standby || system_is_debugger_present()) {
     ff0:	232c      	movs	r3, #44	; 0x2c
     ff2:	5cf3      	ldrb	r3, [r6, r3]
     ff4:	2b00      	cmp	r3, #0
     ff6:	d103      	bne.n	1000 <usart_init+0x194>
 * \retval false Debugger is not connected to the system
 *
 */
static inline bool system_is_debugger_present(void)
{
	return DSU->STATUSB.reg & DSU_STATUSB_DBGPRES;
     ff8:	4b62      	ldr	r3, [pc, #392]	; (1184 <usart_init+0x318>)
     ffa:	789b      	ldrb	r3, [r3, #2]
     ffc:	079b      	lsls	r3, r3, #30
     ffe:	d501      	bpl.n	1004 <usart_init+0x198>
		ctrla |= SERCOM_USART_CTRLA_RUNSTDBY;
    1000:	2380      	movs	r3, #128	; 0x80
    1002:	431f      	orrs	r7, r3
{
	/* Sanity check arguments */
	Assert(module);
	Assert(module->hw);

	SercomUsart *const usart_hw = &(module->hw->USART);
    1004:	682a      	ldr	r2, [r5, #0]

#ifdef FEATURE_USART_SYNC_SCHEME_V2
	return (usart_hw->SYNCBUSY.reg);
    1006:	69d3      	ldr	r3, [r2, #28]
		const struct usart_module *const module)
{
	/* Sanity check */
	Assert(module);

	while (usart_is_syncing(module)) {
    1008:	2b00      	cmp	r3, #0
    100a:	d1fc      	bne.n	1006 <usart_init+0x19a>
	usart_hw->CTRLB.reg = ctrlb;
    100c:	4643      	mov	r3, r8
    100e:	6059      	str	r1, [r3, #4]
	SercomUsart *const usart_hw = &(module->hw->USART);
    1010:	682a      	ldr	r2, [r5, #0]
	return (usart_hw->SYNCBUSY.reg);
    1012:	69d3      	ldr	r3, [r2, #28]
	while (usart_is_syncing(module)) {
    1014:	2b00      	cmp	r3, #0
    1016:	d1fc      	bne.n	1012 <usart_init+0x1a6>
	usart_hw->CTRLA.reg = ctrla;
    1018:	4643      	mov	r3, r8
    101a:	601f      	str	r7, [r3, #0]
    101c:	ab0e      	add	r3, sp, #56	; 0x38
    101e:	2280      	movs	r2, #128	; 0x80
    1020:	701a      	strb	r2, [r3, #0]
	config->direction    = SYSTEM_PINMUX_PIN_DIR_INPUT;
    1022:	2200      	movs	r2, #0
    1024:	705a      	strb	r2, [r3, #1]
	config->powersave    = false;
    1026:	70da      	strb	r2, [r3, #3]
	pin_conf.input_pull = SYSTEM_PINMUX_PIN_PULL_NONE;
    1028:	709a      	strb	r2, [r3, #2]
	uint32_t pad_pinmuxes[] = {
    102a:	6b33      	ldr	r3, [r6, #48]	; 0x30
    102c:	930a      	str	r3, [sp, #40]	; 0x28
    102e:	6b73      	ldr	r3, [r6, #52]	; 0x34
    1030:	930b      	str	r3, [sp, #44]	; 0x2c
    1032:	6bb3      	ldr	r3, [r6, #56]	; 0x38
    1034:	930c      	str	r3, [sp, #48]	; 0x30
    1036:	6bf3      	ldr	r3, [r6, #60]	; 0x3c
    1038:	9302      	str	r3, [sp, #8]
    103a:	930d      	str	r3, [sp, #52]	; 0x34
    103c:	2700      	movs	r7, #0
		uint32_t current_pinmux = pad_pinmuxes[pad];
    103e:	ae0a      	add	r6, sp, #40	; 0x28
    1040:	e063      	b.n	110a <usart_init+0x29e>
			sample_num = SERCOM_ASYNC_SAMPLE_NUM_8;
    1042:	2308      	movs	r3, #8
    1044:	9306      	str	r3, [sp, #24]
			mode = SERCOM_ASYNC_OPERATION_MODE_FRACTIONAL;
    1046:	3b07      	subs	r3, #7
    1048:	9307      	str	r3, [sp, #28]
    104a:	e77e      	b.n	f4a <usart_init+0xde>
	ctrla = (uint32_t)config->data_order |
    104c:	6833      	ldr	r3, [r6, #0]
    104e:	9305      	str	r3, [sp, #20]
		(uint32_t)config->mux_setting |
    1050:	68f3      	ldr	r3, [r6, #12]
    1052:	469b      	mov	fp, r3
		config->sample_adjustment |
    1054:	6973      	ldr	r3, [r6, #20]
    1056:	9303      	str	r3, [sp, #12]
		(config->immediate_buffer_overflow_notification << SERCOM_USART_CTRLA_IBON_Pos) |
    1058:	7e33      	ldrb	r3, [r6, #24]
    105a:	9304      	str	r3, [sp, #16]
		(config->clock_polarity_inverted << SERCOM_USART_CTRLA_CPOL_Pos);
    105c:	2326      	movs	r3, #38	; 0x26
    105e:	5cf3      	ldrb	r3, [r6, r3]
    1060:	469a      	mov	sl, r3
	transfer_mode = (uint32_t)config->transfer_mode;
    1062:	6873      	ldr	r3, [r6, #4]
    1064:	4699      	mov	r9, r3
	switch (transfer_mode)
    1066:	2b00      	cmp	r3, #0
    1068:	d018      	beq.n	109c <usart_init+0x230>
    106a:	2380      	movs	r3, #128	; 0x80
    106c:	055b      	lsls	r3, r3, #21
    106e:	4599      	cmp	r9, r3
    1070:	d001      	beq.n	1076 <usart_init+0x20a>
	enum status_code status_code = STATUS_OK;
    1072:	2000      	movs	r0, #0
    1074:	e025      	b.n	10c2 <usart_init+0x256>
			if (!config->use_external_clock) {
    1076:	2327      	movs	r3, #39	; 0x27
    1078:	5cf3      	ldrb	r3, [r6, r3]
    107a:	2b00      	cmp	r3, #0
    107c:	d000      	beq.n	1080 <usart_init+0x214>
    107e:	e779      	b.n	f74 <usart_init+0x108>
				status_code = _sercom_get_sync_baud_val(config->baudrate,
    1080:	6a33      	ldr	r3, [r6, #32]
    1082:	001f      	movs	r7, r3
    1084:	b2c0      	uxtb	r0, r0
    1086:	4b40      	ldr	r3, [pc, #256]	; (1188 <usart_init+0x31c>)
    1088:	4798      	blx	r3
    108a:	0001      	movs	r1, r0
    108c:	220e      	movs	r2, #14
    108e:	ab06      	add	r3, sp, #24
    1090:	469c      	mov	ip, r3
    1092:	4462      	add	r2, ip
    1094:	0038      	movs	r0, r7
    1096:	4b3d      	ldr	r3, [pc, #244]	; (118c <usart_init+0x320>)
    1098:	4798      	blx	r3
    109a:	e012      	b.n	10c2 <usart_init+0x256>
			sample_num = SERCOM_ASYNC_SAMPLE_NUM_8;
    109c:	2308      	movs	r3, #8
    109e:	9306      	str	r3, [sp, #24]
			mode = SERCOM_ASYNC_OPERATION_MODE_ARITHMETIC;
    10a0:	2300      	movs	r3, #0
    10a2:	9307      	str	r3, [sp, #28]
			if (config->use_external_clock) {
    10a4:	2327      	movs	r3, #39	; 0x27
    10a6:	5cf3      	ldrb	r3, [r6, r3]
    10a8:	2b00      	cmp	r3, #0
    10aa:	d00e      	beq.n	10ca <usart_init+0x25e>
				status_code =
    10ac:	9b06      	ldr	r3, [sp, #24]
    10ae:	9300      	str	r3, [sp, #0]
    10b0:	9b07      	ldr	r3, [sp, #28]
    10b2:	220e      	movs	r2, #14
    10b4:	a906      	add	r1, sp, #24
    10b6:	468c      	mov	ip, r1
    10b8:	4462      	add	r2, ip
    10ba:	6ab1      	ldr	r1, [r6, #40]	; 0x28
    10bc:	6a30      	ldr	r0, [r6, #32]
    10be:	4f34      	ldr	r7, [pc, #208]	; (1190 <usart_init+0x324>)
    10c0:	47b8      	blx	r7
	if (status_code != STATUS_OK) {
    10c2:	2800      	cmp	r0, #0
    10c4:	d000      	beq.n	10c8 <usart_init+0x25c>
    10c6:	e6e4      	b.n	e92 <usart_init+0x26>
    10c8:	e754      	b.n	f74 <usart_init+0x108>
						_sercom_get_async_baud_val(config->baudrate,
    10ca:	6a33      	ldr	r3, [r6, #32]
    10cc:	001f      	movs	r7, r3
    10ce:	b2c0      	uxtb	r0, r0
    10d0:	4b2d      	ldr	r3, [pc, #180]	; (1188 <usart_init+0x31c>)
    10d2:	4798      	blx	r3
    10d4:	0001      	movs	r1, r0
				status_code =
    10d6:	9b06      	ldr	r3, [sp, #24]
    10d8:	9300      	str	r3, [sp, #0]
    10da:	9b07      	ldr	r3, [sp, #28]
    10dc:	220e      	movs	r2, #14
    10de:	a806      	add	r0, sp, #24
    10e0:	4684      	mov	ip, r0
    10e2:	4462      	add	r2, ip
    10e4:	0038      	movs	r0, r7
    10e6:	4f2a      	ldr	r7, [pc, #168]	; (1190 <usart_init+0x324>)
    10e8:	47b8      	blx	r7
    10ea:	e7ea      	b.n	10c2 <usart_init+0x256>
		if(config->lin_slave_enable) {
    10ec:	7ef3      	ldrb	r3, [r6, #27]
    10ee:	2b00      	cmp	r3, #0
    10f0:	d100      	bne.n	10f4 <usart_init+0x288>
    10f2:	e77d      	b.n	ff0 <usart_init+0x184>
			ctrla |= SERCOM_USART_CTRLA_FORM(0x4);
    10f4:	2380      	movs	r3, #128	; 0x80
    10f6:	04db      	lsls	r3, r3, #19
    10f8:	431f      	orrs	r7, r3
    10fa:	e779      	b.n	ff0 <usart_init+0x184>
			current_pinmux = _sercom_get_default_pad(hw, pad);
    10fc:	0020      	movs	r0, r4
    10fe:	4b25      	ldr	r3, [pc, #148]	; (1194 <usart_init+0x328>)
    1100:	4798      	blx	r3
    1102:	e007      	b.n	1114 <usart_init+0x2a8>
    1104:	3701      	adds	r7, #1
	for (uint8_t pad = 0; pad < 4; pad++) {
    1106:	2f04      	cmp	r7, #4
    1108:	d00d      	beq.n	1126 <usart_init+0x2ba>
    110a:	b2f9      	uxtb	r1, r7
		uint32_t current_pinmux = pad_pinmuxes[pad];
    110c:	00bb      	lsls	r3, r7, #2
    110e:	5998      	ldr	r0, [r3, r6]
		if (current_pinmux == PINMUX_DEFAULT) {
    1110:	2800      	cmp	r0, #0
    1112:	d0f3      	beq.n	10fc <usart_init+0x290>
		if (current_pinmux != PINMUX_UNUSED) {
    1114:	1c43      	adds	r3, r0, #1
    1116:	d0f5      	beq.n	1104 <usart_init+0x298>
			pin_conf.mux_position = current_pinmux & 0xFFFF;
    1118:	a90e      	add	r1, sp, #56	; 0x38
    111a:	7008      	strb	r0, [r1, #0]
			system_pinmux_pin_set_config(current_pinmux >> 16, &pin_conf);
    111c:	0c00      	lsrs	r0, r0, #16
    111e:	b2c0      	uxtb	r0, r0
    1120:	4b1d      	ldr	r3, [pc, #116]	; (1198 <usart_init+0x32c>)
    1122:	4798      	blx	r3
    1124:	e7ee      	b.n	1104 <usart_init+0x298>
		module->callback[i]            = NULL;
    1126:	2300      	movs	r3, #0
    1128:	60eb      	str	r3, [r5, #12]
    112a:	612b      	str	r3, [r5, #16]
    112c:	616b      	str	r3, [r5, #20]
    112e:	61ab      	str	r3, [r5, #24]
    1130:	61eb      	str	r3, [r5, #28]
    1132:	622b      	str	r3, [r5, #32]
	module->tx_buffer_ptr              = NULL;
    1134:	62ab      	str	r3, [r5, #40]	; 0x28
	module->rx_buffer_ptr              = NULL;
    1136:	626b      	str	r3, [r5, #36]	; 0x24
	module->remaining_tx_buffer_length = 0x0000;
    1138:	2200      	movs	r2, #0
    113a:	85eb      	strh	r3, [r5, #46]	; 0x2e
	module->remaining_rx_buffer_length = 0x0000;
    113c:	85ab      	strh	r3, [r5, #44]	; 0x2c
	module->callback_reg_mask          = 0x00;
    113e:	3330      	adds	r3, #48	; 0x30
    1140:	54ea      	strb	r2, [r5, r3]
	module->callback_enable_mask       = 0x00;
    1142:	3301      	adds	r3, #1
    1144:	54ea      	strb	r2, [r5, r3]
	module->rx_status                  = STATUS_OK;
    1146:	3301      	adds	r3, #1
    1148:	54ea      	strb	r2, [r5, r3]
	module->tx_status                  = STATUS_OK;
    114a:	3301      	adds	r3, #1
    114c:	54ea      	strb	r2, [r5, r3]
	uint8_t instance_index = _sercom_get_sercom_inst_index(module->hw);
    114e:	6828      	ldr	r0, [r5, #0]
    1150:	4b07      	ldr	r3, [pc, #28]	; (1170 <usart_init+0x304>)
    1152:	4798      	blx	r3
    1154:	0004      	movs	r4, r0
	_sercom_set_handler(instance_index, _usart_interrupt_handler);
    1156:	4911      	ldr	r1, [pc, #68]	; (119c <usart_init+0x330>)
    1158:	4b11      	ldr	r3, [pc, #68]	; (11a0 <usart_init+0x334>)
    115a:	4798      	blx	r3
	_sercom_instances[instance_index] = module;
    115c:	00a4      	lsls	r4, r4, #2
    115e:	4b11      	ldr	r3, [pc, #68]	; (11a4 <usart_init+0x338>)
    1160:	50e5      	str	r5, [r4, r3]
	return status_code;
    1162:	2000      	movs	r0, #0
    1164:	e695      	b.n	e92 <usart_init+0x26>
	enum sercom_asynchronous_sample_num sample_num = SERCOM_ASYNC_SAMPLE_NUM_16;
    1166:	2310      	movs	r3, #16
    1168:	9306      	str	r3, [sp, #24]
	enum sercom_asynchronous_operation_mode mode = SERCOM_ASYNC_OPERATION_MODE_ARITHMETIC;
    116a:	2300      	movs	r3, #0
    116c:	9307      	str	r3, [sp, #28]
    116e:	e6ec      	b.n	f4a <usart_init+0xde>
    1170:	00000d65 	.word	0x00000d65
    1174:	40000400 	.word	0x40000400
    1178:	00001a11 	.word	0x00001a11
    117c:	00001985 	.word	0x00001985
    1180:	00000ba1 	.word	0x00000ba1
    1184:	41002000 	.word	0x41002000
    1188:	00001a2d 	.word	0x00001a2d
    118c:	00000ae3 	.word	0x00000ae3
    1190:	00000b0d 	.word	0x00000b0d
    1194:	00000bed 	.word	0x00000bed
    1198:	00001b09 	.word	0x00001b09
    119c:	00001239 	.word	0x00001239
    11a0:	00000da1 	.word	0x00000da1
    11a4:	200002ac 	.word	0x200002ac

000011a8 <usart_write_wait>:

	/* Get a pointer to the hardware module instance */
	SercomUsart *const usart_hw = &(module->hw->USART);

	/* Check that the transmitter is enabled */
	if (!(module->transmitter_enabled)) {
    11a8:	79c2      	ldrb	r2, [r0, #7]
		return STATUS_ERR_DENIED;
    11aa:	231c      	movs	r3, #28
	if (!(module->transmitter_enabled)) {
    11ac:	2a00      	cmp	r2, #0
    11ae:	d101      	bne.n	11b4 <usart_write_wait+0xc>
	while (!(usart_hw->INTFLAG.reg & SERCOM_USART_INTFLAG_TXC)) {
		/* Wait until data is sent */
	}

	return STATUS_OK;
}
    11b0:	0018      	movs	r0, r3
    11b2:	4770      	bx	lr
	if (module->remaining_tx_buffer_length > 0) {
    11b4:	8dc2      	ldrh	r2, [r0, #46]	; 0x2e
    11b6:	b292      	uxth	r2, r2
		return STATUS_BUSY;
    11b8:	3b17      	subs	r3, #23
	if (module->remaining_tx_buffer_length > 0) {
    11ba:	2a00      	cmp	r2, #0
    11bc:	d1f8      	bne.n	11b0 <usart_write_wait+0x8>
	SercomUsart *const usart_hw = &(module->hw->USART);
    11be:	6802      	ldr	r2, [r0, #0]
	usart_hw->DATA.reg = tx_data;
    11c0:	8511      	strh	r1, [r2, #40]	; 0x28
	while (!(usart_hw->INTFLAG.reg & SERCOM_USART_INTFLAG_TXC)) {
    11c2:	2102      	movs	r1, #2
    11c4:	7e13      	ldrb	r3, [r2, #24]
    11c6:	420b      	tst	r3, r1
    11c8:	d0fc      	beq.n	11c4 <usart_write_wait+0x1c>
	return STATUS_OK;
    11ca:	2300      	movs	r3, #0
    11cc:	e7f0      	b.n	11b0 <usart_write_wait+0x8>

000011ce <usart_read_wait>:

	/* Get a pointer to the hardware module instance */
	SercomUsart *const usart_hw = &(module->hw->USART);

	/* Check that the receiver is enabled */
	if (!(module->receiver_enabled)) {
    11ce:	7982      	ldrb	r2, [r0, #6]
		return STATUS_ERR_DENIED;
    11d0:	231c      	movs	r3, #28
	if (!(module->receiver_enabled)) {
    11d2:	2a00      	cmp	r2, #0
    11d4:	d101      	bne.n	11da <usart_read_wait+0xc>

	/* Read data from USART module */
	*rx_data = usart_hw->DATA.reg;

	return STATUS_OK;
}
    11d6:	0018      	movs	r0, r3
    11d8:	4770      	bx	lr
	if (module->remaining_rx_buffer_length > 0) {
    11da:	8d82      	ldrh	r2, [r0, #44]	; 0x2c
    11dc:	b292      	uxth	r2, r2
		return STATUS_BUSY;
    11de:	3b17      	subs	r3, #23
	if (module->remaining_rx_buffer_length > 0) {
    11e0:	2a00      	cmp	r2, #0
    11e2:	d1f8      	bne.n	11d6 <usart_read_wait+0x8>
	SercomUsart *const usart_hw = &(module->hw->USART);
    11e4:	6802      	ldr	r2, [r0, #0]
	if (!(usart_hw->INTFLAG.reg & SERCOM_USART_INTFLAG_RXC)) {
    11e6:	7e10      	ldrb	r0, [r2, #24]
    11e8:	0740      	lsls	r0, r0, #29
    11ea:	d5f4      	bpl.n	11d6 <usart_read_wait+0x8>
	error_code = (uint8_t)(usart_hw->STATUS.reg & SERCOM_USART_STATUS_MASK);
    11ec:	8b53      	ldrh	r3, [r2, #26]
    11ee:	b2db      	uxtb	r3, r3
	if (error_code) {
    11f0:	0698      	lsls	r0, r3, #26
    11f2:	d01d      	beq.n	1230 <usart_read_wait+0x62>
		if (error_code & SERCOM_USART_STATUS_FERR) {
    11f4:	0798      	lsls	r0, r3, #30
    11f6:	d503      	bpl.n	1200 <usart_read_wait+0x32>
			usart_hw->STATUS.reg = SERCOM_USART_STATUS_FERR;
    11f8:	2302      	movs	r3, #2
    11fa:	8353      	strh	r3, [r2, #26]
			return STATUS_ERR_BAD_FORMAT;
    11fc:	3318      	adds	r3, #24
    11fe:	e7ea      	b.n	11d6 <usart_read_wait+0x8>
		} else if (error_code & SERCOM_USART_STATUS_BUFOVF) {
    1200:	0758      	lsls	r0, r3, #29
    1202:	d503      	bpl.n	120c <usart_read_wait+0x3e>
			usart_hw->STATUS.reg = SERCOM_USART_STATUS_BUFOVF;
    1204:	2304      	movs	r3, #4
    1206:	8353      	strh	r3, [r2, #26]
			return STATUS_ERR_OVERFLOW;
    1208:	331a      	adds	r3, #26
    120a:	e7e4      	b.n	11d6 <usart_read_wait+0x8>
		} else if (error_code & SERCOM_USART_STATUS_PERR) {
    120c:	07d8      	lsls	r0, r3, #31
    120e:	d503      	bpl.n	1218 <usart_read_wait+0x4a>
			usart_hw->STATUS.reg = SERCOM_USART_STATUS_PERR;
    1210:	2301      	movs	r3, #1
    1212:	8353      	strh	r3, [r2, #26]
			return STATUS_ERR_BAD_DATA;
    1214:	3312      	adds	r3, #18
    1216:	e7de      	b.n	11d6 <usart_read_wait+0x8>
		else if (error_code & SERCOM_USART_STATUS_ISF) {
    1218:	06d8      	lsls	r0, r3, #27
    121a:	d503      	bpl.n	1224 <usart_read_wait+0x56>
			usart_hw->STATUS.reg = SERCOM_USART_STATUS_ISF;
    121c:	2310      	movs	r3, #16
    121e:	8353      	strh	r3, [r2, #26]
			return STATUS_ERR_PROTOCOL;
    1220:	3332      	adds	r3, #50	; 0x32
    1222:	e7d8      	b.n	11d6 <usart_read_wait+0x8>
		else if (error_code & SERCOM_USART_STATUS_COLL) {
    1224:	069b      	lsls	r3, r3, #26
    1226:	d503      	bpl.n	1230 <usart_read_wait+0x62>
			usart_hw->STATUS.reg = SERCOM_USART_STATUS_COLL;
    1228:	2320      	movs	r3, #32
    122a:	8353      	strh	r3, [r2, #26]
			return STATUS_ERR_PACKET_COLLISION;
    122c:	3321      	adds	r3, #33	; 0x21
    122e:	e7d2      	b.n	11d6 <usart_read_wait+0x8>
	*rx_data = usart_hw->DATA.reg;
    1230:	8d13      	ldrh	r3, [r2, #40]	; 0x28
    1232:	800b      	strh	r3, [r1, #0]
	return STATUS_OK;
    1234:	2300      	movs	r3, #0
    1236:	e7ce      	b.n	11d6 <usart_read_wait+0x8>

00001238 <_usart_interrupt_handler>:
 * \param[in]  instance  ID of the SERCOM instance calling the interrupt
 *                       handler.
 */
void _usart_interrupt_handler(
		uint8_t instance)
{
    1238:	b5f8      	push	{r3, r4, r5, r6, r7, lr}
	uint16_t callback_status;
	uint8_t error_code;


	/* Get device instance from the look-up table */
	struct usart_module *module
    123a:	0080      	lsls	r0, r0, #2
    123c:	4b62      	ldr	r3, [pc, #392]	; (13c8 <_usart_interrupt_handler+0x190>)
    123e:	58c5      	ldr	r5, [r0, r3]
		= (struct usart_module *)_sercom_instances[instance];

	/* Pointer to the hardware module instance */
	SercomUsart *const usart_hw
		= &(module->hw->USART);
    1240:	682c      	ldr	r4, [r5, #0]
	return (usart_hw->SYNCBUSY.reg);
    1242:	69e3      	ldr	r3, [r4, #28]
	while (usart_is_syncing(module)) {
    1244:	2b00      	cmp	r3, #0
    1246:	d1fc      	bne.n	1242 <_usart_interrupt_handler+0xa>

	/* Wait for the synchronization to complete */
	_usart_wait_for_sync(module);

	/* Read and mask interrupt flag register */
	interrupt_status = usart_hw->INTFLAG.reg;
    1248:	7e23      	ldrb	r3, [r4, #24]
	interrupt_status &= usart_hw->INTENSET.reg;
    124a:	7da6      	ldrb	r6, [r4, #22]
    124c:	401e      	ands	r6, r3
	callback_status = module->callback_reg_mask &
    124e:	2330      	movs	r3, #48	; 0x30
    1250:	5ceb      	ldrb	r3, [r5, r3]
    1252:	2231      	movs	r2, #49	; 0x31
    1254:	5caf      	ldrb	r7, [r5, r2]
    1256:	401f      	ands	r7, r3
			module->callback_enable_mask;

	/* Check if a DATA READY interrupt has occurred,
	 * and if there is more to transfer */
	if (interrupt_status & SERCOM_USART_INTFLAG_DRE) {
    1258:	07f3      	lsls	r3, r6, #31
    125a:	d522      	bpl.n	12a2 <_usart_interrupt_handler+0x6a>
		if (module->remaining_tx_buffer_length) {
    125c:	8deb      	ldrh	r3, [r5, #46]	; 0x2e
    125e:	b29b      	uxth	r3, r3
    1260:	2b00      	cmp	r3, #0
    1262:	d01c      	beq.n	129e <_usart_interrupt_handler+0x66>
			/* Write value will be at least 8-bits long */
			uint16_t data_to_send = *(module->tx_buffer_ptr);
    1264:	6aaa      	ldr	r2, [r5, #40]	; 0x28
    1266:	7813      	ldrb	r3, [r2, #0]
    1268:	b2db      	uxtb	r3, r3
			/* Increment 8-bit pointer */
			(module->tx_buffer_ptr)++;
    126a:	1c51      	adds	r1, r2, #1
    126c:	62a9      	str	r1, [r5, #40]	; 0x28

			if (module->character_size == USART_CHARACTER_SIZE_9BIT) {
    126e:	7969      	ldrb	r1, [r5, #5]
    1270:	2901      	cmp	r1, #1
    1272:	d00e      	beq.n	1292 <_usart_interrupt_handler+0x5a>
			uint16_t data_to_send = *(module->tx_buffer_ptr);
    1274:	b29b      	uxth	r3, r3
				data_to_send |= (*(module->tx_buffer_ptr) << 8);
				/* Increment 8-bit pointer */
				(module->tx_buffer_ptr)++;
			}
			/* Write the data to send */
			usart_hw->DATA.reg = (data_to_send & SERCOM_USART_DATA_MASK);
    1276:	05db      	lsls	r3, r3, #23
    1278:	0ddb      	lsrs	r3, r3, #23
    127a:	8523      	strh	r3, [r4, #40]	; 0x28

			if (--(module->remaining_tx_buffer_length) == 0) {
    127c:	8deb      	ldrh	r3, [r5, #46]	; 0x2e
    127e:	3b01      	subs	r3, #1
    1280:	b29b      	uxth	r3, r3
    1282:	85eb      	strh	r3, [r5, #46]	; 0x2e
    1284:	2b00      	cmp	r3, #0
    1286:	d10c      	bne.n	12a2 <_usart_interrupt_handler+0x6a>
				/* Disable the Data Register Empty Interrupt */
				usart_hw->INTENCLR.reg = SERCOM_USART_INTFLAG_DRE;
    1288:	3301      	adds	r3, #1
    128a:	7523      	strb	r3, [r4, #20]
				/* Enable Transmission Complete interrupt */
				usart_hw->INTENSET.reg = SERCOM_USART_INTFLAG_TXC;
    128c:	3301      	adds	r3, #1
    128e:	75a3      	strb	r3, [r4, #22]
    1290:	e007      	b.n	12a2 <_usart_interrupt_handler+0x6a>
				data_to_send |= (*(module->tx_buffer_ptr) << 8);
    1292:	7851      	ldrb	r1, [r2, #1]
    1294:	0209      	lsls	r1, r1, #8
    1296:	430b      	orrs	r3, r1
				(module->tx_buffer_ptr)++;
    1298:	3202      	adds	r2, #2
    129a:	62aa      	str	r2, [r5, #40]	; 0x28
    129c:	e7eb      	b.n	1276 <_usart_interrupt_handler+0x3e>

			}
		} else {
			usart_hw->INTENCLR.reg = SERCOM_USART_INTFLAG_DRE;
    129e:	2301      	movs	r3, #1
    12a0:	7523      	strb	r3, [r4, #20]
		}
	}

	/* Check if the Transmission Complete interrupt has occurred and
	 * that the transmit buffer is empty */
	if (interrupt_status & SERCOM_USART_INTFLAG_TXC) {
    12a2:	07b3      	lsls	r3, r6, #30
    12a4:	d506      	bpl.n	12b4 <_usart_interrupt_handler+0x7c>

		/* Disable TX Complete Interrupt, and set STATUS_OK */
		usart_hw->INTENCLR.reg = SERCOM_USART_INTFLAG_TXC;
    12a6:	2302      	movs	r3, #2
    12a8:	7523      	strb	r3, [r4, #20]
		module->tx_status = STATUS_OK;
    12aa:	2200      	movs	r2, #0
    12ac:	3331      	adds	r3, #49	; 0x31
    12ae:	54ea      	strb	r2, [r5, r3]

		/* Run callback if registered and enabled */
		if (callback_status & (1 << USART_CALLBACK_BUFFER_TRANSMITTED)) {
    12b0:	07fb      	lsls	r3, r7, #31
    12b2:	d41a      	bmi.n	12ea <_usart_interrupt_handler+0xb2>
		}
	}

	/* Check if the Receive Complete interrupt has occurred, and that
	 * there's more data to receive */
	if (interrupt_status & SERCOM_USART_INTFLAG_RXC) {
    12b4:	0773      	lsls	r3, r6, #29
    12b6:	d565      	bpl.n	1384 <_usart_interrupt_handler+0x14c>

		if (module->remaining_rx_buffer_length) {
    12b8:	8dab      	ldrh	r3, [r5, #44]	; 0x2c
    12ba:	b29b      	uxth	r3, r3
    12bc:	2b00      	cmp	r3, #0
    12be:	d05f      	beq.n	1380 <_usart_interrupt_handler+0x148>
			/* Read out the status code and mask away all but the 4 LSBs*/
			error_code = (uint8_t)(usart_hw->STATUS.reg & SERCOM_USART_STATUS_MASK);
    12c0:	8b63      	ldrh	r3, [r4, #26]
    12c2:	b2db      	uxtb	r3, r3
#if !SAMD20
			/* CTS status should not be considered as an error */
			if(error_code & SERCOM_USART_STATUS_CTS) {
    12c4:	071a      	lsls	r2, r3, #28
    12c6:	d414      	bmi.n	12f2 <_usart_interrupt_handler+0xba>
			error_code = (uint8_t)(usart_hw->STATUS.reg & SERCOM_USART_STATUS_MASK);
    12c8:	223f      	movs	r2, #63	; 0x3f
    12ca:	4013      	ands	r3, r2
			if(error_code & SERCOM_USART_STATUS_TXE) {
				error_code &= ~SERCOM_USART_STATUS_TXE;
			}
#endif
			/* Check if an error has occurred during the receiving */
			if (error_code) {
    12cc:	2b00      	cmp	r3, #0
    12ce:	d034      	beq.n	133a <_usart_interrupt_handler+0x102>
				/* Check which error occurred */
				if (error_code & SERCOM_USART_STATUS_FERR) {
    12d0:	079a      	lsls	r2, r3, #30
    12d2:	d511      	bpl.n	12f8 <_usart_interrupt_handler+0xc0>
					/* Store the error code and clear flag by writing 1 to it */
					module->rx_status = STATUS_ERR_BAD_FORMAT;
    12d4:	221a      	movs	r2, #26
    12d6:	2332      	movs	r3, #50	; 0x32
    12d8:	54ea      	strb	r2, [r5, r3]
					usart_hw->STATUS.reg = SERCOM_USART_STATUS_FERR;
    12da:	3b30      	subs	r3, #48	; 0x30
    12dc:	8363      	strh	r3, [r4, #26]
					usart_hw->STATUS.reg = SERCOM_USART_STATUS_COLL;
				}
#endif

				/* Run callback if registered and enabled */
				if (callback_status
    12de:	077b      	lsls	r3, r7, #29
    12e0:	d550      	bpl.n	1384 <_usart_interrupt_handler+0x14c>
						& (1 << USART_CALLBACK_ERROR)) {
					(*(module->callback[USART_CALLBACK_ERROR]))(module);
    12e2:	0028      	movs	r0, r5
    12e4:	696b      	ldr	r3, [r5, #20]
    12e6:	4798      	blx	r3
    12e8:	e04c      	b.n	1384 <_usart_interrupt_handler+0x14c>
			(*(module->callback[USART_CALLBACK_BUFFER_TRANSMITTED]))(module);
    12ea:	0028      	movs	r0, r5
    12ec:	68eb      	ldr	r3, [r5, #12]
    12ee:	4798      	blx	r3
    12f0:	e7e0      	b.n	12b4 <_usart_interrupt_handler+0x7c>
				error_code &= ~SERCOM_USART_STATUS_CTS;
    12f2:	2237      	movs	r2, #55	; 0x37
    12f4:	4013      	ands	r3, r2
    12f6:	e7e9      	b.n	12cc <_usart_interrupt_handler+0x94>
				} else if (error_code & SERCOM_USART_STATUS_BUFOVF) {
    12f8:	075a      	lsls	r2, r3, #29
    12fa:	d505      	bpl.n	1308 <_usart_interrupt_handler+0xd0>
					module->rx_status = STATUS_ERR_OVERFLOW;
    12fc:	221e      	movs	r2, #30
    12fe:	2332      	movs	r3, #50	; 0x32
    1300:	54ea      	strb	r2, [r5, r3]
					usart_hw->STATUS.reg = SERCOM_USART_STATUS_BUFOVF;
    1302:	3b2e      	subs	r3, #46	; 0x2e
    1304:	8363      	strh	r3, [r4, #26]
    1306:	e7ea      	b.n	12de <_usart_interrupt_handler+0xa6>
				} else if (error_code & SERCOM_USART_STATUS_PERR) {
    1308:	07da      	lsls	r2, r3, #31
    130a:	d505      	bpl.n	1318 <_usart_interrupt_handler+0xe0>
					module->rx_status = STATUS_ERR_BAD_DATA;
    130c:	2213      	movs	r2, #19
    130e:	2332      	movs	r3, #50	; 0x32
    1310:	54ea      	strb	r2, [r5, r3]
					usart_hw->STATUS.reg = SERCOM_USART_STATUS_PERR;
    1312:	3b31      	subs	r3, #49	; 0x31
    1314:	8363      	strh	r3, [r4, #26]
    1316:	e7e2      	b.n	12de <_usart_interrupt_handler+0xa6>
				else if (error_code & SERCOM_USART_STATUS_ISF) {
    1318:	06da      	lsls	r2, r3, #27
    131a:	d505      	bpl.n	1328 <_usart_interrupt_handler+0xf0>
					module->rx_status = STATUS_ERR_PROTOCOL;
    131c:	2242      	movs	r2, #66	; 0x42
    131e:	2332      	movs	r3, #50	; 0x32
    1320:	54ea      	strb	r2, [r5, r3]
					usart_hw->STATUS.reg = SERCOM_USART_STATUS_ISF;
    1322:	3b22      	subs	r3, #34	; 0x22
    1324:	8363      	strh	r3, [r4, #26]
    1326:	e7da      	b.n	12de <_usart_interrupt_handler+0xa6>
				else if (error_code & SERCOM_USART_STATUS_COLL) {
    1328:	2220      	movs	r2, #32
    132a:	421a      	tst	r2, r3
    132c:	d0d7      	beq.n	12de <_usart_interrupt_handler+0xa6>
					module->rx_status = STATUS_ERR_PACKET_COLLISION;
    132e:	3221      	adds	r2, #33	; 0x21
    1330:	2332      	movs	r3, #50	; 0x32
    1332:	54ea      	strb	r2, [r5, r3]
					usart_hw->STATUS.reg = SERCOM_USART_STATUS_COLL;
    1334:	3b12      	subs	r3, #18
    1336:	8363      	strh	r3, [r4, #26]
    1338:	e7d1      	b.n	12de <_usart_interrupt_handler+0xa6>

			} else {

				/* Read current packet from DATA register,
				 * increment buffer pointer and decrement buffer length */
				uint16_t received_data = (usart_hw->DATA.reg & SERCOM_USART_DATA_MASK);
    133a:	8d23      	ldrh	r3, [r4, #40]	; 0x28
    133c:	05db      	lsls	r3, r3, #23
    133e:	0ddb      	lsrs	r3, r3, #23

				/* Read value will be at least 8-bits long */
				*(module->rx_buffer_ptr) = received_data;
    1340:	b2da      	uxtb	r2, r3
    1342:	6a69      	ldr	r1, [r5, #36]	; 0x24
    1344:	700a      	strb	r2, [r1, #0]
				/* Increment 8-bit pointer */
				module->rx_buffer_ptr += 1;
    1346:	6a6a      	ldr	r2, [r5, #36]	; 0x24
    1348:	1c51      	adds	r1, r2, #1
    134a:	6269      	str	r1, [r5, #36]	; 0x24

				if (module->character_size == USART_CHARACTER_SIZE_9BIT) {
    134c:	7969      	ldrb	r1, [r5, #5]
    134e:	2901      	cmp	r1, #1
    1350:	d010      	beq.n	1374 <_usart_interrupt_handler+0x13c>
					/* Increment 8-bit pointer */
					module->rx_buffer_ptr += 1;
				}

				/* Check if the last character have been received */
				if(--(module->remaining_rx_buffer_length) == 0) {
    1352:	8dab      	ldrh	r3, [r5, #44]	; 0x2c
    1354:	3b01      	subs	r3, #1
    1356:	b29b      	uxth	r3, r3
    1358:	85ab      	strh	r3, [r5, #44]	; 0x2c
    135a:	2b00      	cmp	r3, #0
    135c:	d112      	bne.n	1384 <_usart_interrupt_handler+0x14c>
					/* Disable RX Complete Interrupt,
					 * and set STATUS_OK */
					usart_hw->INTENCLR.reg = SERCOM_USART_INTFLAG_RXC;
    135e:	3304      	adds	r3, #4
    1360:	7523      	strb	r3, [r4, #20]
					module->rx_status = STATUS_OK;
    1362:	2200      	movs	r2, #0
    1364:	332e      	adds	r3, #46	; 0x2e
    1366:	54ea      	strb	r2, [r5, r3]

					/* Run callback if registered and enabled */
					if (callback_status
    1368:	07bb      	lsls	r3, r7, #30
    136a:	d50b      	bpl.n	1384 <_usart_interrupt_handler+0x14c>
							& (1 << USART_CALLBACK_BUFFER_RECEIVED)) {
						(*(module->callback[USART_CALLBACK_BUFFER_RECEIVED]))(module);
    136c:	0028      	movs	r0, r5
    136e:	692b      	ldr	r3, [r5, #16]
    1370:	4798      	blx	r3
    1372:	e007      	b.n	1384 <_usart_interrupt_handler+0x14c>
					*(module->rx_buffer_ptr) = (received_data >> 8);
    1374:	0a1b      	lsrs	r3, r3, #8
    1376:	7053      	strb	r3, [r2, #1]
					module->rx_buffer_ptr += 1;
    1378:	6a6b      	ldr	r3, [r5, #36]	; 0x24
    137a:	3301      	adds	r3, #1
    137c:	626b      	str	r3, [r5, #36]	; 0x24
    137e:	e7e8      	b.n	1352 <_usart_interrupt_handler+0x11a>
					}
				}
			}
		} else {
			/* This should not happen. Disable Receive Complete interrupt. */
			usart_hw->INTENCLR.reg = SERCOM_USART_INTFLAG_RXC;
    1380:	2304      	movs	r3, #4
    1382:	7523      	strb	r3, [r4, #20]
		}
	}

#ifdef FEATURE_USART_HARDWARE_FLOW_CONTROL
	if (interrupt_status & SERCOM_USART_INTFLAG_CTSIC) {
    1384:	06f3      	lsls	r3, r6, #27
    1386:	d504      	bpl.n	1392 <_usart_interrupt_handler+0x15a>
		/* Disable interrupts */
		usart_hw->INTENCLR.reg = SERCOM_USART_INTENCLR_CTSIC;
    1388:	2310      	movs	r3, #16
    138a:	7523      	strb	r3, [r4, #20]
		/* Clear interrupt flag */
		usart_hw->INTFLAG.reg = SERCOM_USART_INTFLAG_CTSIC;
    138c:	7623      	strb	r3, [r4, #24]

		/* Run callback if registered and enabled */
		if (callback_status & (1 << USART_CALLBACK_CTS_INPUT_CHANGE)) {
    138e:	06fb      	lsls	r3, r7, #27
    1390:	d40e      	bmi.n	13b0 <_usart_interrupt_handler+0x178>
		}
	}
#endif

#ifdef FEATURE_USART_LIN_SLAVE
	if (interrupt_status & SERCOM_USART_INTFLAG_RXBRK) {
    1392:	06b3      	lsls	r3, r6, #26
    1394:	d504      	bpl.n	13a0 <_usart_interrupt_handler+0x168>
		/* Disable interrupts */
		usart_hw->INTENCLR.reg = SERCOM_USART_INTENCLR_RXBRK;
    1396:	2320      	movs	r3, #32
    1398:	7523      	strb	r3, [r4, #20]
		/* Clear interrupt flag */
		usart_hw->INTFLAG.reg = SERCOM_USART_INTFLAG_RXBRK;
    139a:	7623      	strb	r3, [r4, #24]

		/* Run callback if registered and enabled */
		if (callback_status & (1 << USART_CALLBACK_BREAK_RECEIVED)) {
    139c:	073b      	lsls	r3, r7, #28
    139e:	d40b      	bmi.n	13b8 <_usart_interrupt_handler+0x180>
		}
	}
#endif

#ifdef FEATURE_USART_START_FRAME_DECTION
	if (interrupt_status & SERCOM_USART_INTFLAG_RXS) {
    13a0:	0733      	lsls	r3, r6, #28
    13a2:	d504      	bpl.n	13ae <_usart_interrupt_handler+0x176>
		/* Disable interrupts */
		usart_hw->INTENCLR.reg = SERCOM_USART_INTENCLR_RXS;
    13a4:	2308      	movs	r3, #8
    13a6:	7523      	strb	r3, [r4, #20]
		/* Clear interrupt flag */
		usart_hw->INTFLAG.reg = SERCOM_USART_INTFLAG_RXS;
    13a8:	7623      	strb	r3, [r4, #24]

		/* Run callback if registered and enabled */
		if (callback_status & (1 << USART_CALLBACK_START_RECEIVED)) {
    13aa:	06bb      	lsls	r3, r7, #26
    13ac:	d408      	bmi.n	13c0 <_usart_interrupt_handler+0x188>
			(*(module->callback[USART_CALLBACK_START_RECEIVED]))(module);
		}
	}
#endif
}
    13ae:	bdf8      	pop	{r3, r4, r5, r6, r7, pc}
			(*(module->callback[USART_CALLBACK_CTS_INPUT_CHANGE]))(module);
    13b0:	0028      	movs	r0, r5
    13b2:	69eb      	ldr	r3, [r5, #28]
    13b4:	4798      	blx	r3
    13b6:	e7ec      	b.n	1392 <_usart_interrupt_handler+0x15a>
			(*(module->callback[USART_CALLBACK_BREAK_RECEIVED]))(module);
    13b8:	0028      	movs	r0, r5
    13ba:	69ab      	ldr	r3, [r5, #24]
    13bc:	4798      	blx	r3
    13be:	e7ef      	b.n	13a0 <_usart_interrupt_handler+0x168>
			(*(module->callback[USART_CALLBACK_START_RECEIVED]))(module);
    13c0:	6a2b      	ldr	r3, [r5, #32]
    13c2:	0028      	movs	r0, r5
    13c4:	4798      	blx	r3
}
    13c6:	e7f2      	b.n	13ae <_usart_interrupt_handler+0x176>
    13c8:	200002ac 	.word	0x200002ac

000013cc <system_clock_source_get_hz>:
 *
 * \returns Frequency of the given clock source, in Hz.
 */
uint32_t system_clock_source_get_hz(
		const enum system_clock_source clock_source)
{
    13cc:	b510      	push	{r4, lr}
	switch (clock_source) {
    13ce:	2808      	cmp	r0, #8
    13d0:	d803      	bhi.n	13da <system_clock_source_get_hz+0xe>
    13d2:	0080      	lsls	r0, r0, #2
    13d4:	4b1c      	ldr	r3, [pc, #112]	; (1448 <system_clock_source_get_hz+0x7c>)
    13d6:	581b      	ldr	r3, [r3, r0]
    13d8:	469f      	mov	pc, r3

		return _system_clock_inst.dpll.frequency;
#endif

	default:
		return 0;
    13da:	2000      	movs	r0, #0
    13dc:	e032      	b.n	1444 <system_clock_source_get_hz+0x78>
		return _system_clock_inst.xosc.frequency;
    13de:	4b1b      	ldr	r3, [pc, #108]	; (144c <system_clock_source_get_hz+0x80>)
    13e0:	6918      	ldr	r0, [r3, #16]
    13e2:	e02f      	b.n	1444 <system_clock_source_get_hz+0x78>
		return 8000000UL >> SYSCTRL->OSC8M.bit.PRESC;
    13e4:	4b1a      	ldr	r3, [pc, #104]	; (1450 <system_clock_source_get_hz+0x84>)
    13e6:	6a1b      	ldr	r3, [r3, #32]
    13e8:	059b      	lsls	r3, r3, #22
    13ea:	0f9b      	lsrs	r3, r3, #30
    13ec:	4819      	ldr	r0, [pc, #100]	; (1454 <system_clock_source_get_hz+0x88>)
    13ee:	40d8      	lsrs	r0, r3
    13f0:	e028      	b.n	1444 <system_clock_source_get_hz+0x78>
		return _system_clock_inst.xosc32k.frequency;
    13f2:	4b16      	ldr	r3, [pc, #88]	; (144c <system_clock_source_get_hz+0x80>)
    13f4:	6958      	ldr	r0, [r3, #20]
    13f6:	e025      	b.n	1444 <system_clock_source_get_hz+0x78>
		if (!(_system_clock_inst.dfll.control & SYSCTRL_DFLLCTRL_ENABLE))
    13f8:	4b14      	ldr	r3, [pc, #80]	; (144c <system_clock_source_get_hz+0x80>)
    13fa:	681b      	ldr	r3, [r3, #0]
			return 0;
    13fc:	2000      	movs	r0, #0
		if (!(_system_clock_inst.dfll.control & SYSCTRL_DFLLCTRL_ENABLE))
    13fe:	079b      	lsls	r3, r3, #30
    1400:	d520      	bpl.n	1444 <system_clock_source_get_hz+0x78>
	while (!(SYSCTRL->PCLKSR.reg & SYSCTRL_PCLKSR_DFLLRDY)) {
    1402:	4913      	ldr	r1, [pc, #76]	; (1450 <system_clock_source_get_hz+0x84>)
    1404:	2210      	movs	r2, #16
    1406:	68cb      	ldr	r3, [r1, #12]
    1408:	421a      	tst	r2, r3
    140a:	d0fc      	beq.n	1406 <system_clock_source_get_hz+0x3a>
		switch(_system_clock_inst.dfll.control &
    140c:	4b0f      	ldr	r3, [pc, #60]	; (144c <system_clock_source_get_hz+0x80>)
    140e:	681a      	ldr	r2, [r3, #0]
    1410:	2324      	movs	r3, #36	; 0x24
    1412:	4013      	ands	r3, r2
    1414:	2b04      	cmp	r3, #4
    1416:	d001      	beq.n	141c <system_clock_source_get_hz+0x50>
			return 48000000UL;
    1418:	480f      	ldr	r0, [pc, #60]	; (1458 <system_clock_source_get_hz+0x8c>)
    141a:	e013      	b.n	1444 <system_clock_source_get_hz+0x78>
			return system_gclk_chan_get_hz(SYSCTRL_GCLK_ID_DFLL48) *
    141c:	2000      	movs	r0, #0
    141e:	4b0f      	ldr	r3, [pc, #60]	; (145c <system_clock_source_get_hz+0x90>)
    1420:	4798      	blx	r3
					(_system_clock_inst.dfll.mul & 0xffff);
    1422:	4b0a      	ldr	r3, [pc, #40]	; (144c <system_clock_source_get_hz+0x80>)
    1424:	689b      	ldr	r3, [r3, #8]
    1426:	041b      	lsls	r3, r3, #16
    1428:	0c1b      	lsrs	r3, r3, #16
			return system_gclk_chan_get_hz(SYSCTRL_GCLK_ID_DFLL48) *
    142a:	4358      	muls	r0, r3
    142c:	e00a      	b.n	1444 <system_clock_source_get_hz+0x78>
		if (!(SYSCTRL->DPLLSTATUS.reg & SYSCTRL_DPLLSTATUS_ENABLE)) {
    142e:	2350      	movs	r3, #80	; 0x50
    1430:	4a07      	ldr	r2, [pc, #28]	; (1450 <system_clock_source_get_hz+0x84>)
    1432:	5cd3      	ldrb	r3, [r2, r3]
			return 0;
    1434:	2000      	movs	r0, #0
		if (!(SYSCTRL->DPLLSTATUS.reg & SYSCTRL_DPLLSTATUS_ENABLE)) {
    1436:	075b      	lsls	r3, r3, #29
    1438:	d504      	bpl.n	1444 <system_clock_source_get_hz+0x78>
		return _system_clock_inst.dpll.frequency;
    143a:	4b04      	ldr	r3, [pc, #16]	; (144c <system_clock_source_get_hz+0x80>)
    143c:	68d8      	ldr	r0, [r3, #12]
    143e:	e001      	b.n	1444 <system_clock_source_get_hz+0x78>
		return 32768UL;
    1440:	2080      	movs	r0, #128	; 0x80
    1442:	0200      	lsls	r0, r0, #8
	}
}
    1444:	bd10      	pop	{r4, pc}
    1446:	46c0      	nop			; (mov r8, r8)
    1448:	000049e0 	.word	0x000049e0
    144c:	2000027c 	.word	0x2000027c
    1450:	40000800 	.word	0x40000800
    1454:	007a1200 	.word	0x007a1200
    1458:	02dc6c00 	.word	0x02dc6c00
    145c:	00001a2d 	.word	0x00001a2d

00001460 <system_clock_source_osc8m_set_config>:
 *
 * \param[in] config  OSC8M configuration structure containing the new config
 */
void system_clock_source_osc8m_set_config(
		struct system_clock_source_osc8m_config *const config)
{
    1460:	b570      	push	{r4, r5, r6, lr}
	SYSCTRL_OSC8M_Type temp = SYSCTRL->OSC8M;
    1462:	490c      	ldr	r1, [pc, #48]	; (1494 <system_clock_source_osc8m_set_config+0x34>)
    1464:	6a0b      	ldr	r3, [r1, #32]

	/* Use temporary struct to reduce register access */
	temp.bit.PRESC    = config->prescaler;
    1466:	7804      	ldrb	r4, [r0, #0]
	temp.bit.ONDEMAND = config->on_demand;
    1468:	7885      	ldrb	r5, [r0, #2]
	temp.bit.RUNSTDBY = config->run_in_standby;

	SYSCTRL->OSC8M = temp;
    146a:	7840      	ldrb	r0, [r0, #1]
    146c:	2201      	movs	r2, #1
    146e:	4010      	ands	r0, r2
    1470:	0180      	lsls	r0, r0, #6
    1472:	2640      	movs	r6, #64	; 0x40
    1474:	43b3      	bics	r3, r6
    1476:	4303      	orrs	r3, r0
    1478:	402a      	ands	r2, r5
    147a:	01d2      	lsls	r2, r2, #7
    147c:	2080      	movs	r0, #128	; 0x80
    147e:	4383      	bics	r3, r0
    1480:	4313      	orrs	r3, r2
    1482:	2203      	movs	r2, #3
    1484:	4022      	ands	r2, r4
    1486:	0212      	lsls	r2, r2, #8
    1488:	4803      	ldr	r0, [pc, #12]	; (1498 <system_clock_source_osc8m_set_config+0x38>)
    148a:	4003      	ands	r3, r0
    148c:	4313      	orrs	r3, r2
    148e:	620b      	str	r3, [r1, #32]
}
    1490:	bd70      	pop	{r4, r5, r6, pc}
    1492:	46c0      	nop			; (mov r8, r8)
    1494:	40000800 	.word	0x40000800
    1498:	fffffcff 	.word	0xfffffcff

0000149c <system_clock_source_xosc32k_set_config>:
 *
 * \param[in] config  XOSC32K configuration structure containing the new config
 */
void system_clock_source_xosc32k_set_config(
		struct system_clock_source_xosc32k_config *const config)
{
    149c:	b5f0      	push	{r4, r5, r6, r7, lr}
    149e:	46de      	mov	lr, fp
    14a0:	4657      	mov	r7, sl
    14a2:	464e      	mov	r6, r9
    14a4:	4645      	mov	r5, r8
    14a6:	b5e0      	push	{r5, r6, r7, lr}
    14a8:	0001      	movs	r1, r0
	SYSCTRL_XOSC32K_Type temp = SYSCTRL->XOSC32K;
    14aa:	4b26      	ldr	r3, [pc, #152]	; (1544 <system_clock_source_xosc32k_set_config+0xa8>)
    14ac:	469b      	mov	fp, r3
    14ae:	8a9b      	ldrh	r3, [r3, #20]

	temp.bit.STARTUP = config->startup_time;
    14b0:	7845      	ldrb	r5, [r0, #1]

	if (config->external_clock == SYSTEM_CLOCK_EXTERNAL_CRYSTAL) {
    14b2:	7800      	ldrb	r0, [r0, #0]
    14b4:	4242      	negs	r2, r0
    14b6:	4142      	adcs	r2, r0
    14b8:	4691      	mov	r9, r2
		temp.bit.XTALEN = 1;
	} else {
		temp.bit.XTALEN = 0;
	}

	temp.bit.AAMPEN = config->auto_gain_control;
    14ba:	7888      	ldrb	r0, [r1, #2]
	temp.bit.EN1K = config->enable_1khz_output;
    14bc:	78ca      	ldrb	r2, [r1, #3]
    14be:	4694      	mov	ip, r2
	temp.bit.EN32K = config->enable_32khz_output;
    14c0:	790a      	ldrb	r2, [r1, #4]
    14c2:	4690      	mov	r8, r2

	temp.bit.ONDEMAND = config->on_demand;
    14c4:	7b4e      	ldrb	r6, [r1, #13]
	temp.bit.RUNSTDBY = config->run_in_standby;
    14c6:	7b0f      	ldrb	r7, [r1, #12]
	temp.bit.WRTLOCK  = config->write_once;
    14c8:	7b8c      	ldrb	r4, [r1, #14]

	/* Cache the new frequency in case the user needs to check the current
	 * operating frequency later */
	_system_clock_inst.xosc32k.frequency = config->frequency;
    14ca:	688a      	ldr	r2, [r1, #8]
    14cc:	491e      	ldr	r1, [pc, #120]	; (1548 <system_clock_source_xosc32k_set_config+0xac>)
    14ce:	614a      	str	r2, [r1, #20]

	SYSCTRL->XOSC32K = temp;
    14d0:	2101      	movs	r1, #1
    14d2:	464a      	mov	r2, r9
    14d4:	0092      	lsls	r2, r2, #2
    14d6:	4691      	mov	r9, r2
    14d8:	2204      	movs	r2, #4
    14da:	4393      	bics	r3, r2
    14dc:	464a      	mov	r2, r9
    14de:	4313      	orrs	r3, r2
    14e0:	4642      	mov	r2, r8
    14e2:	400a      	ands	r2, r1
    14e4:	00d2      	lsls	r2, r2, #3
    14e6:	4690      	mov	r8, r2
    14e8:	2208      	movs	r2, #8
    14ea:	4393      	bics	r3, r2
    14ec:	4642      	mov	r2, r8
    14ee:	4313      	orrs	r3, r2
    14f0:	4662      	mov	r2, ip
    14f2:	400a      	ands	r2, r1
    14f4:	0112      	lsls	r2, r2, #4
    14f6:	4694      	mov	ip, r2
    14f8:	2210      	movs	r2, #16
    14fa:	4393      	bics	r3, r2
    14fc:	4662      	mov	r2, ip
    14fe:	4313      	orrs	r3, r2
    1500:	4008      	ands	r0, r1
    1502:	0140      	lsls	r0, r0, #5
    1504:	2220      	movs	r2, #32
    1506:	4393      	bics	r3, r2
    1508:	4303      	orrs	r3, r0
    150a:	400f      	ands	r7, r1
    150c:	01bf      	lsls	r7, r7, #6
    150e:	2040      	movs	r0, #64	; 0x40
    1510:	4383      	bics	r3, r0
    1512:	433b      	orrs	r3, r7
    1514:	400e      	ands	r6, r1
    1516:	01f6      	lsls	r6, r6, #7
    1518:	3040      	adds	r0, #64	; 0x40
    151a:	4383      	bics	r3, r0
    151c:	4333      	orrs	r3, r6
    151e:	3879      	subs	r0, #121	; 0x79
    1520:	4005      	ands	r5, r0
    1522:	022d      	lsls	r5, r5, #8
    1524:	4809      	ldr	r0, [pc, #36]	; (154c <system_clock_source_xosc32k_set_config+0xb0>)
    1526:	4003      	ands	r3, r0
    1528:	432b      	orrs	r3, r5
    152a:	4021      	ands	r1, r4
    152c:	0309      	lsls	r1, r1, #12
    152e:	4808      	ldr	r0, [pc, #32]	; (1550 <system_clock_source_xosc32k_set_config+0xb4>)
    1530:	4003      	ands	r3, r0
    1532:	430b      	orrs	r3, r1
    1534:	465a      	mov	r2, fp
    1536:	8293      	strh	r3, [r2, #20]
}
    1538:	bc3c      	pop	{r2, r3, r4, r5}
    153a:	4690      	mov	r8, r2
    153c:	4699      	mov	r9, r3
    153e:	46a2      	mov	sl, r4
    1540:	46ab      	mov	fp, r5
    1542:	bdf0      	pop	{r4, r5, r6, r7, pc}
    1544:	40000800 	.word	0x40000800
    1548:	2000027c 	.word	0x2000027c
    154c:	fffff8ff 	.word	0xfffff8ff
    1550:	ffffefff 	.word	0xffffefff

00001554 <system_clock_source_dfll_set_config>:
 *
 * \param[in] config  DFLL configuration structure containing the new config
 */
void system_clock_source_dfll_set_config(
		struct system_clock_source_dfll_config *const config)
{
    1554:	b510      	push	{r4, lr}
	_system_clock_inst.dfll.val =
			SYSCTRL_DFLLVAL_COARSE(config->coarse_value) |
    1556:	7a03      	ldrb	r3, [r0, #8]
    1558:	069b      	lsls	r3, r3, #26
    155a:	0c1b      	lsrs	r3, r3, #16
			SYSCTRL_DFLLVAL_FINE(config->fine_value);
    155c:	8942      	ldrh	r2, [r0, #10]
    155e:	0592      	lsls	r2, r2, #22
    1560:	0d92      	lsrs	r2, r2, #22
			SYSCTRL_DFLLVAL_COARSE(config->coarse_value) |
    1562:	4313      	orrs	r3, r2
	_system_clock_inst.dfll.val =
    1564:	4918      	ldr	r1, [pc, #96]	; (15c8 <system_clock_source_dfll_set_config+0x74>)
    1566:	604b      	str	r3, [r1, #4]

	_system_clock_inst.dfll.control =
			(uint32_t)config->wakeup_lock     |
    1568:	7983      	ldrb	r3, [r0, #6]
    156a:	79c2      	ldrb	r2, [r0, #7]
    156c:	4313      	orrs	r3, r2
			(uint32_t)config->stable_tracking |
			(uint32_t)config->quick_lock      |
    156e:	8842      	ldrh	r2, [r0, #2]
    1570:	8884      	ldrh	r4, [r0, #4]
    1572:	4322      	orrs	r2, r4
    1574:	4313      	orrs	r3, r2
			(uint32_t)config->chill_cycle     |
			((uint32_t)config->on_demand << SYSCTRL_DFLLCTRL_ONDEMAND_Pos);
    1576:	7842      	ldrb	r2, [r0, #1]
    1578:	01d2      	lsls	r2, r2, #7
			(uint32_t)config->chill_cycle     |
    157a:	4313      	orrs	r3, r2
	_system_clock_inst.dfll.control =
    157c:	600b      	str	r3, [r1, #0]

	if (config->loop_mode == SYSTEM_CLOCK_DFLL_LOOP_MODE_CLOSED) {
    157e:	7803      	ldrb	r3, [r0, #0]
    1580:	2b04      	cmp	r3, #4
    1582:	d011      	beq.n	15a8 <system_clock_source_dfll_set_config+0x54>
				SYSCTRL_DFLLMUL_MUL(config->multiply_factor);

		/* Enable the closed loop mode */
		_system_clock_inst.dfll.control |= config->loop_mode;
	}
	if (config->loop_mode == SYSTEM_CLOCK_DFLL_LOOP_MODE_USB_RECOVERY) {
    1584:	2b20      	cmp	r3, #32
    1586:	d10e      	bne.n	15a6 <system_clock_source_dfll_set_config+0x52>

		_system_clock_inst.dfll.mul =
				SYSCTRL_DFLLMUL_CSTEP(config->coarse_max_step) |
    1588:	7b03      	ldrb	r3, [r0, #12]
    158a:	069b      	lsls	r3, r3, #26
				SYSCTRL_DFLLMUL_FSTEP(config->fine_max_step)   |
				SYSCTRL_DFLLMUL_MUL(config->multiply_factor);
    158c:	8a02      	ldrh	r2, [r0, #16]
				SYSCTRL_DFLLMUL_FSTEP(config->fine_max_step)   |
    158e:	4313      	orrs	r3, r2
    1590:	89c2      	ldrh	r2, [r0, #14]
    1592:	0412      	lsls	r2, r2, #16
    1594:	490d      	ldr	r1, [pc, #52]	; (15cc <system_clock_source_dfll_set_config+0x78>)
    1596:	400a      	ands	r2, r1
    1598:	4313      	orrs	r3, r2
		_system_clock_inst.dfll.mul =
    159a:	4a0b      	ldr	r2, [pc, #44]	; (15c8 <system_clock_source_dfll_set_config+0x74>)
    159c:	6093      	str	r3, [r2, #8]

		/* Enable the USB recovery mode */
		_system_clock_inst.dfll.control |= config->loop_mode |
    159e:	6811      	ldr	r1, [r2, #0]
    15a0:	4b0b      	ldr	r3, [pc, #44]	; (15d0 <system_clock_source_dfll_set_config+0x7c>)
    15a2:	430b      	orrs	r3, r1
    15a4:	6013      	str	r3, [r2, #0]
				SYSCTRL_DFLLCTRL_MODE | SYSCTRL_DFLLCTRL_BPLCKC;
	}
}
    15a6:	bd10      	pop	{r4, pc}
				SYSCTRL_DFLLMUL_CSTEP(config->coarse_max_step) |
    15a8:	7b03      	ldrb	r3, [r0, #12]
    15aa:	069b      	lsls	r3, r3, #26
				SYSCTRL_DFLLMUL_MUL(config->multiply_factor);
    15ac:	8a02      	ldrh	r2, [r0, #16]
				SYSCTRL_DFLLMUL_FSTEP(config->fine_max_step)   |
    15ae:	4313      	orrs	r3, r2
    15b0:	89c2      	ldrh	r2, [r0, #14]
    15b2:	0412      	lsls	r2, r2, #16
    15b4:	4905      	ldr	r1, [pc, #20]	; (15cc <system_clock_source_dfll_set_config+0x78>)
    15b6:	400a      	ands	r2, r1
    15b8:	4313      	orrs	r3, r2
		_system_clock_inst.dfll.mul =
    15ba:	4a03      	ldr	r2, [pc, #12]	; (15c8 <system_clock_source_dfll_set_config+0x74>)
    15bc:	6093      	str	r3, [r2, #8]
		_system_clock_inst.dfll.control |= config->loop_mode;
    15be:	6813      	ldr	r3, [r2, #0]
    15c0:	2104      	movs	r1, #4
    15c2:	430b      	orrs	r3, r1
    15c4:	6013      	str	r3, [r2, #0]
    15c6:	e7ee      	b.n	15a6 <system_clock_source_dfll_set_config+0x52>
    15c8:	2000027c 	.word	0x2000027c
    15cc:	03ff0000 	.word	0x03ff0000
    15d0:	00000424 	.word	0x00000424

000015d4 <system_clock_source_enable>:
 *                                 device
 */
enum status_code system_clock_source_enable(
		const enum system_clock_source clock_source)
{
	switch (clock_source) {
    15d4:	2808      	cmp	r0, #8
    15d6:	d803      	bhi.n	15e0 <system_clock_source_enable+0xc>
    15d8:	0080      	lsls	r0, r0, #2
    15da:	4b25      	ldr	r3, [pc, #148]	; (1670 <system_clock_source_enable+0x9c>)
    15dc:	581b      	ldr	r3, [r3, r0]
    15de:	469f      	mov	pc, r3
		/* Always enabled */
		return STATUS_OK;

	default:
		Assert(false);
		return STATUS_ERR_INVALID_ARG;
    15e0:	2017      	movs	r0, #23
    15e2:	e044      	b.n	166e <system_clock_source_enable+0x9a>
		SYSCTRL->OSC8M.reg |= SYSCTRL_OSC8M_ENABLE;
    15e4:	4a23      	ldr	r2, [pc, #140]	; (1674 <system_clock_source_enable+0xa0>)
    15e6:	6a13      	ldr	r3, [r2, #32]
    15e8:	2102      	movs	r1, #2
    15ea:	430b      	orrs	r3, r1
    15ec:	6213      	str	r3, [r2, #32]
		return STATUS_OK;
    15ee:	2000      	movs	r0, #0
    15f0:	e03d      	b.n	166e <system_clock_source_enable+0x9a>
		SYSCTRL->OSC32K.reg |= SYSCTRL_OSC32K_ENABLE;
    15f2:	4a20      	ldr	r2, [pc, #128]	; (1674 <system_clock_source_enable+0xa0>)
    15f4:	6993      	ldr	r3, [r2, #24]
    15f6:	2102      	movs	r1, #2
    15f8:	430b      	orrs	r3, r1
    15fa:	6193      	str	r3, [r2, #24]
	}

	return STATUS_OK;
    15fc:	2000      	movs	r0, #0
		break;
    15fe:	e036      	b.n	166e <system_clock_source_enable+0x9a>
		SYSCTRL->XOSC.reg |= SYSCTRL_XOSC_ENABLE;
    1600:	4a1c      	ldr	r2, [pc, #112]	; (1674 <system_clock_source_enable+0xa0>)
    1602:	8a13      	ldrh	r3, [r2, #16]
    1604:	2102      	movs	r1, #2
    1606:	430b      	orrs	r3, r1
    1608:	8213      	strh	r3, [r2, #16]
	return STATUS_OK;
    160a:	2000      	movs	r0, #0
		break;
    160c:	e02f      	b.n	166e <system_clock_source_enable+0x9a>
		SYSCTRL->XOSC32K.reg |= SYSCTRL_XOSC32K_ENABLE;
    160e:	4a19      	ldr	r2, [pc, #100]	; (1674 <system_clock_source_enable+0xa0>)
    1610:	8a93      	ldrh	r3, [r2, #20]
    1612:	2102      	movs	r1, #2
    1614:	430b      	orrs	r3, r1
    1616:	8293      	strh	r3, [r2, #20]
	return STATUS_OK;
    1618:	2000      	movs	r0, #0
		break;
    161a:	e028      	b.n	166e <system_clock_source_enable+0x9a>
		_system_clock_inst.dfll.control |= SYSCTRL_DFLLCTRL_ENABLE;
    161c:	4916      	ldr	r1, [pc, #88]	; (1678 <system_clock_source_enable+0xa4>)
    161e:	680b      	ldr	r3, [r1, #0]
    1620:	2202      	movs	r2, #2
    1622:	4313      	orrs	r3, r2
    1624:	600b      	str	r3, [r1, #0]
	SYSCTRL->DFLLCTRL.reg = SYSCTRL_DFLLCTRL_ENABLE;
    1626:	4b13      	ldr	r3, [pc, #76]	; (1674 <system_clock_source_enable+0xa0>)
    1628:	849a      	strh	r2, [r3, #36]	; 0x24
	while (!(SYSCTRL->PCLKSR.reg & SYSCTRL_PCLKSR_DFLLRDY)) {
    162a:	0019      	movs	r1, r3
    162c:	320e      	adds	r2, #14
    162e:	68cb      	ldr	r3, [r1, #12]
    1630:	421a      	tst	r2, r3
    1632:	d0fc      	beq.n	162e <system_clock_source_enable+0x5a>
	SYSCTRL->DFLLMUL.reg = _system_clock_inst.dfll.mul;
    1634:	4a10      	ldr	r2, [pc, #64]	; (1678 <system_clock_source_enable+0xa4>)
    1636:	6891      	ldr	r1, [r2, #8]
    1638:	4b0e      	ldr	r3, [pc, #56]	; (1674 <system_clock_source_enable+0xa0>)
    163a:	62d9      	str	r1, [r3, #44]	; 0x2c
	SYSCTRL->DFLLVAL.reg = _system_clock_inst.dfll.val;
    163c:	6852      	ldr	r2, [r2, #4]
    163e:	629a      	str	r2, [r3, #40]	; 0x28
	SYSCTRL->DFLLCTRL.reg = 0;
    1640:	2200      	movs	r2, #0
    1642:	849a      	strh	r2, [r3, #36]	; 0x24
	while (!(SYSCTRL->PCLKSR.reg & SYSCTRL_PCLKSR_DFLLRDY)) {
    1644:	0019      	movs	r1, r3
    1646:	3210      	adds	r2, #16
    1648:	68cb      	ldr	r3, [r1, #12]
    164a:	421a      	tst	r2, r3
    164c:	d0fc      	beq.n	1648 <system_clock_source_enable+0x74>
	SYSCTRL->DFLLCTRL.reg = _system_clock_inst.dfll.control;
    164e:	4b0a      	ldr	r3, [pc, #40]	; (1678 <system_clock_source_enable+0xa4>)
    1650:	681b      	ldr	r3, [r3, #0]
    1652:	b29b      	uxth	r3, r3
    1654:	4a07      	ldr	r2, [pc, #28]	; (1674 <system_clock_source_enable+0xa0>)
    1656:	8493      	strh	r3, [r2, #36]	; 0x24
	return STATUS_OK;
    1658:	2000      	movs	r0, #0
    165a:	e008      	b.n	166e <system_clock_source_enable+0x9a>
		SYSCTRL->DPLLCTRLA.reg |= SYSCTRL_DPLLCTRLA_ENABLE;
    165c:	4905      	ldr	r1, [pc, #20]	; (1674 <system_clock_source_enable+0xa0>)
    165e:	2244      	movs	r2, #68	; 0x44
    1660:	5c8b      	ldrb	r3, [r1, r2]
    1662:	2002      	movs	r0, #2
    1664:	4303      	orrs	r3, r0
    1666:	548b      	strb	r3, [r1, r2]
	return STATUS_OK;
    1668:	2000      	movs	r0, #0
		break;
    166a:	e000      	b.n	166e <system_clock_source_enable+0x9a>
		return STATUS_OK;
    166c:	2000      	movs	r0, #0
}
    166e:	4770      	bx	lr
    1670:	00004a04 	.word	0x00004a04
    1674:	40000800 	.word	0x40000800
    1678:	2000027c 	.word	0x2000027c

0000167c <system_clock_init>:
 * \note OSC8M is always enabled and if user selects other clocks for GCLK generators,
 * the OSC8M default enable can be disabled after system_clock_init. Make sure the
 * clock switch successfully before disabling OSC8M.
 */
void system_clock_init(void)
{
    167c:	b5f0      	push	{r4, r5, r6, r7, lr}
    167e:	b08f      	sub	sp, #60	; 0x3c
	/* Various bits in the INTFLAG register can be set to one at startup.
	   This will ensure that these bits are cleared */
	SYSCTRL->INTFLAG.reg = SYSCTRL_INTFLAG_BOD33RDY | SYSCTRL_INTFLAG_BOD33DET |
    1680:	22c2      	movs	r2, #194	; 0xc2
    1682:	00d2      	lsls	r2, r2, #3
    1684:	4b47      	ldr	r3, [pc, #284]	; (17a4 <system_clock_init+0x128>)
    1686:	609a      	str	r2, [r3, #8]
static inline void system_flash_set_waitstates(uint8_t wait_states)
{
	Assert(NVMCTRL_CTRLB_RWS((uint32_t)wait_states) ==
			((uint32_t)wait_states << NVMCTRL_CTRLB_RWS_Pos));

	NVMCTRL->CTRLB.bit.RWS = wait_states;
    1688:	4947      	ldr	r1, [pc, #284]	; (17a8 <system_clock_init+0x12c>)
    168a:	684b      	ldr	r3, [r1, #4]
    168c:	221e      	movs	r2, #30
    168e:	4393      	bics	r3, r2
    1690:	3a1c      	subs	r2, #28
    1692:	4313      	orrs	r3, r2
    1694:	604b      	str	r3, [r1, #4]
	gclk_conf.source_generator = GCLK_GENERATOR_2;
    1696:	ab01      	add	r3, sp, #4
    1698:	701a      	strb	r2, [r3, #0]
	for (gclk_id = 0; gclk_id < GCLK_NUM; gclk_id++) {
    169a:	2400      	movs	r4, #0
		system_gclk_chan_set_config(gclk_id, &gclk_conf);
    169c:	4d43      	ldr	r5, [pc, #268]	; (17ac <system_clock_init+0x130>)
    169e:	b2e0      	uxtb	r0, r4
    16a0:	a901      	add	r1, sp, #4
    16a2:	47a8      	blx	r5
	for (gclk_id = 0; gclk_id < GCLK_NUM; gclk_id++) {
    16a4:	3401      	adds	r4, #1
    16a6:	2c25      	cmp	r4, #37	; 0x25
    16a8:	d1f9      	bne.n	169e <system_clock_init+0x22>
	config->external_clock      = SYSTEM_CLOCK_EXTERNAL_CRYSTAL;
    16aa:	a80a      	add	r0, sp, #40	; 0x28
    16ac:	2300      	movs	r3, #0
    16ae:	7003      	strb	r3, [r0, #0]
	config->auto_gain_control   = false;
    16b0:	7083      	strb	r3, [r0, #2]
	config->frequency           = 32768UL;
    16b2:	2280      	movs	r2, #128	; 0x80
    16b4:	0212      	lsls	r2, r2, #8
    16b6:	6082      	str	r2, [r0, #8]
	config->enable_1khz_output  = false;
    16b8:	70c3      	strb	r3, [r0, #3]
	config->enable_32khz_output = true;
    16ba:	2201      	movs	r2, #1
    16bc:	7102      	strb	r2, [r0, #4]
	config->run_in_standby      = false;
    16be:	7303      	strb	r3, [r0, #12]
	config->write_once          = false;
    16c0:	7383      	strb	r3, [r0, #14]
	struct system_clock_source_xosc32k_config xosc32k_conf;
	system_clock_source_xosc32k_get_config_defaults(&xosc32k_conf);

	xosc32k_conf.frequency           = 32768UL;
	xosc32k_conf.external_clock      = CONF_CLOCK_XOSC32K_EXTERNAL_CRYSTAL;
	xosc32k_conf.startup_time        = CONF_CLOCK_XOSC32K_STARTUP_TIME;
    16c2:	3205      	adds	r2, #5
    16c4:	7042      	strb	r2, [r0, #1]
	xosc32k_conf.auto_gain_control   = CONF_CLOCK_XOSC32K_AUTO_AMPLITUDE_CONTROL;
	xosc32k_conf.enable_1khz_output  = CONF_CLOCK_XOSC32K_ENABLE_1KHZ_OUPUT;
	xosc32k_conf.enable_32khz_output = CONF_CLOCK_XOSC32K_ENABLE_32KHZ_OUTPUT;
	xosc32k_conf.on_demand           = false;
    16c6:	7343      	strb	r3, [r0, #13]
	xosc32k_conf.run_in_standby      = CONF_CLOCK_XOSC32K_RUN_IN_STANDBY;

	system_clock_source_xosc32k_set_config(&xosc32k_conf);
    16c8:	4b39      	ldr	r3, [pc, #228]	; (17b0 <system_clock_init+0x134>)
    16ca:	4798      	blx	r3
	system_clock_source_enable(SYSTEM_CLOCK_SOURCE_XOSC32K);
    16cc:	2005      	movs	r0, #5
    16ce:	4b39      	ldr	r3, [pc, #228]	; (17b4 <system_clock_init+0x138>)
    16d0:	4798      	blx	r3
	return ((SYSCTRL->PCLKSR.reg & mask) == mask);
    16d2:	4934      	ldr	r1, [pc, #208]	; (17a4 <system_clock_init+0x128>)
    16d4:	2202      	movs	r2, #2
    16d6:	68cb      	ldr	r3, [r1, #12]
	while(!system_clock_source_is_ready(SYSTEM_CLOCK_SOURCE_XOSC32K));
    16d8:	421a      	tst	r2, r3
    16da:	d0fc      	beq.n	16d6 <system_clock_init+0x5a>
	if (CONF_CLOCK_XOSC32K_ON_DEMAND) {
		SYSCTRL->XOSC32K.bit.ONDEMAND = 1;
    16dc:	4a31      	ldr	r2, [pc, #196]	; (17a4 <system_clock_init+0x128>)
    16de:	8a93      	ldrh	r3, [r2, #20]
    16e0:	2180      	movs	r1, #128	; 0x80
    16e2:	430b      	orrs	r3, r1
    16e4:	8293      	strh	r3, [r2, #20]
	config->quick_lock      = SYSTEM_CLOCK_DFLL_QUICK_LOCK_ENABLE;
    16e6:	ab05      	add	r3, sp, #20
    16e8:	2100      	movs	r1, #0
    16ea:	2200      	movs	r2, #0
    16ec:	8059      	strh	r1, [r3, #2]
	config->chill_cycle     = SYSTEM_CLOCK_DFLL_CHILL_CYCLE_ENABLE;
    16ee:	8099      	strh	r1, [r3, #4]
	config->wakeup_lock     = SYSTEM_CLOCK_DFLL_WAKEUP_LOCK_KEEP;
    16f0:	719a      	strb	r2, [r3, #6]
	config->stable_tracking = SYSTEM_CLOCK_DFLL_STABLE_TRACKING_TRACK_AFTER_LOCK;
    16f2:	71da      	strb	r2, [r3, #7]
	config->fine_value      = 0xff / 4; /* Midpoint */
    16f4:	313f      	adds	r1, #63	; 0x3f
    16f6:	8159      	strh	r1, [r3, #10]
	/* DFLL Config (Open and Closed Loop) */
#if CONF_CLOCK_DFLL_ENABLE == true
	struct system_clock_source_dfll_config dfll_conf;
	system_clock_source_dfll_get_config_defaults(&dfll_conf);

	dfll_conf.loop_mode      = CONF_CLOCK_DFLL_LOOP_MODE;
    16f8:	393b      	subs	r1, #59	; 0x3b
    16fa:	7019      	strb	r1, [r3, #0]
	dfll_conf.on_demand      = false;
    16fc:	705a      	strb	r2, [r3, #1]
	/* Using DFLL48M COARSE CAL value from NVM Software Calibration Area Mapping
	   in DFLL.COARSE helps to output a frequency close to 48 MHz.*/
#define NVM_DFLL_COARSE_POS    58 /* DFLL48M Coarse calibration value bit position.*/
#define NVM_DFLL_COARSE_SIZE   6  /* DFLL48M Coarse calibration value bit size.*/

	uint32_t coarse =( *((uint32_t *)(NVMCTRL_OTP4)
    16fe:	4b2e      	ldr	r3, [pc, #184]	; (17b8 <system_clock_init+0x13c>)
    1700:	681b      	ldr	r3, [r3, #0]
    1702:	0e9b      	lsrs	r3, r3, #26
			+ (NVM_DFLL_COARSE_POS / 32))
		>> (NVM_DFLL_COARSE_POS % 32))
		& ((1 << NVM_DFLL_COARSE_SIZE) - 1);
	/* In some revision chip, the coarse calibration value is not correct. */
	if (coarse == 0x3f) {
    1704:	2b3f      	cmp	r3, #63	; 0x3f
    1706:	d04b      	beq.n	17a0 <system_clock_init+0x124>
		coarse = 0x1f;
	}
	dfll_conf.coarse_value = coarse;
    1708:	a805      	add	r0, sp, #20
    170a:	7203      	strb	r3, [r0, #8]
#  else
	dfll_conf.chill_cycle = SYSTEM_CLOCK_DFLL_CHILL_CYCLE_DISABLE;
#  endif

	if (CONF_CLOCK_DFLL_LOOP_MODE == SYSTEM_CLOCK_DFLL_LOOP_MODE_CLOSED) {
		dfll_conf.multiply_factor = CONF_CLOCK_DFLL_MULTIPLY_FACTOR;
    170c:	23b7      	movs	r3, #183	; 0xb7
    170e:	00db      	lsls	r3, r3, #3
    1710:	8203      	strh	r3, [r0, #16]
	}

	dfll_conf.coarse_max_step = CONF_CLOCK_DFLL_MAX_COARSE_STEP_SIZE;
    1712:	2307      	movs	r3, #7
    1714:	7303      	strb	r3, [r0, #12]
	dfll_conf.fine_max_step   = CONF_CLOCK_DFLL_MAX_FINE_STEP_SIZE;
    1716:	3338      	adds	r3, #56	; 0x38
    1718:	81c3      	strh	r3, [r0, #14]
		dfll_conf.chill_cycle = SYSTEM_CLOCK_DFLL_CHILL_CYCLE_DISABLE;

		dfll_conf.multiply_factor = 48000;
	}

	system_clock_source_dfll_set_config(&dfll_conf);
    171a:	4b28      	ldr	r3, [pc, #160]	; (17bc <system_clock_init+0x140>)
    171c:	4798      	blx	r3
	config->run_in_standby  = false;
    171e:	a804      	add	r0, sp, #16
    1720:	2500      	movs	r5, #0
    1722:	7045      	strb	r5, [r0, #1]
	config->on_demand       = true;
    1724:	2601      	movs	r6, #1
    1726:	7086      	strb	r6, [r0, #2]

	/* OSC8M */
	struct system_clock_source_osc8m_config osc8m_conf;
	system_clock_source_osc8m_get_config_defaults(&osc8m_conf);

	osc8m_conf.prescaler       = CONF_CLOCK_OSC8M_PRESCALER;
    1728:	7005      	strb	r5, [r0, #0]
	osc8m_conf.on_demand       = CONF_CLOCK_OSC8M_ON_DEMAND;
	osc8m_conf.run_in_standby  = CONF_CLOCK_OSC8M_RUN_IN_STANDBY;

	system_clock_source_osc8m_set_config(&osc8m_conf);
    172a:	4b25      	ldr	r3, [pc, #148]	; (17c0 <system_clock_init+0x144>)
    172c:	4798      	blx	r3
	system_clock_source_enable(SYSTEM_CLOCK_SOURCE_OSC8M);
    172e:	2006      	movs	r0, #6
    1730:	4f20      	ldr	r7, [pc, #128]	; (17b4 <system_clock_init+0x138>)
    1732:	47b8      	blx	r7


	/* GCLK */
#if CONF_CLOCK_CONFIGURE_GCLK == true
	system_gclk_init();
    1734:	4b23      	ldr	r3, [pc, #140]	; (17c4 <system_clock_init+0x148>)
    1736:	4798      	blx	r3
{
	/* Sanity check arguments */
	Assert(config);

	/* Default configuration values */
	config->division_factor    = 1;
    1738:	ac01      	add	r4, sp, #4
    173a:	9602      	str	r6, [sp, #8]
	config->high_when_disabled = false;
    173c:	7065      	strb	r5, [r4, #1]
#elif (SAMC20) || (SAMC21)
	config->source_clock       = GCLK_SOURCE_OSC48M;
#else
	config->source_clock       = GCLK_SOURCE_OSC8M;
#endif
	config->run_in_standby     = false;
    173e:	7225      	strb	r5, [r4, #8]
	config->output_enable      = false;
    1740:	7265      	strb	r5, [r4, #9]

	/* Configure all GCLK generators except for the main generator, which
	 * is configured later after all other clock systems are set up */
	MREPEAT(GCLK_GEN_NUM, _CONF_CLOCK_GCLK_CONFIG_NONMAIN, ~);
    1742:	2305      	movs	r3, #5
    1744:	7023      	strb	r3, [r4, #0]
    1746:	0021      	movs	r1, r4
    1748:	2001      	movs	r0, #1
    174a:	4b1f      	ldr	r3, [pc, #124]	; (17c8 <system_clock_init+0x14c>)
    174c:	4798      	blx	r3
    174e:	2001      	movs	r0, #1
    1750:	4b1e      	ldr	r3, [pc, #120]	; (17cc <system_clock_init+0x150>)
    1752:	4798      	blx	r3
	/* Enable DFLL reference clock if in closed loop mode */
	if (CONF_CLOCK_DFLL_LOOP_MODE == SYSTEM_CLOCK_DFLL_LOOP_MODE_CLOSED) {
		struct system_gclk_chan_config dfll_gclk_chan_conf;

		system_gclk_chan_get_config_defaults(&dfll_gclk_chan_conf);
		dfll_gclk_chan_conf.source_generator = CONF_CLOCK_DFLL_SOURCE_GCLK_GENERATOR;
    1754:	7026      	strb	r6, [r4, #0]
		system_gclk_chan_set_config(SYSCTRL_GCLK_ID_DFLL48, &dfll_gclk_chan_conf);
    1756:	0021      	movs	r1, r4
    1758:	2000      	movs	r0, #0
    175a:	4b14      	ldr	r3, [pc, #80]	; (17ac <system_clock_init+0x130>)
    175c:	4798      	blx	r3
		system_gclk_chan_enable(SYSCTRL_GCLK_ID_DFLL48);
    175e:	2000      	movs	r0, #0
    1760:	4b1b      	ldr	r3, [pc, #108]	; (17d0 <system_clock_init+0x154>)
    1762:	4798      	blx	r3
#endif


	/* DFLL Enable (Open and Closed Loop) */
#if CONF_CLOCK_DFLL_ENABLE == true
	system_clock_source_enable(SYSTEM_CLOCK_SOURCE_DFLL);
    1764:	2007      	movs	r0, #7
    1766:	47b8      	blx	r7
	return ((SYSCTRL->PCLKSR.reg & mask) == mask);
    1768:	490e      	ldr	r1, [pc, #56]	; (17a4 <system_clock_init+0x128>)
    176a:	22d0      	movs	r2, #208	; 0xd0
    176c:	68cb      	ldr	r3, [r1, #12]
    176e:	4013      	ands	r3, r2
	while(!system_clock_source_is_ready(SYSTEM_CLOCK_SOURCE_DFLL));
    1770:	2bd0      	cmp	r3, #208	; 0xd0
    1772:	d1fb      	bne.n	176c <system_clock_init+0xf0>
	PM->CPUSEL.reg = (uint32_t)divider;
    1774:	4a17      	ldr	r2, [pc, #92]	; (17d4 <system_clock_init+0x158>)
    1776:	2300      	movs	r3, #0
    1778:	7213      	strb	r3, [r2, #8]
			PM->APBASEL.reg = (uint32_t)divider;
    177a:	7253      	strb	r3, [r2, #9]
			PM->APBBSEL.reg = (uint32_t)divider;
    177c:	7293      	strb	r3, [r2, #10]
			PM->APBCSEL.reg = (uint32_t)divider;
    177e:	72d3      	strb	r3, [r2, #11]
	config->division_factor    = 1;
    1780:	a901      	add	r1, sp, #4
    1782:	2201      	movs	r2, #1
    1784:	604a      	str	r2, [r1, #4]
	config->high_when_disabled = false;
    1786:	704b      	strb	r3, [r1, #1]
	config->run_in_standby     = false;
    1788:	720b      	strb	r3, [r1, #8]
	config->output_enable      = false;
    178a:	724b      	strb	r3, [r1, #9]
	system_apb_clock_set_divider(SYSTEM_CLOCK_APB_APBC, CONF_CLOCK_APBC_DIVIDER);

	/* GCLK 0 */
#if CONF_CLOCK_CONFIGURE_GCLK == true
	/* Configure the main GCLK last as it might depend on other generators */
	_CONF_CLOCK_GCLK_CONFIG(0, ~);
    178c:	3307      	adds	r3, #7
    178e:	700b      	strb	r3, [r1, #0]
    1790:	2000      	movs	r0, #0
    1792:	4b0d      	ldr	r3, [pc, #52]	; (17c8 <system_clock_init+0x14c>)
    1794:	4798      	blx	r3
    1796:	2000      	movs	r0, #0
    1798:	4b0c      	ldr	r3, [pc, #48]	; (17cc <system_clock_init+0x150>)
    179a:	4798      	blx	r3
#endif
}
    179c:	b00f      	add	sp, #60	; 0x3c
    179e:	bdf0      	pop	{r4, r5, r6, r7, pc}
		coarse = 0x1f;
    17a0:	3b20      	subs	r3, #32
    17a2:	e7b1      	b.n	1708 <system_clock_init+0x8c>
    17a4:	40000800 	.word	0x40000800
    17a8:	41004000 	.word	0x41004000
    17ac:	00001a11 	.word	0x00001a11
    17b0:	0000149d 	.word	0x0000149d
    17b4:	000015d5 	.word	0x000015d5
    17b8:	00806024 	.word	0x00806024
    17bc:	00001555 	.word	0x00001555
    17c0:	00001461 	.word	0x00001461
    17c4:	000017d9 	.word	0x000017d9
    17c8:	000017fd 	.word	0x000017fd
    17cc:	000018b5 	.word	0x000018b5
    17d0:	00001985 	.word	0x00001985
    17d4:	40000400 	.word	0x40000400

000017d8 <system_gclk_init>:
			PM->APBAMASK.reg |= mask;
    17d8:	4a06      	ldr	r2, [pc, #24]	; (17f4 <system_gclk_init+0x1c>)
    17da:	6993      	ldr	r3, [r2, #24]
    17dc:	2108      	movs	r1, #8
    17de:	430b      	orrs	r3, r1
    17e0:	6193      	str	r3, [r2, #24]
{
	/* Turn on the digital interface clock */
	system_apb_clock_set_mask(SYSTEM_CLOCK_APB_APBA, PM_APBAMASK_GCLK);

	/* Software reset the module to ensure it is re-initialized correctly */
	GCLK->CTRL.reg = GCLK_CTRL_SWRST;
    17e2:	2201      	movs	r2, #1
    17e4:	4b04      	ldr	r3, [pc, #16]	; (17f8 <system_gclk_init+0x20>)
    17e6:	701a      	strb	r2, [r3, #0]
	while (GCLK->CTRL.reg & GCLK_CTRL_SWRST) {
    17e8:	0019      	movs	r1, r3
    17ea:	780b      	ldrb	r3, [r1, #0]
    17ec:	4213      	tst	r3, r2
    17ee:	d1fc      	bne.n	17ea <system_gclk_init+0x12>
		/* Wait for reset to complete */
	}
}
    17f0:	4770      	bx	lr
    17f2:	46c0      	nop			; (mov r8, r8)
    17f4:	40000400 	.word	0x40000400
    17f8:	40000c00 	.word	0x40000c00

000017fc <system_gclk_gen_set_config>:
 * \param[in] config     Configuration settings for the generator
 */
void system_gclk_gen_set_config(
		const uint8_t generator,
		struct system_gclk_gen_config *const config)
{
    17fc:	b570      	push	{r4, r5, r6, lr}
    17fe:	0006      	movs	r6, r0
	/* Sanity check arguments */
	Assert(config);

	/* Cache new register configurations to minimize sync requirements. */
	uint32_t new_genctrl_config = (generator << GCLK_GENCTRL_ID_Pos);
    1800:	0004      	movs	r4, r0
	uint32_t new_gendiv_config  = (generator << GCLK_GENDIV_ID_Pos);

	/* Select the requested source clock for the generator */
	new_genctrl_config |= config->source_clock << GCLK_GENCTRL_SRC_Pos;
    1802:	780d      	ldrb	r5, [r1, #0]
    1804:	022d      	lsls	r5, r5, #8
    1806:	4305      	orrs	r5, r0

	/* Configure the clock to be either high or low when disabled */
	if (config->high_when_disabled) {
    1808:	784b      	ldrb	r3, [r1, #1]
    180a:	2b00      	cmp	r3, #0
    180c:	d002      	beq.n	1814 <system_gclk_gen_set_config+0x18>
		new_genctrl_config |= GCLK_GENCTRL_OOV;
    180e:	2380      	movs	r3, #128	; 0x80
    1810:	02db      	lsls	r3, r3, #11
    1812:	431d      	orrs	r5, r3
	}

	/* Configure if the clock output to I/O pin should be enabled. */
	if (config->output_enable) {
    1814:	7a4b      	ldrb	r3, [r1, #9]
    1816:	2b00      	cmp	r3, #0
    1818:	d002      	beq.n	1820 <system_gclk_gen_set_config+0x24>
		new_genctrl_config |= GCLK_GENCTRL_OE;
    181a:	2380      	movs	r3, #128	; 0x80
    181c:	031b      	lsls	r3, r3, #12
    181e:	431d      	orrs	r5, r3
	}

	/* Set division factor */
	if (config->division_factor > 1) {
    1820:	6848      	ldr	r0, [r1, #4]
    1822:	2801      	cmp	r0, #1
    1824:	d910      	bls.n	1848 <system_gclk_gen_set_config+0x4c>
		/* Check if division is a power of two */
		if (((config->division_factor & (config->division_factor - 1)) == 0)) {
    1826:	1e43      	subs	r3, r0, #1
    1828:	4218      	tst	r0, r3
    182a:	d134      	bne.n	1896 <system_gclk_gen_set_config+0x9a>
			 * register */

			uint32_t div2_count = 0;

			uint32_t mask;
			for (mask = (1UL << 1); mask < config->division_factor;
    182c:	2802      	cmp	r0, #2
    182e:	d930      	bls.n	1892 <system_gclk_gen_set_config+0x96>
    1830:	2302      	movs	r3, #2
    1832:	2200      	movs	r2, #0
						mask <<= 1) {
				div2_count++;
    1834:	3201      	adds	r2, #1
						mask <<= 1) {
    1836:	005b      	lsls	r3, r3, #1
			for (mask = (1UL << 1); mask < config->division_factor;
    1838:	4298      	cmp	r0, r3
    183a:	d8fb      	bhi.n	1834 <system_gclk_gen_set_config+0x38>
			}

			/* Set binary divider power of 2 division factor */
			new_gendiv_config  |= div2_count << GCLK_GENDIV_DIV_Pos;
    183c:	0212      	lsls	r2, r2, #8
    183e:	4332      	orrs	r2, r6
    1840:	0014      	movs	r4, r2
			new_genctrl_config |= GCLK_GENCTRL_DIVSEL;
    1842:	2380      	movs	r3, #128	; 0x80
    1844:	035b      	lsls	r3, r3, #13
    1846:	431d      	orrs	r5, r3
		}

	}

	/* Enable or disable the clock in standby mode */
	if (config->run_in_standby) {
    1848:	7a0b      	ldrb	r3, [r1, #8]
    184a:	2b00      	cmp	r3, #0
    184c:	d002      	beq.n	1854 <system_gclk_gen_set_config+0x58>
		new_genctrl_config |= GCLK_GENCTRL_RUNSTDBY;
    184e:	2380      	movs	r3, #128	; 0x80
    1850:	039b      	lsls	r3, r3, #14
    1852:	431d      	orrs	r5, r3
	if (GCLK->STATUS.reg & GCLK_STATUS_SYNCBUSY){
    1854:	4a13      	ldr	r2, [pc, #76]	; (18a4 <system_gclk_gen_set_config+0xa8>)
    1856:	7853      	ldrb	r3, [r2, #1]
	}

	while (system_gclk_is_syncing()) {
    1858:	b25b      	sxtb	r3, r3
    185a:	2b00      	cmp	r3, #0
    185c:	dbfb      	blt.n	1856 <system_gclk_gen_set_config+0x5a>
 * are only re-enabled upon leaving the outermost nested critical section.
 *
 */
static inline void system_interrupt_enter_critical_section(void)
{
	cpu_irq_enter_critical();
    185e:	4b12      	ldr	r3, [pc, #72]	; (18a8 <system_gclk_gen_set_config+0xac>)
    1860:	4798      	blx	r3
	};

	system_interrupt_enter_critical_section();

	/* Select the correct generator */
	*((uint8_t*)&GCLK->GENDIV.reg) = generator;
    1862:	4b12      	ldr	r3, [pc, #72]	; (18ac <system_gclk_gen_set_config+0xb0>)
    1864:	701e      	strb	r6, [r3, #0]
	if (GCLK->STATUS.reg & GCLK_STATUS_SYNCBUSY){
    1866:	4a0f      	ldr	r2, [pc, #60]	; (18a4 <system_gclk_gen_set_config+0xa8>)
    1868:	7853      	ldrb	r3, [r2, #1]

	/* Write the new generator configuration */
	while (system_gclk_is_syncing()) {
    186a:	b25b      	sxtb	r3, r3
    186c:	2b00      	cmp	r3, #0
    186e:	dbfb      	blt.n	1868 <system_gclk_gen_set_config+0x6c>
		/* Wait for synchronization */
	};
	GCLK->GENDIV.reg  = new_gendiv_config;
    1870:	4b0c      	ldr	r3, [pc, #48]	; (18a4 <system_gclk_gen_set_config+0xa8>)
    1872:	609c      	str	r4, [r3, #8]
	if (GCLK->STATUS.reg & GCLK_STATUS_SYNCBUSY){
    1874:	001a      	movs	r2, r3
    1876:	7853      	ldrb	r3, [r2, #1]

	while (system_gclk_is_syncing()) {
    1878:	b25b      	sxtb	r3, r3
    187a:	2b00      	cmp	r3, #0
    187c:	dbfb      	blt.n	1876 <system_gclk_gen_set_config+0x7a>
		/* Wait for synchronization */
	};
	GCLK->GENCTRL.reg = new_genctrl_config | (GCLK->GENCTRL.reg & GCLK_GENCTRL_GENEN);
    187e:	4a09      	ldr	r2, [pc, #36]	; (18a4 <system_gclk_gen_set_config+0xa8>)
    1880:	6853      	ldr	r3, [r2, #4]
    1882:	2180      	movs	r1, #128	; 0x80
    1884:	0249      	lsls	r1, r1, #9
    1886:	400b      	ands	r3, r1
    1888:	431d      	orrs	r5, r3
    188a:	6055      	str	r5, [r2, #4]
 * are only re-enabled upon leaving the outermost nested critical section.
 *
 */
static inline void system_interrupt_leave_critical_section(void)
{
	cpu_irq_leave_critical();
    188c:	4b08      	ldr	r3, [pc, #32]	; (18b0 <system_gclk_gen_set_config+0xb4>)
    188e:	4798      	blx	r3

	system_interrupt_leave_critical_section();
}
    1890:	bd70      	pop	{r4, r5, r6, pc}
			for (mask = (1UL << 1); mask < config->division_factor;
    1892:	2200      	movs	r2, #0
    1894:	e7d2      	b.n	183c <system_gclk_gen_set_config+0x40>
					(config->division_factor) << GCLK_GENDIV_DIV_Pos;
    1896:	0204      	lsls	r4, r0, #8
			new_gendiv_config  |=
    1898:	4334      	orrs	r4, r6
			new_genctrl_config |= GCLK_GENCTRL_IDC;
    189a:	2380      	movs	r3, #128	; 0x80
    189c:	029b      	lsls	r3, r3, #10
    189e:	431d      	orrs	r5, r3
    18a0:	e7d2      	b.n	1848 <system_gclk_gen_set_config+0x4c>
    18a2:	46c0      	nop			; (mov r8, r8)
    18a4:	40000c00 	.word	0x40000c00
    18a8:	0000042d 	.word	0x0000042d
    18ac:	40000c08 	.word	0x40000c08
    18b0:	0000046d 	.word	0x0000046d

000018b4 <system_gclk_gen_enable>:
 *
 * \param[in] generator  Generic Clock Generator index to enable
 */
void system_gclk_gen_enable(
		const uint8_t generator)
{
    18b4:	b510      	push	{r4, lr}
    18b6:	0004      	movs	r4, r0
	if (GCLK->STATUS.reg & GCLK_STATUS_SYNCBUSY){
    18b8:	4a0b      	ldr	r2, [pc, #44]	; (18e8 <system_gclk_gen_enable+0x34>)
    18ba:	7853      	ldrb	r3, [r2, #1]
	while (system_gclk_is_syncing()) {
    18bc:	b25b      	sxtb	r3, r3
    18be:	2b00      	cmp	r3, #0
    18c0:	dbfb      	blt.n	18ba <system_gclk_gen_enable+0x6>
	cpu_irq_enter_critical();
    18c2:	4b0a      	ldr	r3, [pc, #40]	; (18ec <system_gclk_gen_enable+0x38>)
    18c4:	4798      	blx	r3
	};

	system_interrupt_enter_critical_section();

	/* Select the requested generator */
	*((uint8_t*)&GCLK->GENCTRL.reg) = generator;
    18c6:	4b0a      	ldr	r3, [pc, #40]	; (18f0 <system_gclk_gen_enable+0x3c>)
    18c8:	701c      	strb	r4, [r3, #0]
	if (GCLK->STATUS.reg & GCLK_STATUS_SYNCBUSY){
    18ca:	4a07      	ldr	r2, [pc, #28]	; (18e8 <system_gclk_gen_enable+0x34>)
    18cc:	7853      	ldrb	r3, [r2, #1]
	while (system_gclk_is_syncing()) {
    18ce:	b25b      	sxtb	r3, r3
    18d0:	2b00      	cmp	r3, #0
    18d2:	dbfb      	blt.n	18cc <system_gclk_gen_enable+0x18>
		/* Wait for synchronization */
	};

	/* Enable generator */
	GCLK->GENCTRL.reg |= GCLK_GENCTRL_GENEN;
    18d4:	4a04      	ldr	r2, [pc, #16]	; (18e8 <system_gclk_gen_enable+0x34>)
    18d6:	6851      	ldr	r1, [r2, #4]
    18d8:	2380      	movs	r3, #128	; 0x80
    18da:	025b      	lsls	r3, r3, #9
    18dc:	430b      	orrs	r3, r1
    18de:	6053      	str	r3, [r2, #4]
	cpu_irq_leave_critical();
    18e0:	4b04      	ldr	r3, [pc, #16]	; (18f4 <system_gclk_gen_enable+0x40>)
    18e2:	4798      	blx	r3

	system_interrupt_leave_critical_section();
}
    18e4:	bd10      	pop	{r4, pc}
    18e6:	46c0      	nop			; (mov r8, r8)
    18e8:	40000c00 	.word	0x40000c00
    18ec:	0000042d 	.word	0x0000042d
    18f0:	40000c04 	.word	0x40000c04
    18f4:	0000046d 	.word	0x0000046d

000018f8 <system_gclk_gen_get_hz>:
 *
 * \return The frequency of the generic clock generator, in Hz.
 */
uint32_t system_gclk_gen_get_hz(
		const uint8_t generator)
{
    18f8:	b570      	push	{r4, r5, r6, lr}
    18fa:	0004      	movs	r4, r0
	if (GCLK->STATUS.reg & GCLK_STATUS_SYNCBUSY){
    18fc:	4a1a      	ldr	r2, [pc, #104]	; (1968 <system_gclk_gen_get_hz+0x70>)
    18fe:	7853      	ldrb	r3, [r2, #1]
	while (system_gclk_is_syncing()) {
    1900:	b25b      	sxtb	r3, r3
    1902:	2b00      	cmp	r3, #0
    1904:	dbfb      	blt.n	18fe <system_gclk_gen_get_hz+0x6>
	cpu_irq_enter_critical();
    1906:	4b19      	ldr	r3, [pc, #100]	; (196c <system_gclk_gen_get_hz+0x74>)
    1908:	4798      	blx	r3
	};

	system_interrupt_enter_critical_section();

	/* Select the appropriate generator */
	*((uint8_t*)&GCLK->GENCTRL.reg) = generator;
    190a:	4b19      	ldr	r3, [pc, #100]	; (1970 <system_gclk_gen_get_hz+0x78>)
    190c:	701c      	strb	r4, [r3, #0]
	if (GCLK->STATUS.reg & GCLK_STATUS_SYNCBUSY){
    190e:	4a16      	ldr	r2, [pc, #88]	; (1968 <system_gclk_gen_get_hz+0x70>)
    1910:	7853      	ldrb	r3, [r2, #1]
	while (system_gclk_is_syncing()) {
    1912:	b25b      	sxtb	r3, r3
    1914:	2b00      	cmp	r3, #0
    1916:	dbfb      	blt.n	1910 <system_gclk_gen_get_hz+0x18>
		/* Wait for synchronization */
	};

	/* Get the frequency of the source connected to the GCLK generator */
	uint32_t gen_input_hz = system_clock_source_get_hz(
			(enum system_clock_source)GCLK->GENCTRL.bit.SRC);
    1918:	4e13      	ldr	r6, [pc, #76]	; (1968 <system_gclk_gen_get_hz+0x70>)
    191a:	6870      	ldr	r0, [r6, #4]
    191c:	04c0      	lsls	r0, r0, #19
    191e:	0ec0      	lsrs	r0, r0, #27
	uint32_t gen_input_hz = system_clock_source_get_hz(
    1920:	4b14      	ldr	r3, [pc, #80]	; (1974 <system_gclk_gen_get_hz+0x7c>)
    1922:	4798      	blx	r3
    1924:	0005      	movs	r5, r0

	*((uint8_t*)&GCLK->GENCTRL.reg) = generator;
    1926:	4b12      	ldr	r3, [pc, #72]	; (1970 <system_gclk_gen_get_hz+0x78>)
    1928:	701c      	strb	r4, [r3, #0]

	uint8_t divsel = GCLK->GENCTRL.bit.DIVSEL;
    192a:	6876      	ldr	r6, [r6, #4]
    192c:	02f6      	lsls	r6, r6, #11
    192e:	0ff6      	lsrs	r6, r6, #31

	/* Select the appropriate generator division register */
	*((uint8_t*)&GCLK->GENDIV.reg) = generator;
    1930:	4b11      	ldr	r3, [pc, #68]	; (1978 <system_gclk_gen_get_hz+0x80>)
    1932:	701c      	strb	r4, [r3, #0]
	if (GCLK->STATUS.reg & GCLK_STATUS_SYNCBUSY){
    1934:	4a0c      	ldr	r2, [pc, #48]	; (1968 <system_gclk_gen_get_hz+0x70>)
    1936:	7853      	ldrb	r3, [r2, #1]
	while (system_gclk_is_syncing()) {
    1938:	b25b      	sxtb	r3, r3
    193a:	2b00      	cmp	r3, #0
    193c:	dbfb      	blt.n	1936 <system_gclk_gen_get_hz+0x3e>
		/* Wait for synchronization */
	};

	uint32_t divider = GCLK->GENDIV.bit.DIV;
    193e:	4b0a      	ldr	r3, [pc, #40]	; (1968 <system_gclk_gen_get_hz+0x70>)
    1940:	689c      	ldr	r4, [r3, #8]
    1942:	0224      	lsls	r4, r4, #8
    1944:	0c24      	lsrs	r4, r4, #16
	cpu_irq_leave_critical();
    1946:	4b0d      	ldr	r3, [pc, #52]	; (197c <system_gclk_gen_get_hz+0x84>)
    1948:	4798      	blx	r3

	system_interrupt_leave_critical_section();

	/* Check if the generator is using fractional or binary division */
	if (!divsel && divider > 1) {
    194a:	2e00      	cmp	r6, #0
    194c:	d107      	bne.n	195e <system_gclk_gen_get_hz+0x66>
    194e:	2c01      	cmp	r4, #1
    1950:	d907      	bls.n	1962 <system_gclk_gen_get_hz+0x6a>
		gen_input_hz /= divider;
    1952:	0021      	movs	r1, r4
    1954:	0028      	movs	r0, r5
    1956:	4b0a      	ldr	r3, [pc, #40]	; (1980 <system_gclk_gen_get_hz+0x88>)
    1958:	4798      	blx	r3
    195a:	0005      	movs	r5, r0
    195c:	e001      	b.n	1962 <system_gclk_gen_get_hz+0x6a>
	} else if (divsel) {
		gen_input_hz >>= (divider+1);
    195e:	3401      	adds	r4, #1
    1960:	40e5      	lsrs	r5, r4
	}

	return gen_input_hz;
}
    1962:	0028      	movs	r0, r5
    1964:	bd70      	pop	{r4, r5, r6, pc}
    1966:	46c0      	nop			; (mov r8, r8)
    1968:	40000c00 	.word	0x40000c00
    196c:	0000042d 	.word	0x0000042d
    1970:	40000c04 	.word	0x40000c04
    1974:	000013cd 	.word	0x000013cd
    1978:	40000c08 	.word	0x40000c08
    197c:	0000046d 	.word	0x0000046d
    1980:	00003155 	.word	0x00003155

00001984 <system_gclk_chan_enable>:
 *
 * \param[in] channel   Generic Clock channel to enable
 */
void system_gclk_chan_enable(
		const uint8_t channel)
{
    1984:	b510      	push	{r4, lr}
    1986:	0004      	movs	r4, r0
	cpu_irq_enter_critical();
    1988:	4b06      	ldr	r3, [pc, #24]	; (19a4 <system_gclk_chan_enable+0x20>)
    198a:	4798      	blx	r3
	system_interrupt_enter_critical_section();

	/* Select the requested generator channel */
	*((uint8_t*)&GCLK->CLKCTRL.reg) = channel;
    198c:	4b06      	ldr	r3, [pc, #24]	; (19a8 <system_gclk_chan_enable+0x24>)
    198e:	701c      	strb	r4, [r3, #0]

	/* Enable the generic clock */
	GCLK->CLKCTRL.reg |= GCLK_CLKCTRL_CLKEN;
    1990:	4a06      	ldr	r2, [pc, #24]	; (19ac <system_gclk_chan_enable+0x28>)
    1992:	8853      	ldrh	r3, [r2, #2]
    1994:	2180      	movs	r1, #128	; 0x80
    1996:	01c9      	lsls	r1, r1, #7
    1998:	430b      	orrs	r3, r1
    199a:	8053      	strh	r3, [r2, #2]
	cpu_irq_leave_critical();
    199c:	4b04      	ldr	r3, [pc, #16]	; (19b0 <system_gclk_chan_enable+0x2c>)
    199e:	4798      	blx	r3

	system_interrupt_leave_critical_section();
}
    19a0:	bd10      	pop	{r4, pc}
    19a2:	46c0      	nop			; (mov r8, r8)
    19a4:	0000042d 	.word	0x0000042d
    19a8:	40000c02 	.word	0x40000c02
    19ac:	40000c00 	.word	0x40000c00
    19b0:	0000046d 	.word	0x0000046d

000019b4 <system_gclk_chan_disable>:
 *
 * \param[in] channel  Generic Clock channel to disable
 */
void system_gclk_chan_disable(
		const uint8_t channel)
{
    19b4:	b510      	push	{r4, lr}
    19b6:	0004      	movs	r4, r0
	cpu_irq_enter_critical();
    19b8:	4b0f      	ldr	r3, [pc, #60]	; (19f8 <system_gclk_chan_disable+0x44>)
    19ba:	4798      	blx	r3
	system_interrupt_enter_critical_section();

	/* Select the requested generator channel */
	*((uint8_t*)&GCLK->CLKCTRL.reg) = channel;
    19bc:	4b0f      	ldr	r3, [pc, #60]	; (19fc <system_gclk_chan_disable+0x48>)
    19be:	701c      	strb	r4, [r3, #0]

	/* Sanity check WRTLOCK */
	Assert(!GCLK->CLKCTRL.bit.WRTLOCK);

	/* Switch to known-working source so that the channel can be disabled */
	uint32_t prev_gen_id = GCLK->CLKCTRL.bit.GEN;
    19c0:	4a0f      	ldr	r2, [pc, #60]	; (1a00 <system_gclk_chan_disable+0x4c>)
    19c2:	8853      	ldrh	r3, [r2, #2]
    19c4:	051b      	lsls	r3, r3, #20
    19c6:	0f18      	lsrs	r0, r3, #28
	GCLK->CLKCTRL.bit.GEN = 0;
    19c8:	8853      	ldrh	r3, [r2, #2]
    19ca:	490e      	ldr	r1, [pc, #56]	; (1a04 <system_gclk_chan_disable+0x50>)
    19cc:	400b      	ands	r3, r1
    19ce:	8053      	strh	r3, [r2, #2]

	/* Disable the generic clock */
	GCLK->CLKCTRL.reg &= ~GCLK_CLKCTRL_CLKEN;
    19d0:	8853      	ldrh	r3, [r2, #2]
    19d2:	490d      	ldr	r1, [pc, #52]	; (1a08 <system_gclk_chan_disable+0x54>)
    19d4:	400b      	ands	r3, r1
    19d6:	8053      	strh	r3, [r2, #2]
	while (GCLK->CLKCTRL.reg & GCLK_CLKCTRL_CLKEN) {
    19d8:	0011      	movs	r1, r2
    19da:	2280      	movs	r2, #128	; 0x80
    19dc:	01d2      	lsls	r2, r2, #7
    19de:	884b      	ldrh	r3, [r1, #2]
    19e0:	4213      	tst	r3, r2
    19e2:	d1fc      	bne.n	19de <system_gclk_chan_disable+0x2a>
		/* Wait for clock to become disabled */
	}

	/* Restore previous configured clock generator */
	GCLK->CLKCTRL.bit.GEN = prev_gen_id;
    19e4:	4906      	ldr	r1, [pc, #24]	; (1a00 <system_gclk_chan_disable+0x4c>)
    19e6:	884a      	ldrh	r2, [r1, #2]
    19e8:	0203      	lsls	r3, r0, #8
    19ea:	4806      	ldr	r0, [pc, #24]	; (1a04 <system_gclk_chan_disable+0x50>)
    19ec:	4002      	ands	r2, r0
    19ee:	4313      	orrs	r3, r2
    19f0:	804b      	strh	r3, [r1, #2]
	cpu_irq_leave_critical();
    19f2:	4b06      	ldr	r3, [pc, #24]	; (1a0c <system_gclk_chan_disable+0x58>)
    19f4:	4798      	blx	r3

	system_interrupt_leave_critical_section();
}
    19f6:	bd10      	pop	{r4, pc}
    19f8:	0000042d 	.word	0x0000042d
    19fc:	40000c02 	.word	0x40000c02
    1a00:	40000c00 	.word	0x40000c00
    1a04:	fffff0ff 	.word	0xfffff0ff
    1a08:	ffffbfff 	.word	0xffffbfff
    1a0c:	0000046d 	.word	0x0000046d

00001a10 <system_gclk_chan_set_config>:
{
    1a10:	b510      	push	{r4, lr}
	new_clkctrl_config |= config->source_generator << GCLK_CLKCTRL_GEN_Pos;
    1a12:	780c      	ldrb	r4, [r1, #0]
    1a14:	0224      	lsls	r4, r4, #8
    1a16:	4304      	orrs	r4, r0
	system_gclk_chan_disable(channel);
    1a18:	4b02      	ldr	r3, [pc, #8]	; (1a24 <system_gclk_chan_set_config+0x14>)
    1a1a:	4798      	blx	r3
	GCLK->CLKCTRL.reg = new_clkctrl_config;
    1a1c:	b2a4      	uxth	r4, r4
    1a1e:	4b02      	ldr	r3, [pc, #8]	; (1a28 <system_gclk_chan_set_config+0x18>)
    1a20:	805c      	strh	r4, [r3, #2]
}
    1a22:	bd10      	pop	{r4, pc}
    1a24:	000019b5 	.word	0x000019b5
    1a28:	40000c00 	.word	0x40000c00

00001a2c <system_gclk_chan_get_hz>:
 *
 * \return The frequency of the generic clock channel, in Hz.
 */
uint32_t system_gclk_chan_get_hz(
		const uint8_t channel)
{
    1a2c:	b510      	push	{r4, lr}
    1a2e:	0004      	movs	r4, r0
	cpu_irq_enter_critical();
    1a30:	4b06      	ldr	r3, [pc, #24]	; (1a4c <system_gclk_chan_get_hz+0x20>)
    1a32:	4798      	blx	r3
	uint8_t gen_id;

	system_interrupt_enter_critical_section();

	/* Select the requested generic clock channel */
	*((uint8_t*)&GCLK->CLKCTRL.reg) = channel;
    1a34:	4b06      	ldr	r3, [pc, #24]	; (1a50 <system_gclk_chan_get_hz+0x24>)
    1a36:	701c      	strb	r4, [r3, #0]
	gen_id = GCLK->CLKCTRL.bit.GEN;
    1a38:	4b06      	ldr	r3, [pc, #24]	; (1a54 <system_gclk_chan_get_hz+0x28>)
    1a3a:	885c      	ldrh	r4, [r3, #2]
    1a3c:	0524      	lsls	r4, r4, #20
    1a3e:	0f24      	lsrs	r4, r4, #28
	cpu_irq_leave_critical();
    1a40:	4b05      	ldr	r3, [pc, #20]	; (1a58 <system_gclk_chan_get_hz+0x2c>)
    1a42:	4798      	blx	r3

	system_interrupt_leave_critical_section();

	/* Return the clock speed of the associated GCLK generator */
	return system_gclk_gen_get_hz(gen_id);
    1a44:	0020      	movs	r0, r4
    1a46:	4b05      	ldr	r3, [pc, #20]	; (1a5c <system_gclk_chan_get_hz+0x30>)
    1a48:	4798      	blx	r3
}
    1a4a:	bd10      	pop	{r4, pc}
    1a4c:	0000042d 	.word	0x0000042d
    1a50:	40000c02 	.word	0x40000c02
    1a54:	40000c00 	.word	0x40000c00
    1a58:	0000046d 	.word	0x0000046d
    1a5c:	000018f9 	.word	0x000018f9

00001a60 <_system_pinmux_config>:
 */
static void _system_pinmux_config(
		PortGroup *const port,
		const uint32_t pin_mask,
		const struct system_pinmux_config *const config)
{
    1a60:	b530      	push	{r4, r5, lr}

	/* Track the configuration bits into a temporary variable before writing */
	uint32_t pin_cfg = 0;

	/* Enabled powersave mode, don't create configuration */
	if (!config->powersave) {
    1a62:	78d3      	ldrb	r3, [r2, #3]
    1a64:	2b00      	cmp	r3, #0
    1a66:	d135      	bne.n	1ad4 <_system_pinmux_config+0x74>
		/* Enable the pin peripheral MUX flag if non-GPIO selected (pinmux will
		 * be written later) and store the new MUX mask */
		if (config->mux_position != SYSTEM_PINMUX_GPIO) {
    1a68:	7813      	ldrb	r3, [r2, #0]
    1a6a:	2b80      	cmp	r3, #128	; 0x80
    1a6c:	d029      	beq.n	1ac2 <_system_pinmux_config+0x62>
			pin_cfg |= PORT_WRCONFIG_PMUXEN;
			pin_cfg |= (config->mux_position << PORT_WRCONFIG_PMUX_Pos);
    1a6e:	061b      	lsls	r3, r3, #24
    1a70:	2480      	movs	r4, #128	; 0x80
    1a72:	0264      	lsls	r4, r4, #9
    1a74:	4323      	orrs	r3, r4
		}

		/* Check if the user has requested that the input buffer be enabled */
		if ((config->direction == SYSTEM_PINMUX_PIN_DIR_INPUT) ||
    1a76:	7854      	ldrb	r4, [r2, #1]
    1a78:	2502      	movs	r5, #2
    1a7a:	43ac      	bics	r4, r5
    1a7c:	d106      	bne.n	1a8c <_system_pinmux_config+0x2c>
				(config->direction == SYSTEM_PINMUX_PIN_DIR_OUTPUT_WITH_READBACK)) {
			/* Enable input buffer flag */
			pin_cfg |= PORT_WRCONFIG_INEN;

			/* Enable pull-up/pull-down control flag if requested */
			if (config->input_pull != SYSTEM_PINMUX_PIN_PULL_NONE) {
    1a7e:	7894      	ldrb	r4, [r2, #2]
    1a80:	2c00      	cmp	r4, #0
    1a82:	d120      	bne.n	1ac6 <_system_pinmux_config+0x66>
			pin_cfg |= PORT_WRCONFIG_INEN;
    1a84:	2480      	movs	r4, #128	; 0x80
    1a86:	02a4      	lsls	r4, r4, #10
    1a88:	4323      	orrs	r3, r4
				pin_cfg |= PORT_WRCONFIG_PULLEN;
			}

			/* Clear the port DIR bits to disable the output buffer */
			port->DIRCLR.reg = pin_mask;
    1a8a:	6041      	str	r1, [r0, #4]
		}

		/* Check if the user has requested that the output buffer be enabled */
		if ((config->direction == SYSTEM_PINMUX_PIN_DIR_OUTPUT) ||
    1a8c:	7854      	ldrb	r4, [r2, #1]
    1a8e:	3c01      	subs	r4, #1
    1a90:	2c01      	cmp	r4, #1
    1a92:	d91c      	bls.n	1ace <_system_pinmux_config+0x6e>
		port->DIRCLR.reg = pin_mask;
	}

	/* The Write Configuration register (WRCONFIG) requires the
	 * pins to to grouped into two 16-bit half-words - split them out here */
	uint32_t lower_pin_mask = (pin_mask & 0xFFFF);
    1a94:	040d      	lsls	r5, r1, #16
    1a96:	0c2d      	lsrs	r5, r5, #16

	/* Configure the lower 16-bits of the port to the desired configuration,
	 * including the pin peripheral multiplexer just in case it is enabled */
	port->WRCONFIG.reg
		= (lower_pin_mask << PORT_WRCONFIG_PINMASK_Pos) |
			pin_cfg | PORT_WRCONFIG_WRPMUX | PORT_WRCONFIG_WRPINCFG;
    1a98:	24a0      	movs	r4, #160	; 0xa0
    1a9a:	05e4      	lsls	r4, r4, #23
    1a9c:	432c      	orrs	r4, r5
    1a9e:	431c      	orrs	r4, r3
		= (lower_pin_mask << PORT_WRCONFIG_PINMASK_Pos) |
    1aa0:	6284      	str	r4, [r0, #40]	; 0x28
	uint32_t upper_pin_mask = (pin_mask >> 16);
    1aa2:	0c0d      	lsrs	r5, r1, #16

	/* Configure the upper 16-bits of the port to the desired configuration,
	 * including the pin peripheral multiplexer just in case it is enabled */
	port->WRCONFIG.reg
		= (upper_pin_mask << PORT_WRCONFIG_PINMASK_Pos) |
			pin_cfg | PORT_WRCONFIG_WRPMUX | PORT_WRCONFIG_WRPINCFG |
    1aa4:	24d0      	movs	r4, #208	; 0xd0
    1aa6:	0624      	lsls	r4, r4, #24
    1aa8:	432c      	orrs	r4, r5
    1aaa:	431c      	orrs	r4, r3
		= (upper_pin_mask << PORT_WRCONFIG_PINMASK_Pos) |
    1aac:	6284      	str	r4, [r0, #40]	; 0x28
			PORT_WRCONFIG_HWSEL;

	if(!config->powersave) {
    1aae:	78d4      	ldrb	r4, [r2, #3]
    1ab0:	2c00      	cmp	r4, #0
    1ab2:	d122      	bne.n	1afa <_system_pinmux_config+0x9a>
		/* Set the pull-up state once the port pins are configured if one was
		 * requested and it does not violate the valid set of port
		 * configurations */
		if (pin_cfg & PORT_WRCONFIG_PULLEN) {
    1ab4:	035b      	lsls	r3, r3, #13
    1ab6:	d51c      	bpl.n	1af2 <_system_pinmux_config+0x92>
			/* Set the OUT register bits to enable the pull-up if requested,
			 * clear to enable pull-down */
			if (config->input_pull == SYSTEM_PINMUX_PIN_PULL_UP) {
    1ab8:	7893      	ldrb	r3, [r2, #2]
    1aba:	2b01      	cmp	r3, #1
    1abc:	d01e      	beq.n	1afc <_system_pinmux_config+0x9c>
				port->OUTSET.reg = pin_mask;
			} else {
				port->OUTCLR.reg = pin_mask;
    1abe:	6141      	str	r1, [r0, #20]
    1ac0:	e017      	b.n	1af2 <_system_pinmux_config+0x92>
	uint32_t pin_cfg = 0;
    1ac2:	2300      	movs	r3, #0
    1ac4:	e7d7      	b.n	1a76 <_system_pinmux_config+0x16>
				pin_cfg |= PORT_WRCONFIG_PULLEN;
    1ac6:	24c0      	movs	r4, #192	; 0xc0
    1ac8:	02e4      	lsls	r4, r4, #11
    1aca:	4323      	orrs	r3, r4
    1acc:	e7dd      	b.n	1a8a <_system_pinmux_config+0x2a>
			pin_cfg &= ~PORT_WRCONFIG_PULLEN;
    1ace:	4c0d      	ldr	r4, [pc, #52]	; (1b04 <_system_pinmux_config+0xa4>)
    1ad0:	4023      	ands	r3, r4
    1ad2:	e7df      	b.n	1a94 <_system_pinmux_config+0x34>
		port->DIRCLR.reg = pin_mask;
    1ad4:	6041      	str	r1, [r0, #4]
	uint32_t lower_pin_mask = (pin_mask & 0xFFFF);
    1ad6:	040c      	lsls	r4, r1, #16
    1ad8:	0c24      	lsrs	r4, r4, #16
			pin_cfg | PORT_WRCONFIG_WRPMUX | PORT_WRCONFIG_WRPINCFG;
    1ada:	23a0      	movs	r3, #160	; 0xa0
    1adc:	05db      	lsls	r3, r3, #23
    1ade:	4323      	orrs	r3, r4
		= (lower_pin_mask << PORT_WRCONFIG_PINMASK_Pos) |
    1ae0:	6283      	str	r3, [r0, #40]	; 0x28
	uint32_t upper_pin_mask = (pin_mask >> 16);
    1ae2:	0c0c      	lsrs	r4, r1, #16
			pin_cfg | PORT_WRCONFIG_WRPMUX | PORT_WRCONFIG_WRPINCFG |
    1ae4:	23d0      	movs	r3, #208	; 0xd0
    1ae6:	061b      	lsls	r3, r3, #24
    1ae8:	4323      	orrs	r3, r4
		= (upper_pin_mask << PORT_WRCONFIG_PINMASK_Pos) |
    1aea:	6283      	str	r3, [r0, #40]	; 0x28
	if(!config->powersave) {
    1aec:	78d3      	ldrb	r3, [r2, #3]
    1aee:	2b00      	cmp	r3, #0
    1af0:	d103      	bne.n	1afa <_system_pinmux_config+0x9a>
			}
		}

		/* Check if the user has requested that the output buffer be enabled */
		if ((config->direction == SYSTEM_PINMUX_PIN_DIR_OUTPUT) ||
    1af2:	7853      	ldrb	r3, [r2, #1]
    1af4:	3b01      	subs	r3, #1
    1af6:	2b01      	cmp	r3, #1
    1af8:	d902      	bls.n	1b00 <_system_pinmux_config+0xa0>
				(config->direction == SYSTEM_PINMUX_PIN_DIR_OUTPUT_WITH_READBACK)) {
			/* Set the port DIR bits to enable the output buffer */
			port->DIRSET.reg = pin_mask;
		}
	}
}
    1afa:	bd30      	pop	{r4, r5, pc}
				port->OUTSET.reg = pin_mask;
    1afc:	6181      	str	r1, [r0, #24]
    1afe:	e7f8      	b.n	1af2 <_system_pinmux_config+0x92>
			port->DIRSET.reg = pin_mask;
    1b00:	6081      	str	r1, [r0, #8]
}
    1b02:	e7fa      	b.n	1afa <_system_pinmux_config+0x9a>
    1b04:	fffbffff 	.word	0xfffbffff

00001b08 <system_pinmux_pin_set_config>:
 * \param[in] config    Configuration settings for the pin
 */
void system_pinmux_pin_set_config(
		const uint8_t gpio_pin,
		const struct system_pinmux_config *const config)
{
    1b08:	b510      	push	{r4, lr}
    1b0a:	000a      	movs	r2, r1
	uint8_t group_index = (gpio_pin / 32);

	/* Array of available ports */
	Port *const ports[PORT_INST_NUM] = PORT_INSTS;

	if (port_index < PORT_INST_NUM) {
    1b0c:	09c1      	lsrs	r1, r0, #7
		return &(ports[port_index]->Group[group_index]);
	} else {
		Assert(false);
		return NULL;
    1b0e:	2300      	movs	r3, #0
	if (port_index < PORT_INST_NUM) {
    1b10:	2900      	cmp	r1, #0
    1b12:	d104      	bne.n	1b1e <system_pinmux_pin_set_config+0x16>
		return &(ports[port_index]->Group[group_index]);
    1b14:	0943      	lsrs	r3, r0, #5
    1b16:	01db      	lsls	r3, r3, #7
    1b18:	4905      	ldr	r1, [pc, #20]	; (1b30 <system_pinmux_pin_set_config+0x28>)
    1b1a:	468c      	mov	ip, r1
    1b1c:	4463      	add	r3, ip
	PortGroup *const port = system_pinmux_get_group_from_gpio_pin(gpio_pin);
	uint32_t pin_mask = (1UL << (gpio_pin % 32));
    1b1e:	241f      	movs	r4, #31
    1b20:	4020      	ands	r0, r4
    1b22:	2101      	movs	r1, #1
    1b24:	4081      	lsls	r1, r0

	_system_pinmux_config(port, pin_mask, config);
    1b26:	0018      	movs	r0, r3
    1b28:	4b02      	ldr	r3, [pc, #8]	; (1b34 <system_pinmux_pin_set_config+0x2c>)
    1b2a:	4798      	blx	r3
}
    1b2c:	bd10      	pop	{r4, pc}
    1b2e:	46c0      	nop			; (mov r8, r8)
    1b30:	41004400 	.word	0x41004400
    1b34:	00001a61 	.word	0x00001a61

00001b38 <_system_dummy_init>:
 */
void _system_dummy_init(void);
void _system_dummy_init(void)
{
	return;
}
    1b38:	4770      	bx	lr
	...

00001b3c <system_init>:
 *  - Board hardware initialization (via the Board module)
 *  - Event system driver initialization (via the EVSYS module)
 *  - External Interrupt driver initialization (via the EXTINT module)
 */
void system_init(void)
{
    1b3c:	b510      	push	{r4, lr}
	/* Configure GCLK and clock sources according to conf_clocks.h */
	system_clock_init();
    1b3e:	4b05      	ldr	r3, [pc, #20]	; (1b54 <system_init+0x18>)
    1b40:	4798      	blx	r3

	/* Initialize board hardware */
	system_board_init();
    1b42:	4b05      	ldr	r3, [pc, #20]	; (1b58 <system_init+0x1c>)
    1b44:	4798      	blx	r3

	/* Initialize EVSYS hardware */
	_system_events_init();
    1b46:	4b05      	ldr	r3, [pc, #20]	; (1b5c <system_init+0x20>)
    1b48:	4798      	blx	r3

	/* Initialize External hardware */
	_system_extint_init();
    1b4a:	4b05      	ldr	r3, [pc, #20]	; (1b60 <system_init+0x24>)
    1b4c:	4798      	blx	r3
	
	/* Initialize DIVAS hardware */
	_system_divas_init();
    1b4e:	4b05      	ldr	r3, [pc, #20]	; (1b64 <system_init+0x28>)
    1b50:	4798      	blx	r3
}
    1b52:	bd10      	pop	{r4, pc}
    1b54:	0000167d 	.word	0x0000167d
    1b58:	0000049d 	.word	0x0000049d
    1b5c:	00001b39 	.word	0x00001b39
    1b60:	00001b39 	.word	0x00001b39
    1b64:	00001b39 	.word	0x00001b39

00001b68 <Dummy_Handler>:

/**
 * \brief Default interrupt handler for unused IRQs.
 */
void Dummy_Handler(void)
{
    1b68:	e7fe      	b.n	1b68 <Dummy_Handler>
	...

00001b6c <Reset_Handler>:
{
    1b6c:	b5f8      	push	{r3, r4, r5, r6, r7, lr}
        if (pSrc != pDest) {
    1b6e:	4a2a      	ldr	r2, [pc, #168]	; (1c18 <Reset_Handler+0xac>)
    1b70:	4b2a      	ldr	r3, [pc, #168]	; (1c1c <Reset_Handler+0xb0>)
    1b72:	429a      	cmp	r2, r3
    1b74:	d011      	beq.n	1b9a <Reset_Handler+0x2e>
                for (; pDest < &_erelocate;) {
    1b76:	001a      	movs	r2, r3
    1b78:	4b29      	ldr	r3, [pc, #164]	; (1c20 <Reset_Handler+0xb4>)
    1b7a:	429a      	cmp	r2, r3
    1b7c:	d20d      	bcs.n	1b9a <Reset_Handler+0x2e>
    1b7e:	4a29      	ldr	r2, [pc, #164]	; (1c24 <Reset_Handler+0xb8>)
    1b80:	3303      	adds	r3, #3
    1b82:	1a9b      	subs	r3, r3, r2
    1b84:	089b      	lsrs	r3, r3, #2
    1b86:	3301      	adds	r3, #1
    1b88:	009b      	lsls	r3, r3, #2
    1b8a:	2200      	movs	r2, #0
                        *pDest++ = *pSrc++;
    1b8c:	4823      	ldr	r0, [pc, #140]	; (1c1c <Reset_Handler+0xb0>)
    1b8e:	4922      	ldr	r1, [pc, #136]	; (1c18 <Reset_Handler+0xac>)
    1b90:	588c      	ldr	r4, [r1, r2]
    1b92:	5084      	str	r4, [r0, r2]
    1b94:	3204      	adds	r2, #4
                for (; pDest < &_erelocate;) {
    1b96:	429a      	cmp	r2, r3
    1b98:	d1fa      	bne.n	1b90 <Reset_Handler+0x24>
        for (pDest = &_szero; pDest < &_ezero;) {
    1b9a:	4a23      	ldr	r2, [pc, #140]	; (1c28 <Reset_Handler+0xbc>)
    1b9c:	4b23      	ldr	r3, [pc, #140]	; (1c2c <Reset_Handler+0xc0>)
    1b9e:	429a      	cmp	r2, r3
    1ba0:	d20a      	bcs.n	1bb8 <Reset_Handler+0x4c>
    1ba2:	43d3      	mvns	r3, r2
    1ba4:	4921      	ldr	r1, [pc, #132]	; (1c2c <Reset_Handler+0xc0>)
    1ba6:	185b      	adds	r3, r3, r1
    1ba8:	2103      	movs	r1, #3
    1baa:	438b      	bics	r3, r1
    1bac:	3304      	adds	r3, #4
    1bae:	189b      	adds	r3, r3, r2
                *pDest++ = 0;
    1bb0:	2100      	movs	r1, #0
    1bb2:	c202      	stmia	r2!, {r1}
        for (pDest = &_szero; pDest < &_ezero;) {
    1bb4:	4293      	cmp	r3, r2
    1bb6:	d1fc      	bne.n	1bb2 <Reset_Handler+0x46>
        SCB->VTOR = ((uint32_t) pSrc & SCB_VTOR_TBLOFF_Msk);
    1bb8:	4a1d      	ldr	r2, [pc, #116]	; (1c30 <Reset_Handler+0xc4>)
    1bba:	21ff      	movs	r1, #255	; 0xff
    1bbc:	4b1d      	ldr	r3, [pc, #116]	; (1c34 <Reset_Handler+0xc8>)
    1bbe:	438b      	bics	r3, r1
    1bc0:	6093      	str	r3, [r2, #8]
        SBMATRIX->SFR[SBMATRIX_SLAVE_HMCRAMC0].reg = 2;
    1bc2:	39fd      	subs	r1, #253	; 0xfd
    1bc4:	2390      	movs	r3, #144	; 0x90
    1bc6:	005b      	lsls	r3, r3, #1
    1bc8:	4a1b      	ldr	r2, [pc, #108]	; (1c38 <Reset_Handler+0xcc>)
    1bca:	50d1      	str	r1, [r2, r3]
        USB->DEVICE.QOSCTRL.bit.CQOS = 2;
    1bcc:	4a1b      	ldr	r2, [pc, #108]	; (1c3c <Reset_Handler+0xd0>)
    1bce:	78d3      	ldrb	r3, [r2, #3]
    1bd0:	2503      	movs	r5, #3
    1bd2:	43ab      	bics	r3, r5
    1bd4:	2402      	movs	r4, #2
    1bd6:	4323      	orrs	r3, r4
    1bd8:	70d3      	strb	r3, [r2, #3]
        USB->DEVICE.QOSCTRL.bit.DQOS = 2;
    1bda:	78d3      	ldrb	r3, [r2, #3]
    1bdc:	270c      	movs	r7, #12
    1bde:	43bb      	bics	r3, r7
    1be0:	2608      	movs	r6, #8
    1be2:	4333      	orrs	r3, r6
    1be4:	70d3      	strb	r3, [r2, #3]
        DMAC->QOSCTRL.bit.DQOS = 2;
    1be6:	4b16      	ldr	r3, [pc, #88]	; (1c40 <Reset_Handler+0xd4>)
    1be8:	7b98      	ldrb	r0, [r3, #14]
    1bea:	2230      	movs	r2, #48	; 0x30
    1bec:	4390      	bics	r0, r2
    1bee:	2220      	movs	r2, #32
    1bf0:	4310      	orrs	r0, r2
    1bf2:	7398      	strb	r0, [r3, #14]
        DMAC->QOSCTRL.bit.FQOS = 2;
    1bf4:	7b99      	ldrb	r1, [r3, #14]
    1bf6:	43b9      	bics	r1, r7
    1bf8:	4331      	orrs	r1, r6
    1bfa:	7399      	strb	r1, [r3, #14]
        DMAC->QOSCTRL.bit.WRBQOS = 2;
    1bfc:	7b9a      	ldrb	r2, [r3, #14]
    1bfe:	43aa      	bics	r2, r5
    1c00:	4322      	orrs	r2, r4
    1c02:	739a      	strb	r2, [r3, #14]
        NVMCTRL->CTRLB.bit.MANW = 1;
    1c04:	4a0f      	ldr	r2, [pc, #60]	; (1c44 <Reset_Handler+0xd8>)
    1c06:	6853      	ldr	r3, [r2, #4]
    1c08:	2180      	movs	r1, #128	; 0x80
    1c0a:	430b      	orrs	r3, r1
    1c0c:	6053      	str	r3, [r2, #4]
        __libc_init_array();
    1c0e:	4b0e      	ldr	r3, [pc, #56]	; (1c48 <Reset_Handler+0xdc>)
    1c10:	4798      	blx	r3
        main();
    1c12:	4b0e      	ldr	r3, [pc, #56]	; (1c4c <Reset_Handler+0xe0>)
    1c14:	4798      	blx	r3
    1c16:	e7fe      	b.n	1c16 <Reset_Handler+0xaa>
    1c18:	0000661c 	.word	0x0000661c
    1c1c:	20000000 	.word	0x20000000
    1c20:	200001bc 	.word	0x200001bc
    1c24:	20000004 	.word	0x20000004
    1c28:	200001bc 	.word	0x200001bc
    1c2c:	20000430 	.word	0x20000430
    1c30:	e000ed00 	.word	0xe000ed00
    1c34:	00000000 	.word	0x00000000
    1c38:	41007000 	.word	0x41007000
    1c3c:	41005000 	.word	0x41005000
    1c40:	41004800 	.word	0x41004800
    1c44:	41004000 	.word	0x41004000
    1c48:	000032c1 	.word	0x000032c1
    1c4c:	000030c5 	.word	0x000030c5

00001c50 <_read>:
int __attribute__((weak))
_read (int file, char * ptr, int len); // Remove GCC compiler warning

int __attribute__((weak))
_read (int file, char * ptr, int len)
{
    1c50:	b5f0      	push	{r4, r5, r6, r7, lr}
    1c52:	46c6      	mov	lr, r8
    1c54:	b500      	push	{lr}
    1c56:	000c      	movs	r4, r1
    1c58:	4690      	mov	r8, r2
	int nChars = 0;

	if (file != 0) {
    1c5a:	2800      	cmp	r0, #0
    1c5c:	d10f      	bne.n	1c7e <_read+0x2e>
		return -1;
	}

	for (; len > 0; --len) {
    1c5e:	2a00      	cmp	r2, #0
    1c60:	dd11      	ble.n	1c86 <_read+0x36>
    1c62:	188f      	adds	r7, r1, r2
		ptr_get(stdio_base, ptr);
    1c64:	4e09      	ldr	r6, [pc, #36]	; (1c8c <_read+0x3c>)
    1c66:	4d0a      	ldr	r5, [pc, #40]	; (1c90 <_read+0x40>)
    1c68:	6830      	ldr	r0, [r6, #0]
    1c6a:	0021      	movs	r1, r4
    1c6c:	682b      	ldr	r3, [r5, #0]
    1c6e:	4798      	blx	r3
		ptr++;
    1c70:	3401      	adds	r4, #1
	for (; len > 0; --len) {
    1c72:	42bc      	cmp	r4, r7
    1c74:	d1f8      	bne.n	1c68 <_read+0x18>
		nChars++;
	}
	return nChars;
}
    1c76:	4640      	mov	r0, r8
    1c78:	bc04      	pop	{r2}
    1c7a:	4690      	mov	r8, r2
    1c7c:	bdf0      	pop	{r4, r5, r6, r7, pc}
		return -1;
    1c7e:	2301      	movs	r3, #1
    1c80:	425b      	negs	r3, r3
    1c82:	4698      	mov	r8, r3
    1c84:	e7f7      	b.n	1c76 <_read+0x26>
	for (; len > 0; --len) {
    1c86:	4680      	mov	r8, r0
    1c88:	e7f5      	b.n	1c76 <_read+0x26>
    1c8a:	46c0      	nop			; (mov r8, r8)
    1c8c:	200002cc 	.word	0x200002cc
    1c90:	200002c4 	.word	0x200002c4

00001c94 <_write>:
int __attribute__((weak))
_write (int file, char * ptr, int len);

int __attribute__((weak))
_write (int file, char * ptr, int len)
{
    1c94:	b5f0      	push	{r4, r5, r6, r7, lr}
    1c96:	46c6      	mov	lr, r8
    1c98:	b500      	push	{lr}
    1c9a:	000e      	movs	r6, r1
    1c9c:	0015      	movs	r5, r2
	int nChars = 0;

	if ((file != 1) && (file != 2) && (file!=3)) {
    1c9e:	3801      	subs	r0, #1
    1ca0:	2802      	cmp	r0, #2
    1ca2:	d810      	bhi.n	1cc6 <_write+0x32>
		return -1;
	}

	for (; len != 0; --len) {
    1ca4:	2a00      	cmp	r2, #0
    1ca6:	d011      	beq.n	1ccc <_write+0x38>
    1ca8:	2400      	movs	r4, #0
		if (ptr_put(stdio_base, *ptr++) < 0) {
    1caa:	4b0c      	ldr	r3, [pc, #48]	; (1cdc <_write+0x48>)
    1cac:	4698      	mov	r8, r3
    1cae:	4f0c      	ldr	r7, [pc, #48]	; (1ce0 <_write+0x4c>)
    1cb0:	4643      	mov	r3, r8
    1cb2:	6818      	ldr	r0, [r3, #0]
    1cb4:	5d31      	ldrb	r1, [r6, r4]
    1cb6:	683b      	ldr	r3, [r7, #0]
    1cb8:	4798      	blx	r3
    1cba:	2800      	cmp	r0, #0
    1cbc:	db08      	blt.n	1cd0 <_write+0x3c>
			return -1;
		}
		++nChars;
    1cbe:	3401      	adds	r4, #1
	for (; len != 0; --len) {
    1cc0:	42a5      	cmp	r5, r4
    1cc2:	d1f5      	bne.n	1cb0 <_write+0x1c>
    1cc4:	e006      	b.n	1cd4 <_write+0x40>
		return -1;
    1cc6:	2401      	movs	r4, #1
    1cc8:	4264      	negs	r4, r4
    1cca:	e003      	b.n	1cd4 <_write+0x40>
	for (; len != 0; --len) {
    1ccc:	0014      	movs	r4, r2
    1cce:	e001      	b.n	1cd4 <_write+0x40>
			return -1;
    1cd0:	2401      	movs	r4, #1
    1cd2:	4264      	negs	r4, r4
	}
	return nChars;
}
    1cd4:	0020      	movs	r0, r4
    1cd6:	bc04      	pop	{r2}
    1cd8:	4690      	mov	r8, r2
    1cda:	bdf0      	pop	{r4, r5, r6, r7, pc}
    1cdc:	200002cc 	.word	0x200002cc
    1ce0:	200002c8 	.word	0x200002c8

00001ce4 <_sbrk>:
extern void _exit(int status);
extern void _kill(int pid, int sig);
extern int _getpid(void);

extern caddr_t _sbrk(int incr)
{
    1ce4:	0003      	movs	r3, r0
	static unsigned char *heap = NULL;
	unsigned char *prev_heap;

	if (heap == NULL) {
    1ce6:	4a06      	ldr	r2, [pc, #24]	; (1d00 <_sbrk+0x1c>)
    1ce8:	6812      	ldr	r2, [r2, #0]
    1cea:	2a00      	cmp	r2, #0
    1cec:	d004      	beq.n	1cf8 <_sbrk+0x14>
		heap = (unsigned char *)&_end;
	}
	prev_heap = heap;
    1cee:	4a04      	ldr	r2, [pc, #16]	; (1d00 <_sbrk+0x1c>)
    1cf0:	6810      	ldr	r0, [r2, #0]

	heap += incr;
    1cf2:	18c3      	adds	r3, r0, r3
    1cf4:	6013      	str	r3, [r2, #0]

	return (caddr_t) prev_heap;
}
    1cf6:	4770      	bx	lr
		heap = (unsigned char *)&_end;
    1cf8:	4902      	ldr	r1, [pc, #8]	; (1d04 <_sbrk+0x20>)
    1cfa:	4a01      	ldr	r2, [pc, #4]	; (1d00 <_sbrk+0x1c>)
    1cfc:	6011      	str	r1, [r2, #0]
    1cfe:	e7f6      	b.n	1cee <_sbrk+0xa>
    1d00:	20000294 	.word	0x20000294
    1d04:	20002430 	.word	0x20002430

00001d08 <_close>:
}

extern int _close(int file)
{
	return -1;
}
    1d08:	2001      	movs	r0, #1
    1d0a:	4240      	negs	r0, r0
    1d0c:	4770      	bx	lr

00001d0e <_fstat>:

extern int _fstat(int file, struct stat *st)
{
	st->st_mode = S_IFCHR;
    1d0e:	2380      	movs	r3, #128	; 0x80
    1d10:	019b      	lsls	r3, r3, #6
    1d12:	604b      	str	r3, [r1, #4]

	return 0;
}
    1d14:	2000      	movs	r0, #0
    1d16:	4770      	bx	lr

00001d18 <_isatty>:

extern int _isatty(int file)
{
	return 1;
}
    1d18:	2001      	movs	r0, #1
    1d1a:	4770      	bx	lr

00001d1c <_lseek>:

extern int _lseek(int file, int ptr, int dir)
{
	return 0;
}
    1d1c:	2000      	movs	r0, #0
    1d1e:	4770      	bx	lr

00001d20 <usart_serial_getchar>:
 * \param[out]    c       Destination for the read character.
 */
static inline void usart_serial_getchar(
		struct usart_module *const module,
		uint8_t *c)
{
    1d20:	b570      	push	{r4, r5, r6, lr}
    1d22:	b082      	sub	sp, #8
    1d24:	0005      	movs	r5, r0
    1d26:	000e      	movs	r6, r1
	uint16_t temp = 0;
    1d28:	2200      	movs	r2, #0
    1d2a:	466b      	mov	r3, sp
    1d2c:	80da      	strh	r2, [r3, #6]

	while(STATUS_OK != usart_read_wait(module, &temp));
    1d2e:	4c06      	ldr	r4, [pc, #24]	; (1d48 <usart_serial_getchar+0x28>)
    1d30:	466b      	mov	r3, sp
    1d32:	1d99      	adds	r1, r3, #6
    1d34:	0028      	movs	r0, r5
    1d36:	47a0      	blx	r4
    1d38:	2800      	cmp	r0, #0
    1d3a:	d1f9      	bne.n	1d30 <usart_serial_getchar+0x10>

	*c = temp;
    1d3c:	466b      	mov	r3, sp
    1d3e:	3306      	adds	r3, #6
    1d40:	881b      	ldrh	r3, [r3, #0]
    1d42:	7033      	strb	r3, [r6, #0]
}
    1d44:	b002      	add	sp, #8
    1d46:	bd70      	pop	{r4, r5, r6, pc}
    1d48:	000011cf 	.word	0x000011cf

00001d4c <usart_serial_putchar>:
{
    1d4c:	b570      	push	{r4, r5, r6, lr}
    1d4e:	0005      	movs	r5, r0
	while(STATUS_OK !=usart_write_wait(module, c));
    1d50:	b28c      	uxth	r4, r1
    1d52:	4e03      	ldr	r6, [pc, #12]	; (1d60 <usart_serial_putchar+0x14>)
    1d54:	0021      	movs	r1, r4
    1d56:	0028      	movs	r0, r5
    1d58:	47b0      	blx	r6
    1d5a:	2800      	cmp	r0, #0
    1d5c:	d1fa      	bne.n	1d54 <usart_serial_putchar+0x8>
}
    1d5e:	bd70      	pop	{r4, r5, r6, pc}
    1d60:	000011a9 	.word	0x000011a9

00001d64 <configure_console>:
#include "config_usart.h"

void configure_console(void)
{
    1d64:	b570      	push	{r4, r5, r6, lr}
    1d66:	b090      	sub	sp, #64	; 0x40
{
	/* Sanity check arguments */
	Assert(config);

	/* Set default config in the config struct */
	config->data_order       = USART_DATAORDER_LSB;
    1d68:	2380      	movs	r3, #128	; 0x80
    1d6a:	05db      	lsls	r3, r3, #23
    1d6c:	9300      	str	r3, [sp, #0]
	config->transfer_mode    = USART_TRANSFER_ASYNCHRONOUSLY;
    1d6e:	2300      	movs	r3, #0
    1d70:	9301      	str	r3, [sp, #4]
	config->parity           = USART_PARITY_NONE;
    1d72:	22ff      	movs	r2, #255	; 0xff
    1d74:	4669      	mov	r1, sp
    1d76:	810a      	strh	r2, [r1, #8]
	config->stopbits         = USART_STOPBITS_1;
    1d78:	2200      	movs	r2, #0
    1d7a:	728b      	strb	r3, [r1, #10]
	config->character_size   = USART_CHARACTER_SIZE_8BIT;
    1d7c:	72cb      	strb	r3, [r1, #11]
	config->baudrate         = 9600;
    1d7e:	2196      	movs	r1, #150	; 0x96
    1d80:	0189      	lsls	r1, r1, #6
    1d82:	9108      	str	r1, [sp, #32]
	config->receiver_enable  = true;
    1d84:	2101      	movs	r1, #1
    1d86:	2024      	movs	r0, #36	; 0x24
    1d88:	466c      	mov	r4, sp
    1d8a:	5421      	strb	r1, [r4, r0]
	config->transmitter_enable = true;
    1d8c:	3001      	adds	r0, #1
    1d8e:	5421      	strb	r1, [r4, r0]
	config->clock_polarity_inverted = false;
    1d90:	3125      	adds	r1, #37	; 0x25
    1d92:	5463      	strb	r3, [r4, r1]
	config->use_external_clock = false;
    1d94:	3101      	adds	r1, #1
    1d96:	5463      	strb	r3, [r4, r1]
	config->ext_clock_freq   = 0;
    1d98:	930a      	str	r3, [sp, #40]	; 0x28
	config->mux_setting      = USART_RX_1_TX_2_XCK_3;
	config->run_in_standby   = false;
    1d9a:	3105      	adds	r1, #5
    1d9c:	5463      	strb	r3, [r4, r1]
	config->generator_source = GCLK_GENERATOR_0;
    1d9e:	3101      	adds	r1, #1
    1da0:	5463      	strb	r3, [r4, r1]
	config->pinmux_pad0      = PINMUX_DEFAULT;
	config->pinmux_pad1      = PINMUX_DEFAULT;
	config->pinmux_pad2      = PINMUX_DEFAULT;
	config->pinmux_pad3      = PINMUX_DEFAULT;
#ifdef FEATURE_USART_OVER_SAMPLE
	config->sample_adjustment     = USART_SAMPLE_ADJUSTMENT_7_8_9;
    1da2:	9305      	str	r3, [sp, #20]
	config->sample_rate           = USART_SAMPLE_RATE_16X_ARITHMETIC;
    1da4:	8223      	strh	r3, [r4, #16]
#endif
#ifdef FEATURE_USART_LIN_SLAVE
	config->lin_slave_enable      = false;
    1da6:	76e3      	strb	r3, [r4, #27]
	config->lin_header_delay = LIN_MASTER_HEADER_DELAY_0;
	config->lin_break_length = LIN_MASTER_BREAK_LENGTH_13_BIT;
#endif

#ifdef FEATURE_USART_IMMEDIATE_BUFFER_OVERFLOW_NOTIFICATION
	config->immediate_buffer_overflow_notification  = false;
    1da8:	7622      	strb	r2, [r4, #24]
#endif
#ifdef FEATURE_USART_START_FRAME_DECTION
	config->start_frame_detection_enable            = false;
    1daa:	7722      	strb	r2, [r4, #28]
#endif
#ifdef FEATURE_USART_IRDA
	config->encoding_format_enable                  = false;
    1dac:	7662      	strb	r2, [r4, #25]
	config->receive_pulse_length                    = 19;
    1dae:	2313      	movs	r3, #19
    1db0:	76a3      	strb	r3, [r4, #26]
	config->iso7816_config.inhibit_nack             = ISO7816_INHIBIT_NACK_DISABLE;
	config->iso7816_config.successive_recv_nack     = ISO7816_SUCCESSIVE_RECV_NACK_DISABLE;
	config->iso7816_config.max_iterations           = 7;
#endif
#ifdef FEATURE_USART_COLLISION_DECTION
	config->collision_detection_enable              = false;
    1db2:	7762      	strb	r2, [r4, #29]
	struct usart_config config_usart;
	usart_get_config_defaults(&config_usart);

	config_usart.baudrate    = SERCOMBAUD;
	config_usart.mux_setting = SERCOMMUX;
    1db4:	2380      	movs	r3, #128	; 0x80
    1db6:	035b      	lsls	r3, r3, #13
    1db8:	9303      	str	r3, [sp, #12]
	config_usart.pinmux_pad0 = SERCOMPAD0;
    1dba:	4b1e      	ldr	r3, [pc, #120]	; (1e34 <configure_console+0xd0>)
    1dbc:	930c      	str	r3, [sp, #48]	; 0x30
	config_usart.pinmux_pad1 = SERCOMPAD1;
    1dbe:	4b1e      	ldr	r3, [pc, #120]	; (1e38 <configure_console+0xd4>)
    1dc0:	930d      	str	r3, [sp, #52]	; 0x34
	config_usart.pinmux_pad2 = SERCOMPAD2;
    1dc2:	2301      	movs	r3, #1
    1dc4:	425b      	negs	r3, r3
    1dc6:	930e      	str	r3, [sp, #56]	; 0x38
	config_usart.pinmux_pad3 = SERCOMPAD3;
    1dc8:	930f      	str	r3, [sp, #60]	; 0x3c

	while (usart_init(&usart_instance,	 SERCOMMODULE, &config_usart) != STATUS_OK) { }
    1dca:	4d1c      	ldr	r5, [pc, #112]	; (1e3c <configure_console+0xd8>)
    1dcc:	4c1c      	ldr	r4, [pc, #112]	; (1e40 <configure_console+0xdc>)
    1dce:	466a      	mov	r2, sp
    1dd0:	491c      	ldr	r1, [pc, #112]	; (1e44 <configure_console+0xe0>)
    1dd2:	0028      	movs	r0, r5
    1dd4:	47a0      	blx	r4
    1dd6:	2800      	cmp	r0, #0
    1dd8:	d1f9      	bne.n	1dce <configure_console+0x6a>
static inline void stdio_serial_init(
		struct usart_module *const module,
		usart_inst_t const hw,
		const struct usart_config *const config)
{
	stdio_base = (void *)module;
    1dda:	4c18      	ldr	r4, [pc, #96]	; (1e3c <configure_console+0xd8>)
    1ddc:	4b1a      	ldr	r3, [pc, #104]	; (1e48 <configure_console+0xe4>)
    1dde:	601c      	str	r4, [r3, #0]
	ptr_put = (int (*)(void volatile*,char))&usart_serial_putchar;
    1de0:	4a1a      	ldr	r2, [pc, #104]	; (1e4c <configure_console+0xe8>)
    1de2:	4b1b      	ldr	r3, [pc, #108]	; (1e50 <configure_console+0xec>)
    1de4:	601a      	str	r2, [r3, #0]
	ptr_get = (void (*)(void volatile*,char*))&usart_serial_getchar;
    1de6:	4a1b      	ldr	r2, [pc, #108]	; (1e54 <configure_console+0xf0>)
    1de8:	4b1b      	ldr	r3, [pc, #108]	; (1e58 <configure_console+0xf4>)
    1dea:	601a      	str	r2, [r3, #0]
	if (usart_init(module, hw, config) == STATUS_OK) {
    1dec:	466a      	mov	r2, sp
    1dee:	4915      	ldr	r1, [pc, #84]	; (1e44 <configure_console+0xe0>)
    1df0:	0020      	movs	r0, r4
    1df2:	4b13      	ldr	r3, [pc, #76]	; (1e40 <configure_console+0xdc>)
    1df4:	4798      	blx	r3

	usart_serial_init(module, hw, config);
# if defined(__GNUC__)
	// Specify that stdout and stdin should not be buffered.
	setbuf(stdout, NULL);
    1df6:	4e19      	ldr	r6, [pc, #100]	; (1e5c <configure_console+0xf8>)
    1df8:	6833      	ldr	r3, [r6, #0]
    1dfa:	6898      	ldr	r0, [r3, #8]
    1dfc:	2100      	movs	r1, #0
    1dfe:	4d18      	ldr	r5, [pc, #96]	; (1e60 <configure_console+0xfc>)
    1e00:	47a8      	blx	r5
	setbuf(stdin, NULL);
    1e02:	6833      	ldr	r3, [r6, #0]
    1e04:	6858      	ldr	r0, [r3, #4]
    1e06:	2100      	movs	r1, #0
    1e08:	47a8      	blx	r5
	/* Sanity check arguments */
	Assert(module);
	Assert(module->hw);

	/* Get a pointer to the hardware module instance */
	SercomUsart *const usart_hw = &(module->hw->USART);
    1e0a:	6825      	ldr	r5, [r4, #0]

#if USART_CALLBACK_MODE == true
	/* Enable Global interrupt for module */
	system_interrupt_enable(_sercom_get_interrupt_vector(module->hw));
    1e0c:	0028      	movs	r0, r5
    1e0e:	4b15      	ldr	r3, [pc, #84]	; (1e64 <configure_console+0x100>)
    1e10:	4798      	blx	r3
 * \param[in] vector Interrupt vector to enable
 */
static inline void system_interrupt_enable(
		const enum system_interrupt_vector vector)
{
	NVIC->ISER[0] = (uint32_t)(1 << ((uint32_t)vector & 0x0000001f));
    1e12:	231f      	movs	r3, #31
    1e14:	4018      	ands	r0, r3
    1e16:	3b1e      	subs	r3, #30
    1e18:	4083      	lsls	r3, r0
    1e1a:	4a13      	ldr	r2, [pc, #76]	; (1e68 <configure_console+0x104>)
    1e1c:	6013      	str	r3, [r2, #0]
	SercomUsart *const usart_hw = &(module->hw->USART);
    1e1e:	6822      	ldr	r2, [r4, #0]
	return (usart_hw->SYNCBUSY.reg);
    1e20:	69d3      	ldr	r3, [r2, #28]
	while (usart_is_syncing(module)) {
    1e22:	2b00      	cmp	r3, #0
    1e24:	d1fc      	bne.n	1e20 <configure_console+0xbc>

	/* Wait until synchronization is complete */
	_usart_wait_for_sync(module);

	/* Enable USART module */
	usart_hw->CTRLA.reg |= SERCOM_USART_CTRLA_ENABLE;
    1e26:	682b      	ldr	r3, [r5, #0]
    1e28:	2202      	movs	r2, #2
    1e2a:	4313      	orrs	r3, r2
    1e2c:	602b      	str	r3, [r5, #0]

	stdio_serial_init(&usart_instance, SERCOMMODULE, &config_usart);
	usart_enable(&usart_instance);
}
    1e2e:	b010      	add	sp, #64	; 0x40
    1e30:	bd70      	pop	{r4, r5, r6, pc}
    1e32:	46c0      	nop			; (mov r8, r8)
    1e34:	00080003 	.word	0x00080003
    1e38:	00090003 	.word	0x00090003
    1e3c:	200002d0 	.word	0x200002d0
    1e40:	00000e6d 	.word	0x00000e6d
    1e44:	42001000 	.word	0x42001000
    1e48:	200002cc 	.word	0x200002cc
    1e4c:	00001d4d 	.word	0x00001d4d
    1e50:	200002c8 	.word	0x200002c8
    1e54:	00001d21 	.word	0x00001d21
    1e58:	200002c4 	.word	0x200002c4
    1e5c:	20000158 	.word	0x20000158
    1e60:	00003435 	.word	0x00003435
    1e64:	00000ddd 	.word	0x00000ddd
    1e68:	e000e100 	.word	0xe000e100

00001e6c <drawChar>:
uint16_t xCharPos = 0;
uint16_t yCharPos = 0;


void drawChar(uint8_t character)
{
    1e6c:	b5f0      	push	{r4, r5, r6, r7, lr}
    1e6e:	46d6      	mov	lr, sl
    1e70:	464f      	mov	r7, r9
    1e72:	4646      	mov	r6, r8
    1e74:	b5c0      	push	{r6, r7, lr}
    1e76:	0004      	movs	r4, r0
	uint16_t x = xCharPos;
    1e78:	4b27      	ldr	r3, [pc, #156]	; (1f18 <drawChar+0xac>)
    1e7a:	8818      	ldrh	r0, [r3, #0]
	uint16_t y = yCharPos;
    1e7c:	4b27      	ldr	r3, [pc, #156]	; (1f1c <drawChar+0xb0>)
    1e7e:	881b      	ldrh	r3, [r3, #0]
	REG_PORT_OUTCLR1 = LCD_CS;
    1e80:	2180      	movs	r1, #128	; 0x80
    1e82:	03c9      	lsls	r1, r1, #15
    1e84:	4a26      	ldr	r2, [pc, #152]	; (1f20 <drawChar+0xb4>)
    1e86:	6011      	str	r1, [r2, #0]
	setXY(x*10,y*20,x*10+9,y*20+19);
    1e88:	0082      	lsls	r2, r0, #2
    1e8a:	1880      	adds	r0, r0, r2
    1e8c:	0040      	lsls	r0, r0, #1
    1e8e:	b280      	uxth	r0, r0
    1e90:	2114      	movs	r1, #20
    1e92:	4359      	muls	r1, r3
    1e94:	b289      	uxth	r1, r1
    1e96:	000b      	movs	r3, r1
    1e98:	3313      	adds	r3, #19
    1e9a:	b29b      	uxth	r3, r3
    1e9c:	0002      	movs	r2, r0
    1e9e:	3209      	adds	r2, #9
    1ea0:	b292      	uxth	r2, r2
    1ea2:	4d20      	ldr	r5, [pc, #128]	; (1f24 <drawChar+0xb8>)
    1ea4:	47a8      	blx	r5
    1ea6:	4a20      	ldr	r2, [pc, #128]	; (1f28 <drawChar+0xbc>)
    1ea8:	00a5      	lsls	r5, r4, #2
    1eaa:	192d      	adds	r5, r5, r4
    1eac:	00ab      	lsls	r3, r5, #2
    1eae:	18ed      	adds	r5, r5, r3
    1eb0:	1955      	adds	r5, r2, r5
    1eb2:	3401      	adds	r4, #1
    1eb4:	00a3      	lsls	r3, r4, #2
    1eb6:	191b      	adds	r3, r3, r4
    1eb8:	0099      	lsls	r1, r3, #2
    1eba:	185b      	adds	r3, r3, r1
    1ebc:	4692      	mov	sl, r2
    1ebe:	449a      	add	sl, r3
			{
				setPixel((fore_Color_High<<8)|fore_Color_Low);
			}
			else
			{
				setPixel((back_Color_High<<8)|back_Color_Low);
    1ec0:	4b1a      	ldr	r3, [pc, #104]	; (1f2c <drawChar+0xc0>)
    1ec2:	4699      	mov	r9, r3
    1ec4:	4b1a      	ldr	r3, [pc, #104]	; (1f30 <drawChar+0xc4>)
    1ec6:	4698      	mov	r8, r3
    1ec8:	4f1a      	ldr	r7, [pc, #104]	; (1f34 <drawChar+0xc8>)
				setPixel((fore_Color_High<<8)|fore_Color_Low);
    1eca:	4e1b      	ldr	r6, [pc, #108]	; (1f38 <drawChar+0xcc>)
    1ecc:	e019      	b.n	1f02 <drawChar+0x96>
				setPixel((back_Color_High<<8)|back_Color_Low);
    1ece:	464b      	mov	r3, r9
    1ed0:	8818      	ldrh	r0, [r3, #0]
    1ed2:	0200      	lsls	r0, r0, #8
    1ed4:	4643      	mov	r3, r8
    1ed6:	881b      	ldrh	r3, [r3, #0]
    1ed8:	4318      	orrs	r0, r3
    1eda:	b280      	uxth	r0, r0
    1edc:	47b8      	blx	r7
		for(int j=0;j<8;j++)
    1ede:	3c01      	subs	r4, #1
    1ee0:	d30c      	bcc.n	1efc <drawChar+0x90>
			if((CodePage437[character][i]&(1<<(7-j)))!=0)
    1ee2:	782b      	ldrb	r3, [r5, #0]
    1ee4:	4123      	asrs	r3, r4
    1ee6:	07db      	lsls	r3, r3, #31
    1ee8:	d5f1      	bpl.n	1ece <drawChar+0x62>
				setPixel((fore_Color_High<<8)|fore_Color_Low);
    1eea:	8830      	ldrh	r0, [r6, #0]
    1eec:	0200      	lsls	r0, r0, #8
    1eee:	4b13      	ldr	r3, [pc, #76]	; (1f3c <drawChar+0xd0>)
    1ef0:	881b      	ldrh	r3, [r3, #0]
    1ef2:	4318      	orrs	r0, r3
    1ef4:	b280      	uxth	r0, r0
    1ef6:	4b0f      	ldr	r3, [pc, #60]	; (1f34 <drawChar+0xc8>)
    1ef8:	4798      	blx	r3
    1efa:	e7f0      	b.n	1ede <drawChar+0x72>
    1efc:	3501      	adds	r5, #1
	for(uint16_t i=0; i <= 24; i++)
    1efe:	4555      	cmp	r5, sl
    1f00:	d001      	beq.n	1f06 <drawChar+0x9a>
{
    1f02:	2407      	movs	r4, #7
    1f04:	e7ed      	b.n	1ee2 <drawChar+0x76>
			}

		}
	}
	REG_PORT_OUTSET1 = LCD_CS;
    1f06:	2280      	movs	r2, #128	; 0x80
    1f08:	03d2      	lsls	r2, r2, #15
    1f0a:	4b0d      	ldr	r3, [pc, #52]	; (1f40 <drawChar+0xd4>)
    1f0c:	601a      	str	r2, [r3, #0]

}
    1f0e:	bc1c      	pop	{r2, r3, r4}
    1f10:	4690      	mov	r8, r2
    1f12:	4699      	mov	r9, r3
    1f14:	46a2      	mov	sl, r4
    1f16:	bdf0      	pop	{r4, r5, r6, r7, pc}
    1f18:	20000298 	.word	0x20000298
    1f1c:	2000029a 	.word	0x2000029a
    1f20:	41004494 	.word	0x41004494
    1f24:	00002979 	.word	0x00002979
    1f28:	00004a28 	.word	0x00004a28
    1f2c:	200003d6 	.word	0x200003d6
    1f30:	200003d0 	.word	0x200003d0
    1f34:	00002b49 	.word	0x00002b49
    1f38:	200003d2 	.word	0x200003d2
    1f3c:	200003d4 	.word	0x200003d4
    1f40:	41004498 	.word	0x41004498

00001f44 <newLine>:

void newLine(void)
{
    1f44:	b5f0      	push	{r4, r5, r6, r7, lr}
    1f46:	46de      	mov	lr, fp
    1f48:	4657      	mov	r7, sl
    1f4a:	464e      	mov	r6, r9
    1f4c:	4645      	mov	r5, r8
    1f4e:	b5e0      	push	{r5, r6, r7, lr}
    1f50:	4c49      	ldr	r4, [pc, #292]	; (2078 <STACK_SIZE+0x78>)
    1f52:	44a5      	add	sp, r4
	460 times, for each line in the display.
	*/
	
	uint8_t rowPixel[800];
		
	for(uint16_t row = 0 ; row < 460 ; row++)
    1f54:	2300      	movs	r3, #0
    1f56:	9300      	str	r3, [sp, #0]
	{
		//Per page 40 of datasheet (5.1.2.7, 16-bit
		//parallel interface for data ram read.
		REG_PORT_OUTCLR1 = LCD_CS;
    1f58:	4b48      	ldr	r3, [pc, #288]	; (207c <STACK_SIZE+0x7c>)
    1f5a:	4698      	mov	r8, r3
		setXY(0, row+20, 799, row+20);
		//Send'Memory read' command 0x2E00, no data bit
		LCD_Write_COM16(0x2E,0x00);
		REG_PORT_OUTSET1 = LCD_DC;
    1f5c:	4f48      	ldr	r7, [pc, #288]	; (2080 <STACK_SIZE+0x80>)
		
		
		//Read pixel data into the display	
		for(uint16_t getpixel = 0 ; getpixel < 800 ; getpixel++)
		{
			REG_PORT_OUTCLR1 = LCD_RD;
    1f5e:	2680      	movs	r6, #128	; 0x80
    1f60:	0276      	lsls	r6, r6, #9
    1f62:	e046      	b.n	1ff2 <newLine+0xae>
			//This can be expanded with else if for the MSBs
			//of all the colors; see datasheet page 40.
			if((PORT->Group[1].IN.reg & PORT_PB07) != 0)
				rowPixel[getpixel] = 0xFF;
			else
				rowPixel[getpixel] = 0x00;
    1f64:	4653      	mov	r3, sl
    1f66:	7023      	strb	r3, [r4, #0]
			//dummy read, because pixel data broken up
			//per datasheet page 40. Everything after
			//the dummy write is BLUE pixels. Do we ever
			//need blue? IDK.
			
			REG_PORT_OUTCLR1 = LCD_RD;
    1f68:	4643      	mov	r3, r8
    1f6a:	601e      	str	r6, [r3, #0]
			REG_PORT_OUTSET1 = LCD_RD;
    1f6c:	603e      	str	r6, [r7, #0]
    1f6e:	3401      	adds	r4, #1
		for(uint16_t getpixel = 0 ; getpixel < 800 ; getpixel++)
    1f70:	4564      	cmp	r4, ip
    1f72:	d008      	beq.n	1f86 <newLine+0x42>
			REG_PORT_OUTCLR1 = LCD_RD;
    1f74:	4643      	mov	r3, r8
    1f76:	601e      	str	r6, [r3, #0]
			REG_PORT_OUTSET1 = LCD_RD;
    1f78:	603e      	str	r6, [r7, #0]
			if((PORT->Group[1].IN.reg & PORT_PB07) != 0)
    1f7a:	5843      	ldr	r3, [r0, r1]
    1f7c:	421a      	tst	r2, r3
    1f7e:	d0f1      	beq.n	1f64 <newLine+0x20>
				rowPixel[getpixel] = 0xFF;
    1f80:	464b      	mov	r3, r9
    1f82:	7023      	strb	r3, [r4, #0]
    1f84:	e7f0      	b.n	1f68 <newLine+0x24>
    1f86:	9401      	str	r4, [sp, #4]
		}
		
		REG_PORT_OUTSET1 = LCD_DC;
    1f88:	2380      	movs	r3, #128	; 0x80
    1f8a:	041b      	lsls	r3, r3, #16
    1f8c:	603b      	str	r3, [r7, #0]
		REG_PORT_DIRSET1 = 0x0000FFFF;
    1f8e:	4a3d      	ldr	r2, [pc, #244]	; (2084 <STACK_SIZE+0x84>)
    1f90:	4b3d      	ldr	r3, [pc, #244]	; (2088 <STACK_SIZE+0x88>)
    1f92:	601a      	str	r2, [r3, #0]
		
		//now, read out that line of the display
		setXY(0, row, 799, row);	
    1f94:	9900      	ldr	r1, [sp, #0]
    1f96:	000b      	movs	r3, r1
    1f98:	4a3c      	ldr	r2, [pc, #240]	; (208c <STACK_SIZE+0x8c>)
    1f9a:	2000      	movs	r0, #0
    1f9c:	4c3c      	ldr	r4, [pc, #240]	; (2090 <STACK_SIZE+0x90>)
    1f9e:	47a0      	blx	r4
		for(uint16_t writepixel = 0 ; writepixel < 800 ; writepixel++)
		{
			if((rowPixel[writepixel] == 0xFF))
				setPixel((fore_Color_High<<8)|fore_Color_Low);
			else
				setPixel((back_Color_High<<8)|back_Color_Low);
    1fa0:	4b3c      	ldr	r3, [pc, #240]	; (2094 <STACK_SIZE+0x94>)
    1fa2:	469b      	mov	fp, r3
    1fa4:	4b3c      	ldr	r3, [pc, #240]	; (2098 <STACK_SIZE+0x98>)
    1fa6:	469a      	mov	sl, r3
    1fa8:	4b3c      	ldr	r3, [pc, #240]	; (209c <STACK_SIZE+0x9c>)
    1faa:	4699      	mov	r9, r3
    1fac:	9c01      	ldr	r4, [sp, #4]
    1fae:	e00b      	b.n	1fc8 <newLine+0x84>
				setPixel((fore_Color_High<<8)|fore_Color_Low);
    1fb0:	4b3b      	ldr	r3, [pc, #236]	; (20a0 <STACK_SIZE+0xa0>)
    1fb2:	8818      	ldrh	r0, [r3, #0]
    1fb4:	0200      	lsls	r0, r0, #8
    1fb6:	4b3b      	ldr	r3, [pc, #236]	; (20a4 <STACK_SIZE+0xa4>)
    1fb8:	881b      	ldrh	r3, [r3, #0]
    1fba:	4318      	orrs	r0, r3
    1fbc:	b280      	uxth	r0, r0
    1fbe:	4b37      	ldr	r3, [pc, #220]	; (209c <STACK_SIZE+0x9c>)
    1fc0:	4798      	blx	r3
    1fc2:	3501      	adds	r5, #1
		for(uint16_t writepixel = 0 ; writepixel < 800 ; writepixel++)
    1fc4:	42ac      	cmp	r4, r5
    1fc6:	d00b      	beq.n	1fe0 <newLine+0x9c>
			if((rowPixel[writepixel] == 0xFF))
    1fc8:	782b      	ldrb	r3, [r5, #0]
    1fca:	2bff      	cmp	r3, #255	; 0xff
    1fcc:	d0f0      	beq.n	1fb0 <newLine+0x6c>
				setPixel((back_Color_High<<8)|back_Color_Low);
    1fce:	465b      	mov	r3, fp
    1fd0:	8818      	ldrh	r0, [r3, #0]
    1fd2:	0200      	lsls	r0, r0, #8
    1fd4:	4653      	mov	r3, sl
    1fd6:	881b      	ldrh	r3, [r3, #0]
    1fd8:	4318      	orrs	r0, r3
    1fda:	b280      	uxth	r0, r0
    1fdc:	47c8      	blx	r9
    1fde:	e7f0      	b.n	1fc2 <newLine+0x7e>
	for(uint16_t row = 0 ; row < 460 ; row++)
    1fe0:	9b00      	ldr	r3, [sp, #0]
    1fe2:	3301      	adds	r3, #1
    1fe4:	b29b      	uxth	r3, r3
    1fe6:	001a      	movs	r2, r3
    1fe8:	9300      	str	r3, [sp, #0]
    1fea:	23e6      	movs	r3, #230	; 0xe6
    1fec:	005b      	lsls	r3, r3, #1
    1fee:	429a      	cmp	r2, r3
    1ff0:	d031      	beq.n	2056 <STACK_SIZE+0x56>
		REG_PORT_OUTCLR1 = LCD_CS;
    1ff2:	4643      	mov	r3, r8
    1ff4:	2280      	movs	r2, #128	; 0x80
    1ff6:	03d2      	lsls	r2, r2, #15
    1ff8:	601a      	str	r2, [r3, #0]
		setXY(0, row+20, 799, row+20);
    1ffa:	9900      	ldr	r1, [sp, #0]
    1ffc:	3114      	adds	r1, #20
    1ffe:	b289      	uxth	r1, r1
    2000:	000b      	movs	r3, r1
    2002:	4a22      	ldr	r2, [pc, #136]	; (208c <STACK_SIZE+0x8c>)
    2004:	2000      	movs	r0, #0
    2006:	4c22      	ldr	r4, [pc, #136]	; (2090 <STACK_SIZE+0x90>)
    2008:	47a0      	blx	r4
		LCD_Write_COM16(0x2E,0x00);
    200a:	2100      	movs	r1, #0
    200c:	202e      	movs	r0, #46	; 0x2e
    200e:	4b26      	ldr	r3, [pc, #152]	; (20a8 <STACK_SIZE+0xa8>)
    2010:	4798      	blx	r3
		REG_PORT_OUTSET1 = LCD_DC;
    2012:	2380      	movs	r3, #128	; 0x80
    2014:	041b      	lsls	r3, r3, #16
    2016:	603b      	str	r3, [r7, #0]
		REG_PORT_OUTCLR1 = LCD_RD;
    2018:	4643      	mov	r3, r8
    201a:	2280      	movs	r2, #128	; 0x80
    201c:	0252      	lsls	r2, r2, #9
    201e:	601a      	str	r2, [r3, #0]
		REG_PORT_OUTSET1 = LCD_RD;
    2020:	603a      	str	r2, [r7, #0]
		REG_PORT_DIRCLR1 = PORT_PB07;
    2022:	2280      	movs	r2, #128	; 0x80
    2024:	4b21      	ldr	r3, [pc, #132]	; (20ac <STACK_SIZE+0xac>)
    2026:	601a      	str	r2, [r3, #0]
		PORT->Group[1].PINCFG[7].bit.INEN = 1;
    2028:	4a21      	ldr	r2, [pc, #132]	; (20b0 <STACK_SIZE+0xb0>)
    202a:	23c7      	movs	r3, #199	; 0xc7
    202c:	5cd1      	ldrb	r1, [r2, r3]
    202e:	2002      	movs	r0, #2
    2030:	4301      	orrs	r1, r0
    2032:	54d1      	strb	r1, [r2, r3]
		PORT->Group[1].PINCFG[7].bit.PULLEN = 1;
    2034:	5cd1      	ldrb	r1, [r2, r3]
    2036:	2004      	movs	r0, #4
    2038:	4301      	orrs	r1, r0
    203a:	54d1      	strb	r1, [r2, r3]
    203c:	ad02      	add	r5, sp, #8
    203e:	abca      	add	r3, sp, #808	; 0x328
    2040:	469c      	mov	ip, r3
    2042:	9501      	str	r5, [sp, #4]
			if((PORT->Group[1].IN.reg & PORT_PB07) != 0)
    2044:	0010      	movs	r0, r2
    2046:	21a0      	movs	r1, #160	; 0xa0
    2048:	2280      	movs	r2, #128	; 0x80
				rowPixel[getpixel] = 0x00;
    204a:	2300      	movs	r3, #0
    204c:	469a      	mov	sl, r3
				rowPixel[getpixel] = 0xFF;
    204e:	33ff      	adds	r3, #255	; 0xff
    2050:	4699      	mov	r9, r3
    2052:	002c      	movs	r4, r5
    2054:	e78e      	b.n	1f74 <newLine+0x30>
		}
	}
	
	//finally, clear the last character line of the display
	//and fix the console text buffer
	fillRectBackColor(0, 460, 799, 480);
    2056:	3314      	adds	r3, #20
    2058:	4a0c      	ldr	r2, [pc, #48]	; (208c <STACK_SIZE+0x8c>)
    205a:	21e6      	movs	r1, #230	; 0xe6
    205c:	0049      	lsls	r1, r1, #1
    205e:	2000      	movs	r0, #0
    2060:	4c14      	ldr	r4, [pc, #80]	; (20b4 <STACK_SIZE+0xb4>)
    2062:	47a0      	blx	r4

}
    2064:	23cb      	movs	r3, #203	; 0xcb
    2066:	009b      	lsls	r3, r3, #2
    2068:	449d      	add	sp, r3
    206a:	bc3c      	pop	{r2, r3, r4, r5}
    206c:	4690      	mov	r8, r2
    206e:	4699      	mov	r9, r3
    2070:	46a2      	mov	sl, r4
    2072:	46ab      	mov	fp, r5
    2074:	bdf0      	pop	{r4, r5, r6, r7, pc}
    2076:	46c0      	nop			; (mov r8, r8)
    2078:	fffffcd4 	.word	0xfffffcd4
    207c:	41004494 	.word	0x41004494
    2080:	41004498 	.word	0x41004498
    2084:	0000ffff 	.word	0x0000ffff
    2088:	41004488 	.word	0x41004488
    208c:	0000031f 	.word	0x0000031f
    2090:	00002979 	.word	0x00002979
    2094:	200003d6 	.word	0x200003d6
    2098:	200003d0 	.word	0x200003d0
    209c:	00002b49 	.word	0x00002b49
    20a0:	200003d2 	.word	0x200003d2
    20a4:	200003d4 	.word	0x200003d4
    20a8:	00002bb5 	.word	0x00002bb5
    20ac:	41004484 	.word	0x41004484
    20b0:	41004400 	.word	0x41004400
    20b4:	00002a81 	.word	0x00002a81

000020b8 <writeString>:

void writeString(char str[])
{
    20b8:	b5f0      	push	{r4, r5, r6, r7, lr}
    20ba:	46c6      	mov	lr, r8
    20bc:	b500      	push	{lr}
    20be:	0005      	movs	r5, r0
	int length = strlen(str);
    20c0:	4b0c      	ldr	r3, [pc, #48]	; (20f4 <writeString+0x3c>)
    20c2:	4798      	blx	r3
	for(int i = 0; i < length; i++)
    20c4:	2800      	cmp	r0, #0
    20c6:	dd11      	ble.n	20ec <writeString+0x34>
    20c8:	002c      	movs	r4, r5
    20ca:	182d      	adds	r5, r5, r0
	{
		drawChar(str[i]);
    20cc:	4f0a      	ldr	r7, [pc, #40]	; (20f8 <writeString+0x40>)
		if(xCharPos <= 80)
    20ce:	4e0b      	ldr	r6, [pc, #44]	; (20fc <writeString+0x44>)
		xCharPos++;
    20d0:	46b0      	mov	r8, r6
    20d2:	e002      	b.n	20da <writeString+0x22>
    20d4:	3401      	adds	r4, #1
	for(int i = 0; i < length; i++)
    20d6:	42ac      	cmp	r4, r5
    20d8:	d008      	beq.n	20ec <writeString+0x34>
		drawChar(str[i]);
    20da:	7820      	ldrb	r0, [r4, #0]
    20dc:	47b8      	blx	r7
		if(xCharPos <= 80)
    20de:	8833      	ldrh	r3, [r6, #0]
    20e0:	2b50      	cmp	r3, #80	; 0x50
    20e2:	d8f7      	bhi.n	20d4 <writeString+0x1c>
		xCharPos++;
    20e4:	3301      	adds	r3, #1
    20e6:	4642      	mov	r2, r8
    20e8:	8013      	strh	r3, [r2, #0]
    20ea:	e7f3      	b.n	20d4 <writeString+0x1c>
	}
    20ec:	bc04      	pop	{r2}
    20ee:	4690      	mov	r8, r2
    20f0:	bdf0      	pop	{r4, r5, r6, r7, pc}
    20f2:	46c0      	nop			; (mov r8, r8)
    20f4:	000035a1 	.word	0x000035a1
    20f8:	00001e6d 	.word	0x00001e6d
    20fc:	20000298 	.word	0x20000298

00002100 <scanCodesContains>:

bool scanCodesContains(int scanCode)
{
	for(int i = 0 ; i < 70 ; i++)
	{
		if(scanCodes[i] == scanCode)
    2100:	4b09      	ldr	r3, [pc, #36]	; (2128 <scanCodesContains+0x28>)
    2102:	681b      	ldr	r3, [r3, #0]
    2104:	4298      	cmp	r0, r3
    2106:	d00b      	beq.n	2120 <scanCodesContains+0x20>
    2108:	4a07      	ldr	r2, [pc, #28]	; (2128 <scanCodesContains+0x28>)
    210a:	1d13      	adds	r3, r2, #4
    210c:	3219      	adds	r2, #25
    210e:	32ff      	adds	r2, #255	; 0xff
    2110:	6819      	ldr	r1, [r3, #0]
    2112:	4281      	cmp	r1, r0
    2114:	d006      	beq.n	2124 <scanCodesContains+0x24>
    2116:	3304      	adds	r3, #4
	for(int i = 0 ; i < 70 ; i++)
    2118:	4293      	cmp	r3, r2
    211a:	d1f9      	bne.n	2110 <scanCodesContains+0x10>
		{
			return true;
		}
	}
	return false;
    211c:	2000      	movs	r0, #0
    211e:	e002      	b.n	2126 <scanCodesContains+0x26>
			return true;
    2120:	2001      	movs	r0, #1
    2122:	e000      	b.n	2126 <scanCodesContains+0x26>
    2124:	2001      	movs	r0, #1
}
    2126:	4770      	bx	lr
    2128:	2000003c 	.word	0x2000003c

0000212c <keyDown>:

bool keyDown(int scancode)
{
	for(int i = 0 ; i < 20 ; i++)
	{
		if(keyDownBuffer[i] == scancode)
    212c:	4b09      	ldr	r3, [pc, #36]	; (2154 <keyDown+0x28>)
    212e:	781b      	ldrb	r3, [r3, #0]
    2130:	4298      	cmp	r0, r3
    2132:	d00a      	beq.n	214a <keyDown+0x1e>
    2134:	4907      	ldr	r1, [pc, #28]	; (2154 <keyDown+0x28>)
    2136:	1c4b      	adds	r3, r1, #1
    2138:	3114      	adds	r1, #20
    213a:	781a      	ldrb	r2, [r3, #0]
    213c:	4282      	cmp	r2, r0
    213e:	d006      	beq.n	214e <keyDown+0x22>
    2140:	3301      	adds	r3, #1
	for(int i = 0 ; i < 20 ; i++)
    2142:	428b      	cmp	r3, r1
    2144:	d1f9      	bne.n	213a <keyDown+0xe>
		{
			return true;
		}	
	}
	return false;
    2146:	2000      	movs	r0, #0
}
    2148:	4770      	bx	lr
			return true;
    214a:	2001      	movs	r0, #1
    214c:	e7fc      	b.n	2148 <keyDown+0x1c>
    214e:	2001      	movs	r0, #1
    2150:	e7fa      	b.n	2148 <keyDown+0x1c>
    2152:	46c0      	nop			; (mov r8, r8)
    2154:	20000014 	.word	0x20000014

00002158 <removeFromKeyDown>:

void removeFromKeyDown(int scancode)
{
    2158:	b510      	push	{r4, lr}
    215a:	4b07      	ldr	r3, [pc, #28]	; (2178 <removeFromKeyDown+0x20>)
    215c:	0019      	movs	r1, r3
    215e:	3114      	adds	r1, #20
	for(int i = 0 ; i < 20 ; i++)
	{
		if(keyDownBuffer[i] == scancode)
		{
			keyDownBuffer[i] = 0xFF;
    2160:	24ff      	movs	r4, #255	; 0xff
    2162:	e002      	b.n	216a <removeFromKeyDown+0x12>
    2164:	3301      	adds	r3, #1
	for(int i = 0 ; i < 20 ; i++)
    2166:	428b      	cmp	r3, r1
    2168:	d004      	beq.n	2174 <removeFromKeyDown+0x1c>
		if(keyDownBuffer[i] == scancode)
    216a:	781a      	ldrb	r2, [r3, #0]
    216c:	4282      	cmp	r2, r0
    216e:	d1f9      	bne.n	2164 <removeFromKeyDown+0xc>
			keyDownBuffer[i] = 0xFF;
    2170:	701c      	strb	r4, [r3, #0]
    2172:	e7f7      	b.n	2164 <removeFromKeyDown+0xc>
		}
	}
}
    2174:	bd10      	pop	{r4, pc}
    2176:	46c0      	nop			; (mov r8, r8)
    2178:	20000014 	.word	0x20000014

0000217c <readKeyboard>:
{
    217c:	b5f0      	push	{r4, r5, r6, r7, lr}
    217e:	46de      	mov	lr, fp
    2180:	4657      	mov	r7, sl
    2182:	464e      	mov	r6, r9
    2184:	4645      	mov	r5, r8
    2186:	b5e0      	push	{r5, r6, r7, lr}
    2188:	b083      	sub	sp, #12
    218a:	4e6d      	ldr	r6, [pc, #436]	; (2340 <readKeyboard+0x1c4>)
    218c:	0031      	movs	r1, r6
    218e:	3119      	adds	r1, #25
    2190:	31ff      	adds	r1, #255	; 0xff
    2192:	0033      	movs	r3, r6
		scanCodes[i] = 0xFF;
    2194:	22ff      	movs	r2, #255	; 0xff
    2196:	c304      	stmia	r3!, {r2}
	for(i = 0 ; i < 70 ; i++)
    2198:	428b      	cmp	r3, r1
    219a:	d1fc      	bne.n	2196 <readKeyboard+0x1a>
	PORT->Group[0].WRCONFIG.bit.DRVSTR = 1;
    219c:	4a69      	ldr	r2, [pc, #420]	; (2344 <readKeyboard+0x1c8>)
    219e:	6a91      	ldr	r1, [r2, #40]	; 0x28
    21a0:	2380      	movs	r3, #128	; 0x80
    21a2:	03db      	lsls	r3, r3, #15
    21a4:	430b      	orrs	r3, r1
    21a6:	6293      	str	r3, [r2, #40]	; 0x28
    21a8:	4c67      	ldr	r4, [pc, #412]	; (2348 <readKeyboard+0x1cc>)
    21aa:	341c      	adds	r4, #28
    21ac:	4b66      	ldr	r3, [pc, #408]	; (2348 <readKeyboard+0x1cc>)
		REG_PORT_DIRSET0 = kb_col[i];
    21ae:	4867      	ldr	r0, [pc, #412]	; (234c <readKeyboard+0x1d0>)
		REG_PORT_OUTCLR0 = kb_col[i];
    21b0:	4967      	ldr	r1, [pc, #412]	; (2350 <readKeyboard+0x1d4>)
		REG_PORT_DIRSET0 = kb_col[i];
    21b2:	681a      	ldr	r2, [r3, #0]
    21b4:	6002      	str	r2, [r0, #0]
		REG_PORT_OUTCLR0 = kb_col[i];
    21b6:	cb04      	ldmia	r3!, {r2}
    21b8:	600a      	str	r2, [r1, #0]
	for (i = 0; i < NUM_COL; i++) {
    21ba:	42a3      	cmp	r3, r4
    21bc:	d1f9      	bne.n	21b2 <readKeyboard+0x36>
    21be:	2200      	movs	r2, #0
		REG_PORT_DIRCLR0 = kb_row[i];
    21c0:	4b64      	ldr	r3, [pc, #400]	; (2354 <readKeyboard+0x1d8>)
    21c2:	469c      	mov	ip, r3
    21c4:	4f64      	ldr	r7, [pc, #400]	; (2358 <readKeyboard+0x1dc>)
		PORT->Group[0].PINCFG[kb_row_index[i]].bit.PULLEN = 1;
    21c6:	4d65      	ldr	r5, [pc, #404]	; (235c <readKeyboard+0x1e0>)
    21c8:	2404      	movs	r4, #4
		PORT->Group[0].PINCFG[kb_row_index[i]].bit.INEN = 1;
    21ca:	2002      	movs	r0, #2
		REG_PORT_DIRCLR0 = kb_row[i];
    21cc:	4663      	mov	r3, ip
    21ce:	58d3      	ldr	r3, [r2, r3]
    21d0:	603b      	str	r3, [r7, #0]
		PORT->Group[0].PINCFG[kb_row_index[i]].bit.PULLEN = 1;
    21d2:	5953      	ldr	r3, [r2, r5]
    21d4:	4962      	ldr	r1, [pc, #392]	; (2360 <readKeyboard+0x1e4>)
    21d6:	4688      	mov	r8, r1
    21d8:	4443      	add	r3, r8
    21da:	7819      	ldrb	r1, [r3, #0]
    21dc:	4321      	orrs	r1, r4
    21de:	7019      	strb	r1, [r3, #0]
		PORT->Group[0].PINCFG[kb_row_index[i]].bit.INEN = 1;
    21e0:	7819      	ldrb	r1, [r3, #0]
    21e2:	4301      	orrs	r1, r0
    21e4:	7019      	strb	r1, [r3, #0]
    21e6:	3204      	adds	r2, #4
	for (i = 0; i < NUM_ROW; i++) {
    21e8:	2a28      	cmp	r2, #40	; 0x28
    21ea:	d1ef      	bne.n	21cc <readKeyboard+0x50>
    21ec:	4b56      	ldr	r3, [pc, #344]	; (2348 <readKeyboard+0x1cc>)
    21ee:	4699      	mov	r9, r3
    21f0:	2300      	movs	r3, #0
    21f2:	4698      	mov	r8, r3
    21f4:	2200      	movs	r2, #0
		REG_PORT_OUTSET0 = kb_col[i];
    21f6:	4b5b      	ldr	r3, [pc, #364]	; (2364 <readKeyboard+0x1e8>)
    21f8:	469b      	mov	fp, r3
			if((PORT->Group[0].IN.reg & kb_row[j]) != 0) {
    21fa:	4d52      	ldr	r5, [pc, #328]	; (2344 <readKeyboard+0x1c8>)
				scanCodes[scanCodeIndex] = (i * NUM_ROW) + j;
    21fc:	4b50      	ldr	r3, [pc, #320]	; (2340 <readKeyboard+0x1c4>)
    21fe:	469c      	mov	ip, r3
		REG_PORT_OUTCLR0 = kb_col[i];
    2200:	4b53      	ldr	r3, [pc, #332]	; (2350 <readKeyboard+0x1d4>)
    2202:	469a      	mov	sl, r3
    2204:	9601      	str	r6, [sp, #4]
    2206:	464e      	mov	r6, r9
    2208:	4647      	mov	r7, r8
    220a:	e015      	b.n	2238 <readKeyboard+0xbc>
    220c:	3304      	adds	r3, #4
    220e:	3101      	adds	r1, #1
		for (j = 0; j < NUM_ROW; j++) {	
    2210:	42a3      	cmp	r3, r4
    2212:	d008      	beq.n	2226 <readKeyboard+0xaa>
			if((PORT->Group[0].IN.reg & kb_row[j]) != 0) {
    2214:	6a28      	ldr	r0, [r5, #32]
    2216:	681e      	ldr	r6, [r3, #0]
    2218:	4206      	tst	r6, r0
    221a:	d0f7      	beq.n	220c <readKeyboard+0x90>
				scanCodes[scanCodeIndex] = (i * NUM_ROW) + j;
    221c:	0090      	lsls	r0, r2, #2
    221e:	4666      	mov	r6, ip
    2220:	5181      	str	r1, [r0, r6]
				scanCodeIndex++;
    2222:	3201      	adds	r2, #1
    2224:	e7f2      	b.n	220c <readKeyboard+0x90>
    2226:	9e00      	ldr	r6, [sp, #0]
		REG_PORT_OUTCLR0 = kb_col[i];
    2228:	4649      	mov	r1, r9
    222a:	6809      	ldr	r1, [r1, #0]
    222c:	4650      	mov	r0, sl
    222e:	6001      	str	r1, [r0, #0]
    2230:	3604      	adds	r6, #4
    2232:	370a      	adds	r7, #10
	for (i = 0; i < NUM_COL; i++) {
    2234:	2f46      	cmp	r7, #70	; 0x46
    2236:	d00a      	beq.n	224e <readKeyboard+0xd2>
    2238:	46b1      	mov	r9, r6
		REG_PORT_OUTSET0 = kb_col[i];
    223a:	465b      	mov	r3, fp
    223c:	6831      	ldr	r1, [r6, #0]
    223e:	6019      	str	r1, [r3, #0]
    2240:	4b44      	ldr	r3, [pc, #272]	; (2354 <readKeyboard+0x1d8>)
    2242:	4698      	mov	r8, r3
    2244:	001c      	movs	r4, r3
    2246:	3428      	adds	r4, #40	; 0x28
    2248:	0039      	movs	r1, r7
    224a:	9600      	str	r6, [sp, #0]
    224c:	e7e2      	b.n	2214 <readKeyboard+0x98>
    224e:	4647      	mov	r7, r8
    2250:	9e01      	ldr	r6, [sp, #4]
    2252:	4641      	mov	r1, r8
		REG_PORT_DIRSET0 = kb_row[i];
    2254:	4d3d      	ldr	r5, [pc, #244]	; (234c <readKeyboard+0x1d0>)
		REG_PORT_OUTCLR0 = kb_row[i];
    2256:	4c3e      	ldr	r4, [pc, #248]	; (2350 <readKeyboard+0x1d4>)
		REG_PORT_DIRSET0 = kb_row[i];
    2258:	6808      	ldr	r0, [r1, #0]
    225a:	6028      	str	r0, [r5, #0]
		REG_PORT_OUTCLR0 = kb_row[i];
    225c:	c901      	ldmia	r1!, {r0}
    225e:	6020      	str	r0, [r4, #0]
	for (i = 0; i < NUM_ROW; i++) {
    2260:	4299      	cmp	r1, r3
    2262:	d1f9      	bne.n	2258 <readKeyboard+0xdc>
    2264:	2100      	movs	r1, #0
		REG_PORT_DIRCLR0 = kb_col[i];
    2266:	4b38      	ldr	r3, [pc, #224]	; (2348 <readKeyboard+0x1cc>)
    2268:	4699      	mov	r9, r3
    226a:	4b3b      	ldr	r3, [pc, #236]	; (2358 <readKeyboard+0x1dc>)
    226c:	4698      	mov	r8, r3
		PORT->Group[0].PINCFG[kb_col_index[i]].bit.PULLEN = 1;
    226e:	4b3e      	ldr	r3, [pc, #248]	; (2368 <readKeyboard+0x1ec>)
    2270:	469c      	mov	ip, r3
    2272:	2504      	movs	r5, #4
		PORT->Group[0].PINCFG[kb_col_index[i]].bit.INEN = 1;
    2274:	2402      	movs	r4, #2
		REG_PORT_DIRCLR0 = kb_col[i];
    2276:	4643      	mov	r3, r8
    2278:	4648      	mov	r0, r9
    227a:	5808      	ldr	r0, [r1, r0]
    227c:	6018      	str	r0, [r3, #0]
		PORT->Group[0].PINCFG[kb_col_index[i]].bit.PULLEN = 1;
    227e:	4663      	mov	r3, ip
    2280:	58cb      	ldr	r3, [r1, r3]
    2282:	4837      	ldr	r0, [pc, #220]	; (2360 <readKeyboard+0x1e4>)
    2284:	4682      	mov	sl, r0
    2286:	4453      	add	r3, sl
    2288:	7818      	ldrb	r0, [r3, #0]
    228a:	4328      	orrs	r0, r5
    228c:	7018      	strb	r0, [r3, #0]
		PORT->Group[0].PINCFG[kb_col_index[i]].bit.INEN = 1;
    228e:	7818      	ldrb	r0, [r3, #0]
    2290:	4320      	orrs	r0, r4
    2292:	7018      	strb	r0, [r3, #0]
    2294:	3104      	adds	r1, #4
	for (i = 0; i < NUM_COL; i++) {
    2296:	291c      	cmp	r1, #28
    2298:	d1ed      	bne.n	2276 <readKeyboard+0xfa>
    229a:	2300      	movs	r3, #0
    229c:	469c      	mov	ip, r3
		REG_PORT_OUTSET0 = kb_row[i];
    229e:	4b31      	ldr	r3, [pc, #196]	; (2364 <readKeyboard+0x1e8>)
    22a0:	469b      	mov	fp, r3
			if((PORT->Group[0].IN.reg & kb_col[j]) != 0)
    22a2:	4d28      	ldr	r5, [pc, #160]	; (2344 <readKeyboard+0x1c8>)
				scanCodes[scanCodeIndex] = (j * NUM_ROW) + i;
    22a4:	4b26      	ldr	r3, [pc, #152]	; (2340 <readKeyboard+0x1c4>)
    22a6:	4698      	mov	r8, r3
		REG_PORT_OUTCLR0 = kb_row[i];
    22a8:	4b29      	ldr	r3, [pc, #164]	; (2350 <readKeyboard+0x1d4>)
    22aa:	469a      	mov	sl, r3
    22ac:	46b1      	mov	r9, r6
    22ae:	003e      	movs	r6, r7
    22b0:	4667      	mov	r7, ip
    22b2:	e015      	b.n	22e0 <readKeyboard+0x164>
    22b4:	3104      	adds	r1, #4
    22b6:	330a      	adds	r3, #10
		for (j = 0; j < NUM_COL; j++) {
    22b8:	42a3      	cmp	r3, r4
    22ba:	d008      	beq.n	22ce <readKeyboard+0x152>
			if((PORT->Group[0].IN.reg & kb_col[j]) != 0)
    22bc:	6a28      	ldr	r0, [r5, #32]
    22be:	680e      	ldr	r6, [r1, #0]
    22c0:	4206      	tst	r6, r0
    22c2:	d0f7      	beq.n	22b4 <readKeyboard+0x138>
				scanCodes[scanCodeIndex] = (j * NUM_ROW) + i;
    22c4:	0090      	lsls	r0, r2, #2
    22c6:	4646      	mov	r6, r8
    22c8:	5183      	str	r3, [r0, r6]
				scanCodeIndex++;
    22ca:	3201      	adds	r2, #1
    22cc:	e7f2      	b.n	22b4 <readKeyboard+0x138>
    22ce:	9e00      	ldr	r6, [sp, #0]
		REG_PORT_OUTCLR0 = kb_row[i];
    22d0:	4663      	mov	r3, ip
    22d2:	681b      	ldr	r3, [r3, #0]
    22d4:	4651      	mov	r1, sl
    22d6:	600b      	str	r3, [r1, #0]
	for (i = 0; i < NUM_ROW; i++) {
    22d8:	3701      	adds	r7, #1
    22da:	3604      	adds	r6, #4
    22dc:	2f0a      	cmp	r7, #10
    22de:	d009      	beq.n	22f4 <readKeyboard+0x178>
    22e0:	46b4      	mov	ip, r6
		REG_PORT_OUTSET0 = kb_row[i];
    22e2:	465b      	mov	r3, fp
    22e4:	6831      	ldr	r1, [r6, #0]
    22e6:	6019      	str	r1, [r3, #0]
    22e8:	003b      	movs	r3, r7
    22ea:	003c      	movs	r4, r7
    22ec:	3446      	adds	r4, #70	; 0x46
    22ee:	4916      	ldr	r1, [pc, #88]	; (2348 <readKeyboard+0x1cc>)
    22f0:	9600      	str	r6, [sp, #0]
    22f2:	e7e3      	b.n	22bc <readKeyboard+0x140>
    22f4:	464e      	mov	r6, r9
	for(i = 0 ; i < scanCodeIndex ; i++)
    22f6:	2a00      	cmp	r2, #0
    22f8:	dd08      	ble.n	230c <readKeyboard+0x190>
    22fa:	4b1c      	ldr	r3, [pc, #112]	; (236c <readKeyboard+0x1f0>)
    22fc:	0092      	lsls	r2, r2, #2
    22fe:	4910      	ldr	r1, [pc, #64]	; (2340 <readKeyboard+0x1c4>)
    2300:	188a      	adds	r2, r1, r2
		scanCodeBuffer[i] = scanCodes[i];	
    2302:	ce02      	ldmia	r6!, {r1}
    2304:	7019      	strb	r1, [r3, #0]
    2306:	3301      	adds	r3, #1
	for(i = 0 ; i < scanCodeIndex ; i++)
    2308:	42b2      	cmp	r2, r6
    230a:	d1fa      	bne.n	2302 <readKeyboard+0x186>
		REG_PORT_OUTSET0 = kb_row[i];
    230c:	2400      	movs	r4, #0
		if(keyDown(i) && !scanCodesContains(i))
    230e:	4d18      	ldr	r5, [pc, #96]	; (2370 <readKeyboard+0x1f4>)
    2310:	4e18      	ldr	r6, [pc, #96]	; (2374 <readKeyboard+0x1f8>)
			removeFromKeyDown(i);
    2312:	4f19      	ldr	r7, [pc, #100]	; (2378 <readKeyboard+0x1fc>)
    2314:	e002      	b.n	231c <readKeyboard+0x1a0>
	for(i = 0; i < 70; i++)
    2316:	3401      	adds	r4, #1
    2318:	2c46      	cmp	r4, #70	; 0x46
    231a:	d00a      	beq.n	2332 <readKeyboard+0x1b6>
		if(keyDown(i) && !scanCodesContains(i))
    231c:	0020      	movs	r0, r4
    231e:	47a8      	blx	r5
    2320:	2800      	cmp	r0, #0
    2322:	d0f8      	beq.n	2316 <readKeyboard+0x19a>
    2324:	0020      	movs	r0, r4
    2326:	47b0      	blx	r6
    2328:	2800      	cmp	r0, #0
    232a:	d1f4      	bne.n	2316 <readKeyboard+0x19a>
			removeFromKeyDown(i);
    232c:	0020      	movs	r0, r4
    232e:	47b8      	blx	r7
    2330:	e7f1      	b.n	2316 <readKeyboard+0x19a>
}
    2332:	b003      	add	sp, #12
    2334:	bc3c      	pop	{r2, r3, r4, r5}
    2336:	4690      	mov	r8, r2
    2338:	4699      	mov	r9, r3
    233a:	46a2      	mov	sl, r4
    233c:	46ab      	mov	fp, r5
    233e:	bdf0      	pop	{r4, r5, r6, r7, pc}
    2340:	2000003c 	.word	0x2000003c
    2344:	41004400 	.word	0x41004400
    2348:	000063b8 	.word	0x000063b8
    234c:	41004408 	.word	0x41004408
    2350:	41004414 	.word	0x41004414
    2354:	000063f0 	.word	0x000063f0
    2358:	41004404 	.word	0x41004404
    235c:	00006418 	.word	0x00006418
    2360:	41004440 	.word	0x41004440
    2364:	41004418 	.word	0x41004418
    2368:	000063d4 	.word	0x000063d4
    236c:	20000028 	.word	0x20000028
    2370:	0000212d 	.word	0x0000212d
    2374:	00002101 	.word	0x00002101
    2378:	00002159 	.word	0x00002159

0000237c <clearCursorBuffer>:

void clearCursorBuffer(void)
{
    237c:	4b04      	ldr	r3, [pc, #16]	; (2390 <clearCursorBuffer+0x14>)
    237e:	0019      	movs	r1, r3
    2380:	31c8      	adds	r1, #200	; 0xc8
	for(uint16_t i = 0 ; i < 200 ; i++)
	{
		cursorBuffer[i] = 0x00;
    2382:	2200      	movs	r2, #0
    2384:	701a      	strb	r2, [r3, #0]
    2386:	3301      	adds	r3, #1
	for(uint16_t i = 0 ; i < 200 ; i++)
    2388:	428b      	cmp	r3, r1
    238a:	d1fb      	bne.n	2384 <clearCursorBuffer+0x8>
	}
}
    238c:	4770      	bx	lr
    238e:	46c0      	nop			; (mov r8, r8)
    2390:	20000308 	.word	0x20000308

00002394 <drawCursorBuffer>:

void drawCursorBuffer(void)
{
    2394:	b5f0      	push	{r4, r5, r6, r7, lr}
    2396:	46c6      	mov	lr, r8
    2398:	b500      	push	{lr}
	
	setXY(xCharPos*10,yCharPos*20,(xCharPos*10)+9,(yCharPos*20)+19);
    239a:	4b1a      	ldr	r3, [pc, #104]	; (2404 <drawCursorBuffer+0x70>)
    239c:	8818      	ldrh	r0, [r3, #0]
    239e:	0083      	lsls	r3, r0, #2
    23a0:	18c0      	adds	r0, r0, r3
    23a2:	0040      	lsls	r0, r0, #1
    23a4:	b280      	uxth	r0, r0
    23a6:	4b18      	ldr	r3, [pc, #96]	; (2408 <drawCursorBuffer+0x74>)
    23a8:	8819      	ldrh	r1, [r3, #0]
    23aa:	2314      	movs	r3, #20
    23ac:	4359      	muls	r1, r3
    23ae:	b289      	uxth	r1, r1
    23b0:	000b      	movs	r3, r1
    23b2:	3313      	adds	r3, #19
    23b4:	b29b      	uxth	r3, r3
    23b6:	0002      	movs	r2, r0
    23b8:	3209      	adds	r2, #9
    23ba:	b292      	uxth	r2, r2
    23bc:	4c13      	ldr	r4, [pc, #76]	; (240c <drawCursorBuffer+0x78>)
    23be:	47a0      	blx	r4
    23c0:	4c13      	ldr	r4, [pc, #76]	; (2410 <drawCursorBuffer+0x7c>)
    23c2:	0025      	movs	r5, r4
    23c4:	35c8      	adds	r5, #200	; 0xc8
	for(uint16_t i = 0 ; i < 200 ; i++)
	{
		if((cursorBuffer[i] == 0xFF))
		setPixel((fore_Color_High<<8)|fore_Color_Low);
		else
		setPixel((back_Color_High<<8)|back_Color_Low);
    23c6:	4b13      	ldr	r3, [pc, #76]	; (2414 <drawCursorBuffer+0x80>)
    23c8:	4698      	mov	r8, r3
    23ca:	4f13      	ldr	r7, [pc, #76]	; (2418 <drawCursorBuffer+0x84>)
    23cc:	4e13      	ldr	r6, [pc, #76]	; (241c <drawCursorBuffer+0x88>)
    23ce:	e00b      	b.n	23e8 <drawCursorBuffer+0x54>
		setPixel((fore_Color_High<<8)|fore_Color_Low);
    23d0:	4b13      	ldr	r3, [pc, #76]	; (2420 <drawCursorBuffer+0x8c>)
    23d2:	8818      	ldrh	r0, [r3, #0]
    23d4:	0200      	lsls	r0, r0, #8
    23d6:	4b13      	ldr	r3, [pc, #76]	; (2424 <drawCursorBuffer+0x90>)
    23d8:	881b      	ldrh	r3, [r3, #0]
    23da:	4318      	orrs	r0, r3
    23dc:	b280      	uxth	r0, r0
    23de:	4b0f      	ldr	r3, [pc, #60]	; (241c <drawCursorBuffer+0x88>)
    23e0:	4798      	blx	r3
    23e2:	3401      	adds	r4, #1
	for(uint16_t i = 0 ; i < 200 ; i++)
    23e4:	42ac      	cmp	r4, r5
    23e6:	d00a      	beq.n	23fe <drawCursorBuffer+0x6a>
		if((cursorBuffer[i] == 0xFF))
    23e8:	7823      	ldrb	r3, [r4, #0]
    23ea:	2bff      	cmp	r3, #255	; 0xff
    23ec:	d0f0      	beq.n	23d0 <drawCursorBuffer+0x3c>
		setPixel((back_Color_High<<8)|back_Color_Low);
    23ee:	4643      	mov	r3, r8
    23f0:	8818      	ldrh	r0, [r3, #0]
    23f2:	0200      	lsls	r0, r0, #8
    23f4:	883b      	ldrh	r3, [r7, #0]
    23f6:	4318      	orrs	r0, r3
    23f8:	b280      	uxth	r0, r0
    23fa:	47b0      	blx	r6
    23fc:	e7f1      	b.n	23e2 <drawCursorBuffer+0x4e>
	}


}
    23fe:	bc04      	pop	{r2}
    2400:	4690      	mov	r8, r2
    2402:	bdf0      	pop	{r4, r5, r6, r7, pc}
    2404:	20000298 	.word	0x20000298
    2408:	2000029a 	.word	0x2000029a
    240c:	00002979 	.word	0x00002979
    2410:	20000308 	.word	0x20000308
    2414:	200003d6 	.word	0x200003d6
    2418:	200003d0 	.word	0x200003d0
    241c:	00002b49 	.word	0x00002b49
    2420:	200003d2 	.word	0x200003d2
    2424:	200003d4 	.word	0x200003d4

00002428 <readCursor>:
		}
	}	
}

void readCursor(uint16_t cursorLocationX, uint16_t cursorLocationY)
{
    2428:	b5f8      	push	{r3, r4, r5, r6, r7, lr}
    242a:	46ce      	mov	lr, r9
    242c:	4647      	mov	r7, r8
    242e:	b580      	push	{r7, lr}
    2430:	000d      	movs	r5, r1
	
	//This function does not actually *move* the cursor
	
	
	//set PB07 to input
	REG_PORT_DIRCLR1 = PORT_PB07;
    2432:	2280      	movs	r2, #128	; 0x80
    2434:	4b2a      	ldr	r3, [pc, #168]	; (24e0 <readCursor+0xb8>)
    2436:	601a      	str	r2, [r3, #0]
	PORT->Group[1].PINCFG[7].bit.INEN = 1;
    2438:	4a2a      	ldr	r2, [pc, #168]	; (24e4 <readCursor+0xbc>)
    243a:	23c7      	movs	r3, #199	; 0xc7
    243c:	5cd4      	ldrb	r4, [r2, r3]
    243e:	2102      	movs	r1, #2
    2440:	430c      	orrs	r4, r1
    2442:	54d4      	strb	r4, [r2, r3]
	PORT->Group[1].PINCFG[7].bit.PULLEN = 1;
    2444:	5cd4      	ldrb	r4, [r2, r3]
    2446:	2104      	movs	r1, #4
    2448:	430c      	orrs	r4, r1
    244a:	54d4      	strb	r4, [r2, r3]
	
	
	//Per page 40 of datasheet (5.1.2.7, 16-bit
	//parallel interface for data ram read.
	REG_PORT_OUTCLR1 = LCD_CS;
    244c:	4c26      	ldr	r4, [pc, #152]	; (24e8 <readCursor+0xc0>)
    244e:	2380      	movs	r3, #128	; 0x80
    2450:	03db      	lsls	r3, r3, #15
    2452:	6023      	str	r3, [r4, #0]
	setXY((uint16_t)cursorLocationX*10,(uint16_t)cursorLocationY*20,((uint16_t)cursorLocationX*10)+9,((uint16_t)cursorLocationY*20)+19);
    2454:	0083      	lsls	r3, r0, #2
    2456:	18c0      	adds	r0, r0, r3
    2458:	0040      	lsls	r0, r0, #1
    245a:	b280      	uxth	r0, r0
    245c:	2114      	movs	r1, #20
    245e:	4369      	muls	r1, r5
    2460:	b289      	uxth	r1, r1
    2462:	000b      	movs	r3, r1
    2464:	3313      	adds	r3, #19
    2466:	b29b      	uxth	r3, r3
    2468:	0002      	movs	r2, r0
    246a:	3209      	adds	r2, #9
    246c:	b292      	uxth	r2, r2
    246e:	4d1f      	ldr	r5, [pc, #124]	; (24ec <readCursor+0xc4>)
    2470:	47a8      	blx	r5
	//printf("Read\t%i, %i, %i, %i\n\r",x*10,y*20,x*10+9,y*20+19);
	
	
	//Send'Memory read' command 0x2E00, no data bit
	LCD_Write_COM16(0x2E,0x00);
    2472:	2100      	movs	r1, #0
    2474:	202e      	movs	r0, #46	; 0x2e
    2476:	4b1e      	ldr	r3, [pc, #120]	; (24f0 <readCursor+0xc8>)
    2478:	4798      	blx	r3
	REG_PORT_OUTSET1 = LCD_DC;
    247a:	4b1e      	ldr	r3, [pc, #120]	; (24f4 <readCursor+0xcc>)
    247c:	2280      	movs	r2, #128	; 0x80
    247e:	0412      	lsls	r2, r2, #16
    2480:	601a      	str	r2, [r3, #0]

	//needs dummy write, per data sheet, page 40
	REG_PORT_OUTCLR1 = LCD_RD;
    2482:	2280      	movs	r2, #128	; 0x80
    2484:	0252      	lsls	r2, r2, #9
    2486:	6022      	str	r2, [r4, #0]
	REG_PORT_OUTSET1 = LCD_RD;
    2488:	601a      	str	r2, [r3, #0]
    248a:	4b1b      	ldr	r3, [pc, #108]	; (24f8 <readCursor+0xd0>)
    248c:	22c9      	movs	r2, #201	; 0xc9
    248e:	4694      	mov	ip, r2
    2490:	449c      	add	ip, r3
	
	for(uint8_t pixel = 0; pixel <= 200 ; pixel++)
	{
		REG_PORT_OUTCLR1 = LCD_RD;
    2492:	0020      	movs	r0, r4
    2494:	2280      	movs	r2, #128	; 0x80
    2496:	0252      	lsls	r2, r2, #9
		REG_PORT_OUTSET1 = LCD_RD;
    2498:	4916      	ldr	r1, [pc, #88]	; (24f4 <readCursor+0xcc>)

		//get the pin state, stuff into array
		
		//This can be expanded with else if for the MSBs
		//of all the colors; see datasheet page 40.
		if((PORT->Group[1].IN.reg & PORT_PB07) != 0)
    249a:	4f12      	ldr	r7, [pc, #72]	; (24e4 <readCursor+0xbc>)
    249c:	26a0      	movs	r6, #160	; 0xa0
    249e:	2580      	movs	r5, #128	; 0x80
		{
			cursorBuffer[pixel] = 0xFF;
		}
		else
		{
			cursorBuffer[pixel] = 0x00;
    24a0:	2400      	movs	r4, #0
    24a2:	46a1      	mov	r9, r4
			cursorBuffer[pixel] = 0xFF;
    24a4:	34ff      	adds	r4, #255	; 0xff
    24a6:	46a0      	mov	r8, r4
    24a8:	e006      	b.n	24b8 <readCursor+0x90>
			cursorBuffer[pixel] = 0x00;
    24aa:	464c      	mov	r4, r9
    24ac:	701c      	strb	r4, [r3, #0]
		//dummy read, because pixel data broken up
		//per datasheet page 40. Everything after
		//the dummy write is BLUE pixels. Do we ever
		//need blue? IDK.
		
		REG_PORT_OUTCLR1 = LCD_RD;
    24ae:	6002      	str	r2, [r0, #0]
		REG_PORT_OUTSET1 = LCD_RD;
    24b0:	600a      	str	r2, [r1, #0]
    24b2:	3301      	adds	r3, #1
	for(uint8_t pixel = 0; pixel <= 200 ; pixel++)
    24b4:	4563      	cmp	r3, ip
    24b6:	d007      	beq.n	24c8 <readCursor+0xa0>
		REG_PORT_OUTCLR1 = LCD_RD;
    24b8:	6002      	str	r2, [r0, #0]
		REG_PORT_OUTSET1 = LCD_RD;
    24ba:	600a      	str	r2, [r1, #0]
		if((PORT->Group[1].IN.reg & PORT_PB07) != 0)
    24bc:	59bc      	ldr	r4, [r7, r6]
    24be:	4225      	tst	r5, r4
    24c0:	d0f3      	beq.n	24aa <readCursor+0x82>
			cursorBuffer[pixel] = 0xFF;
    24c2:	4644      	mov	r4, r8
    24c4:	701c      	strb	r4, [r3, #0]
    24c6:	e7f2      	b.n	24ae <readCursor+0x86>
	}
	
	REG_PORT_OUTSET1 = LCD_DC;
    24c8:	2280      	movs	r2, #128	; 0x80
    24ca:	0412      	lsls	r2, r2, #16
    24cc:	4b09      	ldr	r3, [pc, #36]	; (24f4 <readCursor+0xcc>)
    24ce:	601a      	str	r2, [r3, #0]
	REG_PORT_DIRSET1 = 0x0000FFFF;
    24d0:	4a0a      	ldr	r2, [pc, #40]	; (24fc <readCursor+0xd4>)
    24d2:	4b0b      	ldr	r3, [pc, #44]	; (2500 <readCursor+0xd8>)
    24d4:	601a      	str	r2, [r3, #0]
	
}
    24d6:	bc0c      	pop	{r2, r3}
    24d8:	4690      	mov	r8, r2
    24da:	4699      	mov	r9, r3
    24dc:	bdf8      	pop	{r3, r4, r5, r6, r7, pc}
    24de:	46c0      	nop			; (mov r8, r8)
    24e0:	41004484 	.word	0x41004484
    24e4:	41004400 	.word	0x41004400
    24e8:	41004494 	.word	0x41004494
    24ec:	00002979 	.word	0x00002979
    24f0:	00002bb5 	.word	0x00002bb5
    24f4:	41004498 	.word	0x41004498
    24f8:	20000308 	.word	0x20000308
    24fc:	0000ffff 	.word	0x0000ffff
    2500:	41004488 	.word	0x41004488

00002504 <blinkCursor>:

void blinkCursor(void)
{
    2504:	b5f0      	push	{r4, r5, r6, r7, lr}
    2506:	46c6      	mov	lr, r8
    2508:	b500      	push	{lr}
	if(cursorBlinkState)
    250a:	4b3b      	ldr	r3, [pc, #236]	; (25f8 <blinkCursor+0xf4>)
    250c:	781b      	ldrb	r3, [r3, #0]
    250e:	2b00      	cmp	r3, #0
    2510:	d039      	beq.n	2586 <blinkCursor+0x82>
	{

		//Draw the *inverse* of cursorBuffer
		setXY(xCharPos*10,yCharPos*20,xCharPos*10+9,yCharPos*20+19);
    2512:	4b3a      	ldr	r3, [pc, #232]	; (25fc <blinkCursor+0xf8>)
    2514:	8818      	ldrh	r0, [r3, #0]
    2516:	0083      	lsls	r3, r0, #2
    2518:	18c0      	adds	r0, r0, r3
    251a:	0040      	lsls	r0, r0, #1
    251c:	b280      	uxth	r0, r0
    251e:	4b38      	ldr	r3, [pc, #224]	; (2600 <blinkCursor+0xfc>)
    2520:	8819      	ldrh	r1, [r3, #0]
    2522:	2314      	movs	r3, #20
    2524:	4359      	muls	r1, r3
    2526:	b289      	uxth	r1, r1
    2528:	000b      	movs	r3, r1
    252a:	3313      	adds	r3, #19
    252c:	b29b      	uxth	r3, r3
    252e:	0002      	movs	r2, r0
    2530:	3209      	adds	r2, #9
    2532:	b292      	uxth	r2, r2
    2534:	4c33      	ldr	r4, [pc, #204]	; (2604 <blinkCursor+0x100>)
    2536:	47a0      	blx	r4
    2538:	4c33      	ldr	r4, [pc, #204]	; (2608 <blinkCursor+0x104>)
    253a:	0025      	movs	r5, r4
    253c:	35c8      	adds	r5, #200	; 0xc8
		for(uint16_t i = 0 ; i < 200 ; i++)
		{
			if((cursorBuffer[i] != 0xFF))
			setPixel((fore_Color_High<<8)|fore_Color_Low);
			else
			setPixel((back_Color_High<<8)|back_Color_Low);
    253e:	4b33      	ldr	r3, [pc, #204]	; (260c <blinkCursor+0x108>)
    2540:	4698      	mov	r8, r3
    2542:	4f33      	ldr	r7, [pc, #204]	; (2610 <blinkCursor+0x10c>)
    2544:	4e33      	ldr	r6, [pc, #204]	; (2614 <blinkCursor+0x110>)
    2546:	e009      	b.n	255c <blinkCursor+0x58>
    2548:	4643      	mov	r3, r8
    254a:	8818      	ldrh	r0, [r3, #0]
    254c:	0200      	lsls	r0, r0, #8
    254e:	883b      	ldrh	r3, [r7, #0]
    2550:	4318      	orrs	r0, r3
    2552:	b280      	uxth	r0, r0
    2554:	47b0      	blx	r6
    2556:	3401      	adds	r4, #1
		for(uint16_t i = 0 ; i < 200 ; i++)
    2558:	42a5      	cmp	r5, r4
    255a:	d00c      	beq.n	2576 <blinkCursor+0x72>
			if((cursorBuffer[i] != 0xFF))
    255c:	7823      	ldrb	r3, [r4, #0]
    255e:	2bff      	cmp	r3, #255	; 0xff
    2560:	d0f2      	beq.n	2548 <blinkCursor+0x44>
			setPixel((fore_Color_High<<8)|fore_Color_Low);
    2562:	4b2d      	ldr	r3, [pc, #180]	; (2618 <blinkCursor+0x114>)
    2564:	8818      	ldrh	r0, [r3, #0]
    2566:	0200      	lsls	r0, r0, #8
    2568:	4b2c      	ldr	r3, [pc, #176]	; (261c <blinkCursor+0x118>)
    256a:	881b      	ldrh	r3, [r3, #0]
    256c:	4318      	orrs	r0, r3
    256e:	b280      	uxth	r0, r0
    2570:	4b28      	ldr	r3, [pc, #160]	; (2614 <blinkCursor+0x110>)
    2572:	4798      	blx	r3
    2574:	e7ef      	b.n	2556 <blinkCursor+0x52>
		}
		
		//finally set cursorBlinkState to false
		cursorBlinkState = !cursorBlinkState;
    2576:	4a20      	ldr	r2, [pc, #128]	; (25f8 <blinkCursor+0xf4>)
    2578:	7813      	ldrb	r3, [r2, #0]
    257a:	2101      	movs	r1, #1
    257c:	404b      	eors	r3, r1
    257e:	7013      	strb	r3, [r2, #0]
			setPixel((back_Color_High<<8)|back_Color_Low);
		}
		//set cursorBlinkState to true
		cursorBlinkState = !cursorBlinkState;
	}
}
    2580:	bc04      	pop	{r2}
    2582:	4690      	mov	r8, r2
    2584:	bdf0      	pop	{r4, r5, r6, r7, pc}
		setXY(xCharPos*10,yCharPos*20,xCharPos*10+9,yCharPos*20+19);
    2586:	4b1d      	ldr	r3, [pc, #116]	; (25fc <blinkCursor+0xf8>)
    2588:	8818      	ldrh	r0, [r3, #0]
    258a:	0083      	lsls	r3, r0, #2
    258c:	18c0      	adds	r0, r0, r3
    258e:	0040      	lsls	r0, r0, #1
    2590:	b280      	uxth	r0, r0
    2592:	4b1b      	ldr	r3, [pc, #108]	; (2600 <blinkCursor+0xfc>)
    2594:	8819      	ldrh	r1, [r3, #0]
    2596:	2314      	movs	r3, #20
    2598:	4359      	muls	r1, r3
    259a:	b289      	uxth	r1, r1
    259c:	000b      	movs	r3, r1
    259e:	3313      	adds	r3, #19
    25a0:	b29b      	uxth	r3, r3
    25a2:	0002      	movs	r2, r0
    25a4:	3209      	adds	r2, #9
    25a6:	b292      	uxth	r2, r2
    25a8:	4c16      	ldr	r4, [pc, #88]	; (2604 <blinkCursor+0x100>)
    25aa:	47a0      	blx	r4
    25ac:	4c16      	ldr	r4, [pc, #88]	; (2608 <blinkCursor+0x104>)
    25ae:	0025      	movs	r5, r4
    25b0:	35c8      	adds	r5, #200	; 0xc8
			setPixel((back_Color_High<<8)|back_Color_Low);
    25b2:	4b16      	ldr	r3, [pc, #88]	; (260c <blinkCursor+0x108>)
    25b4:	4698      	mov	r8, r3
    25b6:	4f16      	ldr	r7, [pc, #88]	; (2610 <blinkCursor+0x10c>)
    25b8:	4e16      	ldr	r6, [pc, #88]	; (2614 <blinkCursor+0x110>)
    25ba:	e00b      	b.n	25d4 <blinkCursor+0xd0>
			setPixel((fore_Color_High<<8)|fore_Color_Low);
    25bc:	4b16      	ldr	r3, [pc, #88]	; (2618 <blinkCursor+0x114>)
    25be:	8818      	ldrh	r0, [r3, #0]
    25c0:	0200      	lsls	r0, r0, #8
    25c2:	4b16      	ldr	r3, [pc, #88]	; (261c <blinkCursor+0x118>)
    25c4:	881b      	ldrh	r3, [r3, #0]
    25c6:	4318      	orrs	r0, r3
    25c8:	b280      	uxth	r0, r0
    25ca:	4b12      	ldr	r3, [pc, #72]	; (2614 <blinkCursor+0x110>)
    25cc:	4798      	blx	r3
    25ce:	3401      	adds	r4, #1
		for(uint16_t i = 0 ; i < 200 ; i++)
    25d0:	42ac      	cmp	r4, r5
    25d2:	d00a      	beq.n	25ea <blinkCursor+0xe6>
			if((cursorBuffer[i] == 0xFF))
    25d4:	7823      	ldrb	r3, [r4, #0]
    25d6:	2bff      	cmp	r3, #255	; 0xff
    25d8:	d0f0      	beq.n	25bc <blinkCursor+0xb8>
			setPixel((back_Color_High<<8)|back_Color_Low);
    25da:	4643      	mov	r3, r8
    25dc:	8818      	ldrh	r0, [r3, #0]
    25de:	0200      	lsls	r0, r0, #8
    25e0:	883b      	ldrh	r3, [r7, #0]
    25e2:	4318      	orrs	r0, r3
    25e4:	b280      	uxth	r0, r0
    25e6:	47b0      	blx	r6
    25e8:	e7f1      	b.n	25ce <blinkCursor+0xca>
		cursorBlinkState = !cursorBlinkState;
    25ea:	4a03      	ldr	r2, [pc, #12]	; (25f8 <blinkCursor+0xf4>)
    25ec:	7813      	ldrb	r3, [r2, #0]
    25ee:	2101      	movs	r1, #1
    25f0:	404b      	eors	r3, r1
    25f2:	7013      	strb	r3, [r2, #0]
}
    25f4:	e7c4      	b.n	2580 <blinkCursor+0x7c>
    25f6:	46c0      	nop			; (mov r8, r8)
    25f8:	20000010 	.word	0x20000010
    25fc:	20000298 	.word	0x20000298
    2600:	2000029a 	.word	0x2000029a
    2604:	00002979 	.word	0x00002979
    2608:	20000308 	.word	0x20000308
    260c:	200003d6 	.word	0x200003d6
    2610:	200003d0 	.word	0x200003d0
    2614:	00002b49 	.word	0x00002b49
    2618:	200003d2 	.word	0x200003d2
    261c:	200003d4 	.word	0x200003d4

00002620 <printKeyboardBuffer>:
{
    2620:	b5f0      	push	{r4, r5, r6, r7, lr}
    2622:	46de      	mov	lr, fp
    2624:	4657      	mov	r7, sl
    2626:	464e      	mov	r6, r9
    2628:	4645      	mov	r5, r8
    262a:	b5e0      	push	{r5, r6, r7, lr}
    262c:	b0a7      	sub	sp, #156	; 0x9c
	char noCase[] =	  
    262e:	4c93      	ldr	r4, [pc, #588]	; (287c <printKeyboardBuffer+0x25c>)
    2630:	2246      	movs	r2, #70	; 0x46
    2632:	0021      	movs	r1, r4
    2634:	a814      	add	r0, sp, #80	; 0x50
    2636:	4d92      	ldr	r5, [pc, #584]	; (2880 <printKeyboardBuffer+0x260>)
    2638:	47a8      	blx	r5
	char shiftCase[] = 
    263a:	0021      	movs	r1, r4
    263c:	3148      	adds	r1, #72	; 0x48
    263e:	2246      	movs	r2, #70	; 0x46
    2640:	a802      	add	r0, sp, #8
    2642:	47a8      	blx	r5
    2644:	4e8f      	ldr	r6, [pc, #572]	; (2884 <printKeyboardBuffer+0x264>)
    2646:	0031      	movs	r1, r6
    2648:	3114      	adds	r1, #20
    264a:	0034      	movs	r4, r6
	bool shifted = false;
    264c:	2300      	movs	r3, #0
    264e:	9301      	str	r3, [sp, #4]
    2650:	e002      	b.n	2658 <printKeyboardBuffer+0x38>
    2652:	3401      	adds	r4, #1
	for(int i=0; i<20; i++)
    2654:	428c      	cmp	r4, r1
    2656:	d00b      	beq.n	2670 <printKeyboardBuffer+0x50>
		if((scanCodeBuffer[i] == 13) | (scanCodeBuffer[i] == 49))
    2658:	7823      	ldrb	r3, [r4, #0]
    265a:	001a      	movs	r2, r3
    265c:	3a0d      	subs	r2, #13
    265e:	4250      	negs	r0, r2
    2660:	4142      	adcs	r2, r0
    2662:	3b31      	subs	r3, #49	; 0x31
    2664:	4258      	negs	r0, r3
    2666:	4143      	adcs	r3, r0
    2668:	4313      	orrs	r3, r2
    266a:	d0f2      	beq.n	2652 <printKeyboardBuffer+0x32>
			shifted = true;
    266c:	9301      	str	r3, [sp, #4]
    266e:	e7f0      	b.n	2652 <printKeyboardBuffer+0x32>
    2670:	2500      	movs	r5, #0
		if(!keyDown(scanCodeBuffer[i]))
    2672:	4b84      	ldr	r3, [pc, #528]	; (2884 <printKeyboardBuffer+0x264>)
    2674:	4699      	mov	r9, r3
			keyDownBuffer[i] = scanCodeBuffer[i];
    2676:	4b84      	ldr	r3, [pc, #528]	; (2888 <printKeyboardBuffer+0x268>)
    2678:	469a      	mov	sl, r3
    267a:	e007      	b.n	268c <printKeyboardBuffer+0x6c>
				if(xCharPos > 0)  ///I think I need to decouple the reading the next cursor
    267c:	4b83      	ldr	r3, [pc, #524]	; (288c <printKeyboardBuffer+0x26c>)
    267e:	881b      	ldrh	r3, [r3, #0]
    2680:	2b00      	cmp	r3, #0
    2682:	d136      	bne.n	26f2 <printKeyboardBuffer+0xd2>
	for(int i=0; i<20; i++)
    2684:	3501      	adds	r5, #1
    2686:	2d14      	cmp	r5, #20
    2688:	d100      	bne.n	268c <printKeyboardBuffer+0x6c>
    268a:	e0ea      	b.n	2862 <printKeyboardBuffer+0x242>
		if(!keyDown(scanCodeBuffer[i]))
    268c:	464b      	mov	r3, r9
    268e:	5cef      	ldrb	r7, [r5, r3]
    2690:	0038      	movs	r0, r7
    2692:	4b7f      	ldr	r3, [pc, #508]	; (2890 <printKeyboardBuffer+0x270>)
    2694:	4798      	blx	r3
    2696:	2800      	cmp	r0, #0
    2698:	d1f4      	bne.n	2684 <printKeyboardBuffer+0x64>
			keyDownBuffer[i] = scanCodeBuffer[i];
    269a:	4653      	mov	r3, sl
    269c:	555f      	strb	r7, [r3, r5]
			if(scanCodeBuffer[i] == 0xFF)
    269e:	2fff      	cmp	r7, #255	; 0xff
    26a0:	d0f0      	beq.n	2684 <printKeyboardBuffer+0x64>
			else if(scanCodeBuffer[i] == 35) //left
    26a2:	2f23      	cmp	r7, #35	; 0x23
    26a4:	d0ea      	beq.n	267c <printKeyboardBuffer+0x5c>
			else if(scanCodeBuffer[i] == 45)	//down
    26a6:	2f2d      	cmp	r7, #45	; 0x2d
    26a8:	d03a      	beq.n	2720 <printKeyboardBuffer+0x100>
			else if(scanCodeBuffer[i] == 55)	//up
    26aa:	2f37      	cmp	r7, #55	; 0x37
    26ac:	d053      	beq.n	2756 <printKeyboardBuffer+0x136>
			else if(scanCodeBuffer[i] == 65)	//right
    26ae:	2f41      	cmp	r7, #65	; 0x41
    26b0:	d06c      	beq.n	278c <printKeyboardBuffer+0x16c>
			else if((scanCodeBuffer[i] == 49) | (scanCodeBuffer[i] == 13))
    26b2:	2f31      	cmp	r7, #49	; 0x31
    26b4:	d0e6      	beq.n	2684 <printKeyboardBuffer+0x64>
    26b6:	2f0d      	cmp	r7, #13
    26b8:	d0e4      	beq.n	2684 <printKeyboardBuffer+0x64>
			else if(scanCodeBuffer[i] == 58) //Return
    26ba:	2f3a      	cmp	r7, #58	; 0x3a
    26bc:	d100      	bne.n	26c0 <printKeyboardBuffer+0xa0>
    26be:	e081      	b.n	27c4 <printKeyboardBuffer+0x1a4>
			else if(scanCodeBuffer[i] == 69) //Line
    26c0:	2f45      	cmp	r7, #69	; 0x45
    26c2:	d100      	bne.n	26c6 <printKeyboardBuffer+0xa6>
    26c4:	e08f      	b.n	27e6 <printKeyboardBuffer+0x1c6>
			else if(scanCodeBuffer[i] == 66) //Backspace
    26c6:	2f42      	cmp	r7, #66	; 0x42
    26c8:	d100      	bne.n	26cc <printKeyboardBuffer+0xac>
    26ca:	e097      	b.n	27fc <printKeyboardBuffer+0x1dc>
				if(shifted)
    26cc:	9b01      	ldr	r3, [sp, #4]
    26ce:	2b00      	cmp	r3, #0
    26d0:	d100      	bne.n	26d4 <printKeyboardBuffer+0xb4>
    26d2:	e0af      	b.n	2834 <printKeyboardBuffer+0x214>
					drawChar(shiftCase[scanCodeBuffer[i]]);
    26d4:	ab02      	add	r3, sp, #8
    26d6:	5dd8      	ldrb	r0, [r3, r7]
    26d8:	4b6e      	ldr	r3, [pc, #440]	; (2894 <printKeyboardBuffer+0x274>)
    26da:	4798      	blx	r3
					if(xCharPos < 79)
    26dc:	4b6b      	ldr	r3, [pc, #428]	; (288c <printKeyboardBuffer+0x26c>)
    26de:	8818      	ldrh	r0, [r3, #0]
    26e0:	284e      	cmp	r0, #78	; 0x4e
    26e2:	d800      	bhi.n	26e6 <printKeyboardBuffer+0xc6>
    26e4:	e09d      	b.n	2822 <printKeyboardBuffer+0x202>
					cursorBlinkState = true;
    26e6:	2201      	movs	r2, #1
    26e8:	4b6b      	ldr	r3, [pc, #428]	; (2898 <printKeyboardBuffer+0x278>)
    26ea:	701a      	strb	r2, [r3, #0]
					blinkCursor();
    26ec:	4b6b      	ldr	r3, [pc, #428]	; (289c <printKeyboardBuffer+0x27c>)
    26ee:	4798      	blx	r3
    26f0:	e7c8      	b.n	2684 <printKeyboardBuffer+0x64>
					drawCursorBuffer();
    26f2:	4f6b      	ldr	r7, [pc, #428]	; (28a0 <printKeyboardBuffer+0x280>)
    26f4:	47b8      	blx	r7
					readCursor(xCharPos-1,yCharPos);
    26f6:	4b6b      	ldr	r3, [pc, #428]	; (28a4 <printKeyboardBuffer+0x284>)
    26f8:	8819      	ldrh	r1, [r3, #0]
    26fa:	4b64      	ldr	r3, [pc, #400]	; (288c <printKeyboardBuffer+0x26c>)
    26fc:	469b      	mov	fp, r3
    26fe:	8818      	ldrh	r0, [r3, #0]
    2700:	3801      	subs	r0, #1
    2702:	b280      	uxth	r0, r0
    2704:	4b68      	ldr	r3, [pc, #416]	; (28a8 <printKeyboardBuffer+0x288>)
    2706:	4798      	blx	r3
					xCharPos--;
    2708:	465b      	mov	r3, fp
    270a:	881b      	ldrh	r3, [r3, #0]
    270c:	3b01      	subs	r3, #1
    270e:	465a      	mov	r2, fp
    2710:	8013      	strh	r3, [r2, #0]
					drawCursorBuffer();
    2712:	47b8      	blx	r7
					cursorBlinkState = true;
    2714:	2201      	movs	r2, #1
    2716:	4b60      	ldr	r3, [pc, #384]	; (2898 <printKeyboardBuffer+0x278>)
    2718:	701a      	strb	r2, [r3, #0]
					blinkCursor();
    271a:	4b60      	ldr	r3, [pc, #384]	; (289c <printKeyboardBuffer+0x27c>)
    271c:	4798      	blx	r3
    271e:	e7b1      	b.n	2684 <printKeyboardBuffer+0x64>
				if(yCharPos < 24)
    2720:	4b60      	ldr	r3, [pc, #384]	; (28a4 <printKeyboardBuffer+0x284>)
    2722:	881b      	ldrh	r3, [r3, #0]
    2724:	2b17      	cmp	r3, #23
    2726:	d8ad      	bhi.n	2684 <printKeyboardBuffer+0x64>
					drawCursorBuffer();
    2728:	4f5d      	ldr	r7, [pc, #372]	; (28a0 <printKeyboardBuffer+0x280>)
    272a:	47b8      	blx	r7
					readCursor(xCharPos,yCharPos+1);
    272c:	4b5d      	ldr	r3, [pc, #372]	; (28a4 <printKeyboardBuffer+0x284>)
    272e:	469b      	mov	fp, r3
    2730:	8819      	ldrh	r1, [r3, #0]
    2732:	3101      	adds	r1, #1
    2734:	b289      	uxth	r1, r1
    2736:	4b55      	ldr	r3, [pc, #340]	; (288c <printKeyboardBuffer+0x26c>)
    2738:	8818      	ldrh	r0, [r3, #0]
    273a:	4b5b      	ldr	r3, [pc, #364]	; (28a8 <printKeyboardBuffer+0x288>)
    273c:	4798      	blx	r3
					yCharPos++;
    273e:	465b      	mov	r3, fp
    2740:	881b      	ldrh	r3, [r3, #0]
    2742:	3301      	adds	r3, #1
    2744:	465a      	mov	r2, fp
    2746:	8013      	strh	r3, [r2, #0]
					drawCursorBuffer();
    2748:	47b8      	blx	r7
					cursorBlinkState = true;
    274a:	2201      	movs	r2, #1
    274c:	4b52      	ldr	r3, [pc, #328]	; (2898 <printKeyboardBuffer+0x278>)
    274e:	701a      	strb	r2, [r3, #0]
					blinkCursor();
    2750:	4b52      	ldr	r3, [pc, #328]	; (289c <printKeyboardBuffer+0x27c>)
    2752:	4798      	blx	r3
    2754:	e796      	b.n	2684 <printKeyboardBuffer+0x64>
				if(yCharPos > 0)
    2756:	4b53      	ldr	r3, [pc, #332]	; (28a4 <printKeyboardBuffer+0x284>)
    2758:	881b      	ldrh	r3, [r3, #0]
    275a:	2b00      	cmp	r3, #0
    275c:	d092      	beq.n	2684 <printKeyboardBuffer+0x64>
					drawCursorBuffer();
    275e:	4f50      	ldr	r7, [pc, #320]	; (28a0 <printKeyboardBuffer+0x280>)
    2760:	47b8      	blx	r7
					readCursor(xCharPos,yCharPos-1);
    2762:	4b50      	ldr	r3, [pc, #320]	; (28a4 <printKeyboardBuffer+0x284>)
    2764:	469b      	mov	fp, r3
    2766:	8819      	ldrh	r1, [r3, #0]
    2768:	3901      	subs	r1, #1
    276a:	b289      	uxth	r1, r1
    276c:	4b47      	ldr	r3, [pc, #284]	; (288c <printKeyboardBuffer+0x26c>)
    276e:	8818      	ldrh	r0, [r3, #0]
    2770:	4b4d      	ldr	r3, [pc, #308]	; (28a8 <printKeyboardBuffer+0x288>)
    2772:	4798      	blx	r3
					yCharPos--;
    2774:	465b      	mov	r3, fp
    2776:	881b      	ldrh	r3, [r3, #0]
    2778:	3b01      	subs	r3, #1
    277a:	465a      	mov	r2, fp
    277c:	8013      	strh	r3, [r2, #0]
					drawCursorBuffer();
    277e:	47b8      	blx	r7
					cursorBlinkState = true;
    2780:	2201      	movs	r2, #1
    2782:	4b45      	ldr	r3, [pc, #276]	; (2898 <printKeyboardBuffer+0x278>)
    2784:	701a      	strb	r2, [r3, #0]
					blinkCursor();
    2786:	4b45      	ldr	r3, [pc, #276]	; (289c <printKeyboardBuffer+0x27c>)
    2788:	4798      	blx	r3
    278a:	e77b      	b.n	2684 <printKeyboardBuffer+0x64>
				if(xCharPos < 79)
    278c:	4b3f      	ldr	r3, [pc, #252]	; (288c <printKeyboardBuffer+0x26c>)
    278e:	881b      	ldrh	r3, [r3, #0]
    2790:	2b4e      	cmp	r3, #78	; 0x4e
    2792:	d900      	bls.n	2796 <printKeyboardBuffer+0x176>
    2794:	e776      	b.n	2684 <printKeyboardBuffer+0x64>
					drawCursorBuffer();
    2796:	4f42      	ldr	r7, [pc, #264]	; (28a0 <printKeyboardBuffer+0x280>)
    2798:	47b8      	blx	r7
					readCursor(xCharPos+1,yCharPos);
    279a:	4b42      	ldr	r3, [pc, #264]	; (28a4 <printKeyboardBuffer+0x284>)
    279c:	8819      	ldrh	r1, [r3, #0]
    279e:	4b3b      	ldr	r3, [pc, #236]	; (288c <printKeyboardBuffer+0x26c>)
    27a0:	469b      	mov	fp, r3
    27a2:	8818      	ldrh	r0, [r3, #0]
    27a4:	3001      	adds	r0, #1
    27a6:	b280      	uxth	r0, r0
    27a8:	4b3f      	ldr	r3, [pc, #252]	; (28a8 <printKeyboardBuffer+0x288>)
    27aa:	4798      	blx	r3
					xCharPos++;
    27ac:	465b      	mov	r3, fp
    27ae:	881b      	ldrh	r3, [r3, #0]
    27b0:	3301      	adds	r3, #1
    27b2:	465a      	mov	r2, fp
    27b4:	8013      	strh	r3, [r2, #0]
					drawCursorBuffer();
    27b6:	47b8      	blx	r7
					cursorBlinkState = true;
    27b8:	2201      	movs	r2, #1
    27ba:	4b37      	ldr	r3, [pc, #220]	; (2898 <printKeyboardBuffer+0x278>)
    27bc:	701a      	strb	r2, [r3, #0]
					blinkCursor();
    27be:	4b37      	ldr	r3, [pc, #220]	; (289c <printKeyboardBuffer+0x27c>)
    27c0:	4798      	blx	r3
    27c2:	e75f      	b.n	2684 <printKeyboardBuffer+0x64>
				if(yCharPos == 23)
    27c4:	4b37      	ldr	r3, [pc, #220]	; (28a4 <printKeyboardBuffer+0x284>)
    27c6:	881b      	ldrh	r3, [r3, #0]
    27c8:	2b17      	cmp	r3, #23
    27ca:	d006      	beq.n	27da <printKeyboardBuffer+0x1ba>
					yCharPos++;
    27cc:	3301      	adds	r3, #1
    27ce:	4a35      	ldr	r2, [pc, #212]	; (28a4 <printKeyboardBuffer+0x284>)
    27d0:	8013      	strh	r3, [r2, #0]
					xCharPos = 0;
    27d2:	2200      	movs	r2, #0
    27d4:	4b2d      	ldr	r3, [pc, #180]	; (288c <printKeyboardBuffer+0x26c>)
    27d6:	801a      	strh	r2, [r3, #0]
    27d8:	e754      	b.n	2684 <printKeyboardBuffer+0x64>
					newLine();
    27da:	4b34      	ldr	r3, [pc, #208]	; (28ac <printKeyboardBuffer+0x28c>)
    27dc:	4798      	blx	r3
					xCharPos = 0;
    27de:	2200      	movs	r2, #0
    27e0:	4b2a      	ldr	r3, [pc, #168]	; (288c <printKeyboardBuffer+0x26c>)
    27e2:	801a      	strh	r2, [r3, #0]
    27e4:	e74e      	b.n	2684 <printKeyboardBuffer+0x64>
				if(yCharPos == 23)
    27e6:	4b2f      	ldr	r3, [pc, #188]	; (28a4 <printKeyboardBuffer+0x284>)
    27e8:	881b      	ldrh	r3, [r3, #0]
    27ea:	2b17      	cmp	r3, #23
    27ec:	d003      	beq.n	27f6 <printKeyboardBuffer+0x1d6>
					yCharPos++;
    27ee:	3301      	adds	r3, #1
    27f0:	4a2c      	ldr	r2, [pc, #176]	; (28a4 <printKeyboardBuffer+0x284>)
    27f2:	8013      	strh	r3, [r2, #0]
    27f4:	e746      	b.n	2684 <printKeyboardBuffer+0x64>
					newLine();
    27f6:	4b2d      	ldr	r3, [pc, #180]	; (28ac <printKeyboardBuffer+0x28c>)
    27f8:	4798      	blx	r3
    27fa:	e743      	b.n	2684 <printKeyboardBuffer+0x64>
				drawCursorBuffer();
    27fc:	4b28      	ldr	r3, [pc, #160]	; (28a0 <printKeyboardBuffer+0x280>)
    27fe:	4698      	mov	r8, r3
    2800:	4798      	blx	r3
				xCharPos--;
    2802:	4f22      	ldr	r7, [pc, #136]	; (288c <printKeyboardBuffer+0x26c>)
    2804:	883b      	ldrh	r3, [r7, #0]
    2806:	3b01      	subs	r3, #1
    2808:	803b      	strh	r3, [r7, #0]
				drawChar(0x20);
    280a:	2020      	movs	r0, #32
    280c:	4b21      	ldr	r3, [pc, #132]	; (2894 <printKeyboardBuffer+0x274>)
    280e:	4798      	blx	r3
				drawCursorBuffer();
    2810:	47c0      	blx	r8
				clearCursorBuffer();
    2812:	4b27      	ldr	r3, [pc, #156]	; (28b0 <printKeyboardBuffer+0x290>)
    2814:	4798      	blx	r3
				readCursor(xCharPos,yCharPos);
    2816:	4b23      	ldr	r3, [pc, #140]	; (28a4 <printKeyboardBuffer+0x284>)
    2818:	8819      	ldrh	r1, [r3, #0]
    281a:	8838      	ldrh	r0, [r7, #0]
    281c:	4b22      	ldr	r3, [pc, #136]	; (28a8 <printKeyboardBuffer+0x288>)
    281e:	4798      	blx	r3
    2820:	e730      	b.n	2684 <printKeyboardBuffer+0x64>
						readCursor(xCharPos++,yCharPos);
    2822:	1c42      	adds	r2, r0, #1
    2824:	801a      	strh	r2, [r3, #0]
    2826:	4b1f      	ldr	r3, [pc, #124]	; (28a4 <printKeyboardBuffer+0x284>)
    2828:	8819      	ldrh	r1, [r3, #0]
    282a:	4b1f      	ldr	r3, [pc, #124]	; (28a8 <printKeyboardBuffer+0x288>)
    282c:	4798      	blx	r3
						clearCursorBuffer();
    282e:	4b20      	ldr	r3, [pc, #128]	; (28b0 <printKeyboardBuffer+0x290>)
    2830:	4798      	blx	r3
    2832:	e758      	b.n	26e6 <printKeyboardBuffer+0xc6>
					drawChar(noCase[scanCodeBuffer[i]]);
    2834:	ab14      	add	r3, sp, #80	; 0x50
    2836:	5dd8      	ldrb	r0, [r3, r7]
    2838:	4b16      	ldr	r3, [pc, #88]	; (2894 <printKeyboardBuffer+0x274>)
    283a:	4798      	blx	r3
					if(xCharPos < 79)
    283c:	4b13      	ldr	r3, [pc, #76]	; (288c <printKeyboardBuffer+0x26c>)
    283e:	8818      	ldrh	r0, [r3, #0]
    2840:	284e      	cmp	r0, #78	; 0x4e
    2842:	d905      	bls.n	2850 <printKeyboardBuffer+0x230>
					cursorBlinkState = true;
    2844:	2201      	movs	r2, #1
    2846:	4b14      	ldr	r3, [pc, #80]	; (2898 <printKeyboardBuffer+0x278>)
    2848:	701a      	strb	r2, [r3, #0]
					blinkCursor();
    284a:	4b14      	ldr	r3, [pc, #80]	; (289c <printKeyboardBuffer+0x27c>)
    284c:	4798      	blx	r3
    284e:	e719      	b.n	2684 <printKeyboardBuffer+0x64>
						readCursor(xCharPos++,yCharPos);
    2850:	1c42      	adds	r2, r0, #1
    2852:	801a      	strh	r2, [r3, #0]
    2854:	4b13      	ldr	r3, [pc, #76]	; (28a4 <printKeyboardBuffer+0x284>)
    2856:	8819      	ldrh	r1, [r3, #0]
    2858:	4b13      	ldr	r3, [pc, #76]	; (28a8 <printKeyboardBuffer+0x288>)
    285a:	4798      	blx	r3
						clearCursorBuffer();
    285c:	4b14      	ldr	r3, [pc, #80]	; (28b0 <printKeyboardBuffer+0x290>)
    285e:	4798      	blx	r3
    2860:	e7f0      	b.n	2844 <printKeyboardBuffer+0x224>
		scanCodeBuffer[i] = 0xFF;
    2862:	23ff      	movs	r3, #255	; 0xff
    2864:	7033      	strb	r3, [r6, #0]
    2866:	3601      	adds	r6, #1
	for(int i = 0 ; i < 20 ; i++)
    2868:	42a6      	cmp	r6, r4
    286a:	d1fb      	bne.n	2864 <printKeyboardBuffer+0x244>
}
    286c:	b027      	add	sp, #156	; 0x9c
    286e:	bc3c      	pop	{r2, r3, r4, r5}
    2870:	4690      	mov	r8, r2
    2872:	4699      	mov	r9, r3
    2874:	46a2      	mov	sl, r4
    2876:	46ab      	mov	fp, r5
    2878:	bdf0      	pop	{r4, r5, r6, r7, pc}
    287a:	46c0      	nop			; (mov r8, r8)
    287c:	00006328 	.word	0x00006328
    2880:	00003309 	.word	0x00003309
    2884:	20000028 	.word	0x20000028
    2888:	20000014 	.word	0x20000014
    288c:	20000298 	.word	0x20000298
    2890:	0000212d 	.word	0x0000212d
    2894:	00001e6d 	.word	0x00001e6d
    2898:	20000010 	.word	0x20000010
    289c:	00002505 	.word	0x00002505
    28a0:	00002395 	.word	0x00002395
    28a4:	2000029a 	.word	0x2000029a
    28a8:	00002429 	.word	0x00002429
    28ac:	00001f45 	.word	0x00001f45
    28b0:	0000237d 	.word	0x0000237d

000028b4 <setColorRGB>:

uint16_t fore_Color_High, fore_Color_Low;
uint16_t back_Color_High, back_Color_Low;

void setColorRGB(uint8_t r, uint8_t g, uint8_t b)
{
    28b4:	b510      	push	{r4, lr}
	fore_Color_High = ((r&248)|g>>5);
    28b6:	094b      	lsrs	r3, r1, #5
    28b8:	2407      	movs	r4, #7
    28ba:	43a0      	bics	r0, r4
    28bc:	4318      	orrs	r0, r3
    28be:	4b05      	ldr	r3, [pc, #20]	; (28d4 <setColorRGB+0x20>)
    28c0:	8018      	strh	r0, [r3, #0]
	fore_Color_Low = ((g&28)<<3|b>>3);
    28c2:	00c9      	lsls	r1, r1, #3
    28c4:	23e0      	movs	r3, #224	; 0xe0
    28c6:	4019      	ands	r1, r3
    28c8:	08d2      	lsrs	r2, r2, #3
    28ca:	430a      	orrs	r2, r1
    28cc:	4b02      	ldr	r3, [pc, #8]	; (28d8 <setColorRGB+0x24>)
    28ce:	801a      	strh	r2, [r3, #0]
}
    28d0:	bd10      	pop	{r4, pc}
    28d2:	46c0      	nop			; (mov r8, r8)
    28d4:	200003d2 	.word	0x200003d2
    28d8:	200003d4 	.word	0x200003d4

000028dc <setBackColorRGB>:
	fore_Color_Low = (color & 0xFF);
}

void setBackColorRGB(unsigned char r,
unsigned char g, unsigned char b)
{
    28dc:	b510      	push	{r4, lr}
	back_Color_High = ((r&248)|g>>5);
    28de:	094b      	lsrs	r3, r1, #5
    28e0:	2407      	movs	r4, #7
    28e2:	43a0      	bics	r0, r4
    28e4:	4318      	orrs	r0, r3
    28e6:	4b05      	ldr	r3, [pc, #20]	; (28fc <setBackColorRGB+0x20>)
    28e8:	8018      	strh	r0, [r3, #0]
	back_Color_Low = ((g&28)<<3|b>>3);
    28ea:	00c9      	lsls	r1, r1, #3
    28ec:	23e0      	movs	r3, #224	; 0xe0
    28ee:	4019      	ands	r1, r3
    28f0:	08d2      	lsrs	r2, r2, #3
    28f2:	430a      	orrs	r2, r1
    28f4:	4b02      	ldr	r3, [pc, #8]	; (2900 <setBackColorRGB+0x24>)
    28f6:	801a      	strh	r2, [r3, #0]
}
    28f8:	bd10      	pop	{r4, pc}
    28fa:	46c0      	nop			; (mov r8, r8)
    28fc:	200003d6 	.word	0x200003d6
    2900:	200003d0 	.word	0x200003d0

00002904 <LCD_Fast_Fill>:
	(((long)(x2-x1)+1)*((long)(y2-y1)+1)));
	REG_PORT_OUTSET1 = LCD_CS;
}

void LCD_Fast_Fill(int ch, int cl, long pix)
{
    2904:	b570      	push	{r4, r5, r6, lr}
	int blocks;
	
	
	REG_PORT_OUTCLR1 = 0x0000ffff;
    2906:	4c19      	ldr	r4, [pc, #100]	; (296c <LCD_Fast_Fill+0x68>)
    2908:	4b19      	ldr	r3, [pc, #100]	; (2970 <LCD_Fast_Fill+0x6c>)
    290a:	601c      	str	r4, [r3, #0]
	REG_PORT_OUTSET1 = (ch << 8) | cl;
    290c:	0200      	lsls	r0, r0, #8
    290e:	4301      	orrs	r1, r0
    2910:	4b18      	ldr	r3, [pc, #96]	; (2974 <LCD_Fast_Fill+0x70>)
    2912:	6019      	str	r1, [r3, #0]

	blocks = pix/16;
    2914:	17d3      	asrs	r3, r2, #31
    2916:	260f      	movs	r6, #15
    2918:	401e      	ands	r6, r3
    291a:	18b6      	adds	r6, r6, r2
    291c:	1136      	asrs	r6, r6, #4
	for (int i=0; i<blocks; i++)
    291e:	2500      	movs	r5, #0
    2920:	2e00      	cmp	r6, #0
    2922:	dd0c      	ble.n	293e <LCD_Fast_Fill+0x3a>
	{
		for (int j=0; j<16; j++)
		{
			REG_PORT_OUTCLR1 = LCD_WR;
    2924:	4c12      	ldr	r4, [pc, #72]	; (2970 <LCD_Fast_Fill+0x6c>)
    2926:	2180      	movs	r1, #128	; 0x80
    2928:	0289      	lsls	r1, r1, #10
			REG_PORT_OUTSET1 = LCD_WR;
    292a:	4812      	ldr	r0, [pc, #72]	; (2974 <LCD_Fast_Fill+0x70>)
{
    292c:	2310      	movs	r3, #16
			REG_PORT_OUTCLR1 = LCD_WR;
    292e:	6021      	str	r1, [r4, #0]
			REG_PORT_OUTSET1 = LCD_WR;
    2930:	6001      	str	r1, [r0, #0]
    2932:	3b01      	subs	r3, #1
		for (int j=0; j<16; j++)
    2934:	2b00      	cmp	r3, #0
    2936:	d1fa      	bne.n	292e <LCD_Fast_Fill+0x2a>
	for (int i=0; i<blocks; i++)
    2938:	3501      	adds	r5, #1
    293a:	42ae      	cmp	r6, r5
    293c:	d1f6      	bne.n	292c <LCD_Fast_Fill+0x28>
		}
	}
	
	if ((pix % 16) != 0)
    293e:	0713      	lsls	r3, r2, #28
    2940:	d013      	beq.n	296a <LCD_Fast_Fill+0x66>
	for (int i=0; i<(pix % 16)+1; i++)
    2942:	17d3      	asrs	r3, r2, #31
    2944:	0f1b      	lsrs	r3, r3, #28
    2946:	18d2      	adds	r2, r2, r3
    2948:	210f      	movs	r1, #15
    294a:	4011      	ands	r1, r2
    294c:	1ac9      	subs	r1, r1, r3
    294e:	1c4b      	adds	r3, r1, #1
    2950:	2b00      	cmp	r3, #0
    2952:	dd0a      	ble.n	296a <LCD_Fast_Fill+0x66>
    2954:	0019      	movs	r1, r3
    2956:	2300      	movs	r3, #0
	{
		REG_PORT_OUTCLR1 = LCD_WR;
    2958:	4c05      	ldr	r4, [pc, #20]	; (2970 <LCD_Fast_Fill+0x6c>)
    295a:	2280      	movs	r2, #128	; 0x80
    295c:	0292      	lsls	r2, r2, #10
		REG_PORT_OUTSET1 = LCD_WR;
    295e:	4805      	ldr	r0, [pc, #20]	; (2974 <LCD_Fast_Fill+0x70>)
		REG_PORT_OUTCLR1 = LCD_WR;
    2960:	6022      	str	r2, [r4, #0]
		REG_PORT_OUTSET1 = LCD_WR;
    2962:	6002      	str	r2, [r0, #0]
	for (int i=0; i<(pix % 16)+1; i++)
    2964:	3301      	adds	r3, #1
    2966:	4299      	cmp	r1, r3
    2968:	d1fa      	bne.n	2960 <LCD_Fast_Fill+0x5c>
	}
}
    296a:	bd70      	pop	{r4, r5, r6, pc}
    296c:	0000ffff 	.word	0x0000ffff
    2970:	41004494 	.word	0x41004494
    2974:	41004498 	.word	0x41004498

00002978 <setXY>:
{
	setXY(0,0,display_X_size,display_Y_size);
}

void setXY(uint16_t x1, uint16_t y1, uint16_t x2, uint16_t y2)
{
    2978:	b5f0      	push	{r4, r5, r6, r7, lr}
    297a:	b083      	sub	sp, #12
    297c:	0007      	movs	r7, r0
    297e:	9100      	str	r1, [sp, #0]
    2980:	0016      	movs	r6, r2
    2982:	9301      	str	r3, [sp, #4]
	y1=display_Y_size-y1;
	y2=display_Y_size-y2;
	SwapUint16(y1, y2);
	*/
	
	LCD_Write_COM16(0x2a,0x00);
    2984:	2100      	movs	r1, #0
    2986:	202a      	movs	r0, #42	; 0x2a
    2988:	4c17      	ldr	r4, [pc, #92]	; (29e8 <setXY+0x70>)
    298a:	47a0      	blx	r4
	LCD_Write_DATA8(x1>>8);
    298c:	0a38      	lsrs	r0, r7, #8
    298e:	4d17      	ldr	r5, [pc, #92]	; (29ec <setXY+0x74>)
    2990:	47a8      	blx	r5
	LCD_Write_COM16(0x2a,0x01);
    2992:	2101      	movs	r1, #1
    2994:	202a      	movs	r0, #42	; 0x2a
    2996:	47a0      	blx	r4
	LCD_Write_DATA8(x1);
    2998:	b2f8      	uxtb	r0, r7
    299a:	47a8      	blx	r5
	LCD_Write_COM16(0x2a,0x02);
    299c:	2102      	movs	r1, #2
    299e:	202a      	movs	r0, #42	; 0x2a
    29a0:	47a0      	blx	r4
	LCD_Write_DATA8(x2>>8);
    29a2:	0a30      	lsrs	r0, r6, #8
    29a4:	47a8      	blx	r5
	LCD_Write_COM16(0x2a,0x03);
    29a6:	2103      	movs	r1, #3
    29a8:	202a      	movs	r0, #42	; 0x2a
    29aa:	47a0      	blx	r4
	LCD_Write_DATA8(x2);
    29ac:	b2f0      	uxtb	r0, r6
    29ae:	47a8      	blx	r5

	LCD_Write_COM16(0x2b,0x00);
    29b0:	2100      	movs	r1, #0
    29b2:	202b      	movs	r0, #43	; 0x2b
    29b4:	47a0      	blx	r4
	LCD_Write_DATA8(y1>>8);
    29b6:	9e00      	ldr	r6, [sp, #0]
    29b8:	0a30      	lsrs	r0, r6, #8
    29ba:	47a8      	blx	r5
	LCD_Write_COM16(0x2b,0x01);
    29bc:	2101      	movs	r1, #1
    29be:	202b      	movs	r0, #43	; 0x2b
    29c0:	47a0      	blx	r4
	LCD_Write_DATA8(y1);
    29c2:	b2f0      	uxtb	r0, r6
    29c4:	47a8      	blx	r5
	LCD_Write_COM16(0x2b,0x02);
    29c6:	2102      	movs	r1, #2
    29c8:	202b      	movs	r0, #43	; 0x2b
    29ca:	47a0      	blx	r4
	LCD_Write_DATA8(y2>>8);
    29cc:	9e01      	ldr	r6, [sp, #4]
    29ce:	0a30      	lsrs	r0, r6, #8
    29d0:	47a8      	blx	r5
	LCD_Write_COM16(0x2b,0x03);
    29d2:	2103      	movs	r1, #3
    29d4:	202b      	movs	r0, #43	; 0x2b
    29d6:	47a0      	blx	r4
	LCD_Write_DATA8(y2);
    29d8:	b2f0      	uxtb	r0, r6
    29da:	47a8      	blx	r5

	LCD_Write_COM16(0x2c,0x00);
    29dc:	2100      	movs	r1, #0
    29de:	202c      	movs	r0, #44	; 0x2c
    29e0:	47a0      	blx	r4
}
    29e2:	b003      	add	sp, #12
    29e4:	bdf0      	pop	{r4, r5, r6, r7, pc}
    29e6:	46c0      	nop			; (mov r8, r8)
    29e8:	00002bb5 	.word	0x00002bb5
    29ec:	00002be5 	.word	0x00002be5

000029f0 <fillRect>:
{
    29f0:	b5f0      	push	{r4, r5, r6, r7, lr}
    29f2:	46ce      	mov	lr, r9
    29f4:	4647      	mov	r7, r8
    29f6:	b580      	push	{r7, lr}
    29f8:	b083      	sub	sp, #12
    29fa:	4681      	mov	r9, r0
    29fc:	4688      	mov	r8, r1
    29fe:	0015      	movs	r5, r2
    2a00:	001c      	movs	r4, r3
	if (x1>x2)
    2a02:	4290      	cmp	r0, r2
    2a04:	dd02      	ble.n	2a0c <fillRect+0x1c>
    2a06:	0403      	lsls	r3, r0, #16
	SwapUint16(x1, x2);
    2a08:	4691      	mov	r9, r2
    2a0a:	0c1d      	lsrs	r5, r3, #16
	if (y1>y2)
    2a0c:	45a0      	cmp	r8, r4
    2a0e:	dd03      	ble.n	2a18 <fillRect+0x28>
    2a10:	4643      	mov	r3, r8
    2a12:	041b      	lsls	r3, r3, #16
	SwapUint16(y1, y2);
    2a14:	46a0      	mov	r8, r4
    2a16:	0c1c      	lsrs	r4, r3, #16
	REG_PORT_OUTCLR1 = LCD_CS;
    2a18:	2780      	movs	r7, #128	; 0x80
    2a1a:	03ff      	lsls	r7, r7, #15
    2a1c:	4b12      	ldr	r3, [pc, #72]	; (2a68 <fillRect+0x78>)
    2a1e:	601f      	str	r7, [r3, #0]
	setXY(x1, y1, x2, y2);
    2a20:	b2a3      	uxth	r3, r4
    2a22:	b2aa      	uxth	r2, r5
    2a24:	4641      	mov	r1, r8
    2a26:	4668      	mov	r0, sp
    2a28:	80c1      	strh	r1, [r0, #6]
    2a2a:	88c1      	ldrh	r1, [r0, #6]
    2a2c:	4648      	mov	r0, r9
    2a2e:	466e      	mov	r6, sp
    2a30:	80f0      	strh	r0, [r6, #6]
    2a32:	88f0      	ldrh	r0, [r6, #6]
    2a34:	4e0d      	ldr	r6, [pc, #52]	; (2a6c <fillRect+0x7c>)
    2a36:	47b0      	blx	r6
	REG_PORT_OUTSET1 = LCD_DC;
    2a38:	4e0d      	ldr	r6, [pc, #52]	; (2a70 <fillRect+0x80>)
    2a3a:	2380      	movs	r3, #128	; 0x80
    2a3c:	041b      	lsls	r3, r3, #16
    2a3e:	6033      	str	r3, [r6, #0]
	(((long)(x2-x1)+1)*((long)(y2-y1)+1)));
    2a40:	464b      	mov	r3, r9
    2a42:	1aed      	subs	r5, r5, r3
    2a44:	3501      	adds	r5, #1
    2a46:	4643      	mov	r3, r8
    2a48:	1ae2      	subs	r2, r4, r3
    2a4a:	3201      	adds	r2, #1
	LCD_Fast_Fill(fore_Color_High, fore_Color_Low,
    2a4c:	436a      	muls	r2, r5
    2a4e:	4b09      	ldr	r3, [pc, #36]	; (2a74 <fillRect+0x84>)
    2a50:	8819      	ldrh	r1, [r3, #0]
    2a52:	4b09      	ldr	r3, [pc, #36]	; (2a78 <fillRect+0x88>)
    2a54:	8818      	ldrh	r0, [r3, #0]
    2a56:	4b09      	ldr	r3, [pc, #36]	; (2a7c <fillRect+0x8c>)
    2a58:	4798      	blx	r3
	REG_PORT_OUTSET1 = LCD_CS;
    2a5a:	6037      	str	r7, [r6, #0]
}
    2a5c:	b003      	add	sp, #12
    2a5e:	bc0c      	pop	{r2, r3}
    2a60:	4690      	mov	r8, r2
    2a62:	4699      	mov	r9, r3
    2a64:	bdf0      	pop	{r4, r5, r6, r7, pc}
    2a66:	46c0      	nop			; (mov r8, r8)
    2a68:	41004494 	.word	0x41004494
    2a6c:	00002979 	.word	0x00002979
    2a70:	41004498 	.word	0x41004498
    2a74:	200003d4 	.word	0x200003d4
    2a78:	200003d2 	.word	0x200003d2
    2a7c:	00002905 	.word	0x00002905

00002a80 <fillRectBackColor>:
{
    2a80:	b5f0      	push	{r4, r5, r6, r7, lr}
    2a82:	46ce      	mov	lr, r9
    2a84:	4647      	mov	r7, r8
    2a86:	b580      	push	{r7, lr}
    2a88:	b083      	sub	sp, #12
    2a8a:	4681      	mov	r9, r0
    2a8c:	4688      	mov	r8, r1
    2a8e:	0015      	movs	r5, r2
    2a90:	001c      	movs	r4, r3
	if (x1>x2)
    2a92:	4290      	cmp	r0, r2
    2a94:	dd02      	ble.n	2a9c <fillRectBackColor+0x1c>
    2a96:	0403      	lsls	r3, r0, #16
	SwapUint16(x1, x2);
    2a98:	4691      	mov	r9, r2
    2a9a:	0c1d      	lsrs	r5, r3, #16
	if (y1>y2)
    2a9c:	45a0      	cmp	r8, r4
    2a9e:	dd03      	ble.n	2aa8 <fillRectBackColor+0x28>
    2aa0:	4643      	mov	r3, r8
    2aa2:	041b      	lsls	r3, r3, #16
	SwapUint16(y1, y2);
    2aa4:	46a0      	mov	r8, r4
    2aa6:	0c1c      	lsrs	r4, r3, #16
	REG_PORT_OUTCLR1 = LCD_CS;
    2aa8:	2780      	movs	r7, #128	; 0x80
    2aaa:	03ff      	lsls	r7, r7, #15
    2aac:	4b12      	ldr	r3, [pc, #72]	; (2af8 <fillRectBackColor+0x78>)
    2aae:	601f      	str	r7, [r3, #0]
	setXY(x1, y1, x2, y2);
    2ab0:	b2a3      	uxth	r3, r4
    2ab2:	b2aa      	uxth	r2, r5
    2ab4:	4641      	mov	r1, r8
    2ab6:	4668      	mov	r0, sp
    2ab8:	80c1      	strh	r1, [r0, #6]
    2aba:	88c1      	ldrh	r1, [r0, #6]
    2abc:	4648      	mov	r0, r9
    2abe:	466e      	mov	r6, sp
    2ac0:	80f0      	strh	r0, [r6, #6]
    2ac2:	88f0      	ldrh	r0, [r6, #6]
    2ac4:	4e0d      	ldr	r6, [pc, #52]	; (2afc <fillRectBackColor+0x7c>)
    2ac6:	47b0      	blx	r6
	REG_PORT_OUTSET1 = LCD_DC;
    2ac8:	4e0d      	ldr	r6, [pc, #52]	; (2b00 <fillRectBackColor+0x80>)
    2aca:	2380      	movs	r3, #128	; 0x80
    2acc:	041b      	lsls	r3, r3, #16
    2ace:	6033      	str	r3, [r6, #0]
	(((long)(x2-x1)+1)*((long)(y2-y1)+1)));
    2ad0:	464b      	mov	r3, r9
    2ad2:	1aed      	subs	r5, r5, r3
    2ad4:	3501      	adds	r5, #1
    2ad6:	4643      	mov	r3, r8
    2ad8:	1ae2      	subs	r2, r4, r3
    2ada:	3201      	adds	r2, #1
	LCD_Fast_Fill(back_Color_High, back_Color_Low,
    2adc:	436a      	muls	r2, r5
    2ade:	4b09      	ldr	r3, [pc, #36]	; (2b04 <fillRectBackColor+0x84>)
    2ae0:	8819      	ldrh	r1, [r3, #0]
    2ae2:	4b09      	ldr	r3, [pc, #36]	; (2b08 <fillRectBackColor+0x88>)
    2ae4:	8818      	ldrh	r0, [r3, #0]
    2ae6:	4b09      	ldr	r3, [pc, #36]	; (2b0c <fillRectBackColor+0x8c>)
    2ae8:	4798      	blx	r3
	REG_PORT_OUTSET1 = LCD_CS;
    2aea:	6037      	str	r7, [r6, #0]
}
    2aec:	b003      	add	sp, #12
    2aee:	bc0c      	pop	{r2, r3}
    2af0:	4690      	mov	r8, r2
    2af2:	4699      	mov	r9, r3
    2af4:	bdf0      	pop	{r4, r5, r6, r7, pc}
    2af6:	46c0      	nop			; (mov r8, r8)
    2af8:	41004494 	.word	0x41004494
    2afc:	00002979 	.word	0x00002979
    2b00:	41004498 	.word	0x41004498
    2b04:	200003d0 	.word	0x200003d0
    2b08:	200003d6 	.word	0x200003d6
    2b0c:	00002905 	.word	0x00002905

00002b10 <clrXY>:
{
    2b10:	b510      	push	{r4, lr}
	setXY(0,0,display_X_size,display_Y_size);
    2b12:	4b04      	ldr	r3, [pc, #16]	; (2b24 <clrXY+0x14>)
    2b14:	881b      	ldrh	r3, [r3, #0]
    2b16:	4a04      	ldr	r2, [pc, #16]	; (2b28 <clrXY+0x18>)
    2b18:	8812      	ldrh	r2, [r2, #0]
    2b1a:	2100      	movs	r1, #0
    2b1c:	2000      	movs	r0, #0
    2b1e:	4c03      	ldr	r4, [pc, #12]	; (2b2c <clrXY+0x1c>)
    2b20:	47a0      	blx	r4
}
    2b22:	bd10      	pop	{r4, pc}
    2b24:	20000156 	.word	0x20000156
    2b28:	20000154 	.word	0x20000154
    2b2c:	00002979 	.word	0x00002979

00002b30 <clrScr>:
{
    2b30:	b510      	push	{r4, lr}
	REG_PORT_OUTCLR1 = LCD_CS;
    2b32:	2280      	movs	r2, #128	; 0x80
    2b34:	03d2      	lsls	r2, r2, #15
    2b36:	4b02      	ldr	r3, [pc, #8]	; (2b40 <clrScr+0x10>)
    2b38:	601a      	str	r2, [r3, #0]
	clrXY();
    2b3a:	4b02      	ldr	r3, [pc, #8]	; (2b44 <clrScr+0x14>)
    2b3c:	4798      	blx	r3
}
    2b3e:	bd10      	pop	{r4, pc}
    2b40:	41004494 	.word	0x41004494
    2b44:	00002b11 	.word	0x00002b11

00002b48 <setPixel>:

void setPixel(uint16_t color)
{
    2b48:	b510      	push	{r4, lr}
	//it sets it to a 16-bit color.
	LCD_Write_DATA16((color>>8),(color&0xFF));
    2b4a:	b2c1      	uxtb	r1, r0
    2b4c:	0a00      	lsrs	r0, r0, #8
    2b4e:	4b01      	ldr	r3, [pc, #4]	; (2b54 <setPixel+0xc>)
    2b50:	4798      	blx	r3
}
    2b52:	bd10      	pop	{r4, pc}
    2b54:	00002bcd 	.word	0x00002bcd

00002b58 <clearScreen>:
	LCD_Write_DATA8(0x80);
	REG_PORT_OUTSET1 = LCD_CS;
}
*/
void clearScreen(void)
{
    2b58:	b510      	push	{r4, lr}
	fore_Color_High = ((r&248)|g>>5);
    2b5a:	2300      	movs	r3, #0
    2b5c:	4a06      	ldr	r2, [pc, #24]	; (2b78 <clearScreen+0x20>)
    2b5e:	8013      	strh	r3, [r2, #0]
	fore_Color_Low = ((g&28)<<3|b>>3);
    2b60:	4a06      	ldr	r2, [pc, #24]	; (2b7c <clearScreen+0x24>)
    2b62:	8013      	strh	r3, [r2, #0]
	setColorRGB(0,0,0);
	fillRect(0,0,display_Y_size,display_X_size);
    2b64:	4b06      	ldr	r3, [pc, #24]	; (2b80 <clearScreen+0x28>)
    2b66:	881b      	ldrh	r3, [r3, #0]
    2b68:	4a06      	ldr	r2, [pc, #24]	; (2b84 <clearScreen+0x2c>)
    2b6a:	8812      	ldrh	r2, [r2, #0]
    2b6c:	2100      	movs	r1, #0
    2b6e:	2000      	movs	r0, #0
    2b70:	4c05      	ldr	r4, [pc, #20]	; (2b88 <clearScreen+0x30>)
    2b72:	47a0      	blx	r4
}
    2b74:	bd10      	pop	{r4, pc}
    2b76:	46c0      	nop			; (mov r8, r8)
    2b78:	200003d2 	.word	0x200003d2
    2b7c:	200003d4 	.word	0x200003d4
    2b80:	20000154 	.word	0x20000154
    2b84:	20000156 	.word	0x20000156
    2b88:	000029f1 	.word	0x000029f1

00002b8c <LCD_Write_Bus>:
	fillRect(0,0,799,489);
		
}

void LCD_Write_Bus(char VH, char VL)
{
    2b8c:	b510      	push	{r4, lr}
	REG_PORT_OUTCLR1 = 0x0000ffff;
    2b8e:	4c06      	ldr	r4, [pc, #24]	; (2ba8 <LCD_Write_Bus+0x1c>)
    2b90:	4b06      	ldr	r3, [pc, #24]	; (2bac <LCD_Write_Bus+0x20>)
    2b92:	6023      	str	r3, [r4, #0]
	REG_PORT_OUTSET1 = (VH << 8) | VL;
    2b94:	0200      	lsls	r0, r0, #8
    2b96:	4301      	orrs	r1, r0
    2b98:	4b05      	ldr	r3, [pc, #20]	; (2bb0 <LCD_Write_Bus+0x24>)
    2b9a:	6019      	str	r1, [r3, #0]
	REG_PORT_OUTCLR1 = LCD_WR;
    2b9c:	2280      	movs	r2, #128	; 0x80
    2b9e:	0292      	lsls	r2, r2, #10
    2ba0:	6022      	str	r2, [r4, #0]
	REG_PORT_OUTSET1 = LCD_WR;
    2ba2:	601a      	str	r2, [r3, #0]
}
    2ba4:	bd10      	pop	{r4, pc}
    2ba6:	46c0      	nop			; (mov r8, r8)
    2ba8:	41004494 	.word	0x41004494
    2bac:	0000ffff 	.word	0x0000ffff
    2bb0:	41004498 	.word	0x41004498

00002bb4 <LCD_Write_COM16>:

void LCD_Write_COM16(char VH, char VL)
{
    2bb4:	b510      	push	{r4, lr}
	REG_PORT_OUTCLR1 = LCD_DC;
    2bb6:	2280      	movs	r2, #128	; 0x80
    2bb8:	0412      	lsls	r2, r2, #16
    2bba:	4b02      	ldr	r3, [pc, #8]	; (2bc4 <LCD_Write_COM16+0x10>)
    2bbc:	601a      	str	r2, [r3, #0]
	LCD_Write_Bus(VH,VL);
    2bbe:	4b02      	ldr	r3, [pc, #8]	; (2bc8 <LCD_Write_COM16+0x14>)
    2bc0:	4798      	blx	r3
}
    2bc2:	bd10      	pop	{r4, pc}
    2bc4:	41004494 	.word	0x41004494
    2bc8:	00002b8d 	.word	0x00002b8d

00002bcc <LCD_Write_DATA16>:
	REG_PORT_OUTCLR1 = LCD_DC;
	LCD_Write_Bus(0x00, VL);
}

void LCD_Write_DATA16(char VH, char VL)
{
    2bcc:	b510      	push	{r4, lr}
	REG_PORT_OUTSET1 = LCD_DC;
    2bce:	2280      	movs	r2, #128	; 0x80
    2bd0:	0412      	lsls	r2, r2, #16
    2bd2:	4b02      	ldr	r3, [pc, #8]	; (2bdc <LCD_Write_DATA16+0x10>)
    2bd4:	601a      	str	r2, [r3, #0]
	LCD_Write_Bus(VH,VL);
    2bd6:	4b02      	ldr	r3, [pc, #8]	; (2be0 <LCD_Write_DATA16+0x14>)
    2bd8:	4798      	blx	r3
}
    2bda:	bd10      	pop	{r4, pc}
    2bdc:	41004498 	.word	0x41004498
    2be0:	00002b8d 	.word	0x00002b8d

00002be4 <LCD_Write_DATA8>:

void LCD_Write_DATA8(char VL)
{
    2be4:	b510      	push	{r4, lr}
    2be6:	0001      	movs	r1, r0
	REG_PORT_OUTSET1 = LCD_DC;
    2be8:	2280      	movs	r2, #128	; 0x80
    2bea:	0412      	lsls	r2, r2, #16
    2bec:	4b02      	ldr	r3, [pc, #8]	; (2bf8 <LCD_Write_DATA8+0x14>)
    2bee:	601a      	str	r2, [r3, #0]
	LCD_Write_Bus(0x00, VL);
    2bf0:	2000      	movs	r0, #0
    2bf2:	4b02      	ldr	r3, [pc, #8]	; (2bfc <LCD_Write_DATA8+0x18>)
    2bf4:	4798      	blx	r3
}
    2bf6:	bd10      	pop	{r4, pc}
    2bf8:	41004498 	.word	0x41004498
    2bfc:	00002b8d 	.word	0x00002b8d

00002c00 <InitLCD>:
{
    2c00:	b5f0      	push	{r4, r5, r6, r7, lr}
    2c02:	46c6      	mov	lr, r8
    2c04:	b500      	push	{lr}
    2c06:	b082      	sub	sp, #8
	REG_PORT_DIRSET1 = 0x0000ffff;		//LCD data bus, PB00 - PB15
    2c08:	4b80      	ldr	r3, [pc, #512]	; (2e0c <InitLCD+0x20c>)
    2c0a:	4f81      	ldr	r7, [pc, #516]	; (2e10 <InitLCD+0x210>)
    2c0c:	601f      	str	r7, [r3, #0]
	REG_PORT_DIRSET1 = LCD_Reset;
    2c0e:	2580      	movs	r5, #128	; 0x80
    2c10:	05ed      	lsls	r5, r5, #23
    2c12:	601d      	str	r5, [r3, #0]
	REG_PORT_DIRSET1 = LCD_CS;
    2c14:	2680      	movs	r6, #128	; 0x80
    2c16:	03f6      	lsls	r6, r6, #15
    2c18:	601e      	str	r6, [r3, #0]
	REG_PORT_DIRSET1 = LCD_WR;
    2c1a:	2080      	movs	r0, #128	; 0x80
    2c1c:	0280      	lsls	r0, r0, #10
    2c1e:	6018      	str	r0, [r3, #0]
	REG_PORT_DIRSET1 = LCD_DC;
    2c20:	2180      	movs	r1, #128	; 0x80
    2c22:	0409      	lsls	r1, r1, #16
    2c24:	6019      	str	r1, [r3, #0]
	REG_PORT_DIRSET1 = LCD_RD;
    2c26:	2280      	movs	r2, #128	; 0x80
    2c28:	0252      	lsls	r2, r2, #9
    2c2a:	601a      	str	r2, [r3, #0]
	REG_PORT_OUTCLR1 = 0x0000ffff;
    2c2c:	4c79      	ldr	r4, [pc, #484]	; (2e14 <InitLCD+0x214>)
    2c2e:	6027      	str	r7, [r4, #0]
	REG_PORT_OUTCLR1 = LCD_Reset;
    2c30:	6025      	str	r5, [r4, #0]
	REG_PORT_OUTCLR1 = LCD_CS;
    2c32:	6026      	str	r6, [r4, #0]
	REG_PORT_OUTCLR1 = LCD_WR;
    2c34:	6020      	str	r0, [r4, #0]
	REG_PORT_OUTCLR1 = LCD_DC;
    2c36:	6021      	str	r1, [r4, #0]
	REG_PORT_OUTCLR1 = LCD_RD;
    2c38:	6022      	str	r2, [r4, #0]
	REG_PORT_DIRSET1 = PORT_PB16;
    2c3a:	601a      	str	r2, [r3, #0]
	REG_PORT_OUTSET1 = PORT_PB16;
    2c3c:	4f76      	ldr	r7, [pc, #472]	; (2e18 <InitLCD+0x218>)
    2c3e:	603a      	str	r2, [r7, #0]
	REG_PORT_OUTSET1 = LCD_Reset;
    2c40:	603d      	str	r5, [r7, #0]
	delay_ms(5);
    2c42:	2005      	movs	r0, #5
    2c44:	4b75      	ldr	r3, [pc, #468]	; (2e1c <InitLCD+0x21c>)
    2c46:	4698      	mov	r8, r3
    2c48:	4798      	blx	r3
	REG_PORT_OUTCLR1 = LCD_Reset;
    2c4a:	6025      	str	r5, [r4, #0]
	delay_ms(5);
    2c4c:	2005      	movs	r0, #5
    2c4e:	47c0      	blx	r8
	REG_PORT_OUTSET1 = LCD_Reset;
    2c50:	603d      	str	r5, [r7, #0]
	REG_PORT_OUTCLR1 = LCD_CS;
    2c52:	6026      	str	r6, [r4, #0]
	for(int i = 0; i < 70; i++)
    2c54:	2400      	movs	r4, #0
		REG_PORT_OUTCLR1 = LCD_DC;
    2c56:	4b6f      	ldr	r3, [pc, #444]	; (2e14 <InitLCD+0x214>)
    2c58:	4698      	mov	r8, r3
    2c5a:	2580      	movs	r5, #128	; 0x80
    2c5c:	042d      	lsls	r5, r5, #16
    2c5e:	002f      	movs	r7, r5
		LCD_Write_COM16(belial[i],mulciber[i]);
    2c60:	4e6f      	ldr	r6, [pc, #444]	; (2e20 <InitLCD+0x220>)
		REG_PORT_OUTCLR1 = LCD_DC;
    2c62:	4643      	mov	r3, r8
    2c64:	601f      	str	r7, [r3, #0]
		LCD_Write_COM16(belial[i],mulciber[i]);
    2c66:	5da1      	ldrb	r1, [r4, r6]
    2c68:	4b6e      	ldr	r3, [pc, #440]	; (2e24 <InitLCD+0x224>)
    2c6a:	5ce0      	ldrb	r0, [r4, r3]
    2c6c:	4b6e      	ldr	r3, [pc, #440]	; (2e28 <InitLCD+0x228>)
    2c6e:	4798      	blx	r3
		REG_PORT_OUTSET1 = LCD_DC;
    2c70:	4b69      	ldr	r3, [pc, #420]	; (2e18 <InitLCD+0x218>)
    2c72:	601d      	str	r5, [r3, #0]
		LCD_Write_DATA8(lucifer[i]);
    2c74:	4b6d      	ldr	r3, [pc, #436]	; (2e2c <InitLCD+0x22c>)
    2c76:	5ce0      	ldrb	r0, [r4, r3]
    2c78:	4b6d      	ldr	r3, [pc, #436]	; (2e30 <InitLCD+0x230>)
    2c7a:	4798      	blx	r3
	for(int i = 0; i < 70; i++)
    2c7c:	3401      	adds	r4, #1
    2c7e:	2c46      	cmp	r4, #70	; 0x46
    2c80:	d1ef      	bne.n	2c62 <InitLCD+0x62>
    2c82:	23d1      	movs	r3, #209	; 0xd1
    2c84:	9301      	str	r3, [sp, #4]
			LCD_Write_COM16(k,0x00);
    2c86:	4d68      	ldr	r5, [pc, #416]	; (2e28 <InitLCD+0x228>)
			LCD_Write_DATA8(beelzebub[l]);
    2c88:	4f69      	ldr	r7, [pc, #420]	; (2e30 <InitLCD+0x230>)
    2c8a:	4c6a      	ldr	r4, [pc, #424]	; (2e34 <InitLCD+0x234>)
    2c8c:	0026      	movs	r6, r4
    2c8e:	3634      	adds	r6, #52	; 0x34
			LCD_Write_COM16(k,0x00);
    2c90:	2100      	movs	r1, #0
    2c92:	9801      	ldr	r0, [sp, #4]
    2c94:	47a8      	blx	r5
			LCD_Write_DATA8(beelzebub[l]);
    2c96:	7820      	ldrb	r0, [r4, #0]
    2c98:	47b8      	blx	r7
    2c9a:	3401      	adds	r4, #1
		for(int l = 0; l < 52; l++)
    2c9c:	42a6      	cmp	r6, r4
    2c9e:	d1f7      	bne.n	2c90 <InitLCD+0x90>
	for(char k = 0xD1; k < 0xD6; k++)
    2ca0:	9b01      	ldr	r3, [sp, #4]
    2ca2:	3301      	adds	r3, #1
    2ca4:	b2db      	uxtb	r3, r3
    2ca6:	9301      	str	r3, [sp, #4]
    2ca8:	2bd6      	cmp	r3, #214	; 0xd6
    2caa:	d1ee      	bne.n	2c8a <InitLCD+0x8a>
	LCD_Write_COM16(0xF0, 0x00);LCD_Write_DATA8(0x55);
    2cac:	2100      	movs	r1, #0
    2cae:	20f0      	movs	r0, #240	; 0xf0
    2cb0:	4c5d      	ldr	r4, [pc, #372]	; (2e28 <InitLCD+0x228>)
    2cb2:	47a0      	blx	r4
    2cb4:	2055      	movs	r0, #85	; 0x55
    2cb6:	4d5e      	ldr	r5, [pc, #376]	; (2e30 <InitLCD+0x230>)
    2cb8:	47a8      	blx	r5
	LCD_Write_COM16(0xF0, 0x01);LCD_Write_DATA8(0xAA);	
    2cba:	2101      	movs	r1, #1
    2cbc:	20f0      	movs	r0, #240	; 0xf0
    2cbe:	47a0      	blx	r4
    2cc0:	20aa      	movs	r0, #170	; 0xaa
    2cc2:	47a8      	blx	r5
	LCD_Write_COM16(0xF0, 0x02);LCD_Write_DATA8(0x52);	
    2cc4:	2102      	movs	r1, #2
    2cc6:	20f0      	movs	r0, #240	; 0xf0
    2cc8:	47a0      	blx	r4
    2cca:	2052      	movs	r0, #82	; 0x52
    2ccc:	47a8      	blx	r5
	LCD_Write_COM16(0xF0, 0x03);LCD_Write_DATA8(0x08);	
    2cce:	2103      	movs	r1, #3
    2cd0:	20f0      	movs	r0, #240	; 0xf0
    2cd2:	47a0      	blx	r4
    2cd4:	2008      	movs	r0, #8
    2cd6:	47a8      	blx	r5
	LCD_Write_COM16(0xF0, 0x04);LCD_Write_DATA8(0x00);	
    2cd8:	2104      	movs	r1, #4
    2cda:	20f0      	movs	r0, #240	; 0xf0
    2cdc:	47a0      	blx	r4
    2cde:	2000      	movs	r0, #0
    2ce0:	47a8      	blx	r5
	LCD_Write_COM16(0xB1, 0x00);LCD_Write_DATA8(0xCC);
    2ce2:	2100      	movs	r1, #0
    2ce4:	20b1      	movs	r0, #177	; 0xb1
    2ce6:	47a0      	blx	r4
    2ce8:	20cc      	movs	r0, #204	; 0xcc
    2cea:	47a8      	blx	r5
	LCD_Write_COM16(0xB1, 0x01);LCD_Write_DATA8(0x00);	
    2cec:	2101      	movs	r1, #1
    2cee:	20b1      	movs	r0, #177	; 0xb1
    2cf0:	47a0      	blx	r4
    2cf2:	2000      	movs	r0, #0
    2cf4:	47a8      	blx	r5
	LCD_Write_COM16(0xB5, 0x00);LCD_Write_DATA8(0x50);	
    2cf6:	2100      	movs	r1, #0
    2cf8:	20b5      	movs	r0, #181	; 0xb5
    2cfa:	47a0      	blx	r4
    2cfc:	2050      	movs	r0, #80	; 0x50
    2cfe:	47a8      	blx	r5
	LCD_Write_COM16(0xB6, 0x00);LCD_Write_DATA8(0x05);
    2d00:	2100      	movs	r1, #0
    2d02:	20b6      	movs	r0, #182	; 0xb6
    2d04:	47a0      	blx	r4
    2d06:	2005      	movs	r0, #5
    2d08:	47a8      	blx	r5
	LCD_Write_COM16(0xB7, 0x00);LCD_Write_DATA8(0x70);
    2d0a:	2100      	movs	r1, #0
    2d0c:	20b7      	movs	r0, #183	; 0xb7
    2d0e:	47a0      	blx	r4
    2d10:	2070      	movs	r0, #112	; 0x70
    2d12:	47a8      	blx	r5
	LCD_Write_COM16(0xB7, 0x01);LCD_Write_DATA8(0x70);
    2d14:	2101      	movs	r1, #1
    2d16:	20b7      	movs	r0, #183	; 0xb7
    2d18:	47a0      	blx	r4
    2d1a:	2070      	movs	r0, #112	; 0x70
    2d1c:	47a8      	blx	r5
	LCD_Write_COM16(0xB8, 0x00);LCD_Write_DATA8(0x01);
    2d1e:	2100      	movs	r1, #0
    2d20:	20b8      	movs	r0, #184	; 0xb8
    2d22:	47a0      	blx	r4
    2d24:	2001      	movs	r0, #1
    2d26:	47a8      	blx	r5
	LCD_Write_COM16(0xB8, 0x01);LCD_Write_DATA8(0x03);
    2d28:	2101      	movs	r1, #1
    2d2a:	20b8      	movs	r0, #184	; 0xb8
    2d2c:	47a0      	blx	r4
    2d2e:	2003      	movs	r0, #3
    2d30:	47a8      	blx	r5
	LCD_Write_COM16(0xB8, 0x02);LCD_Write_DATA8(0x03);
    2d32:	2102      	movs	r1, #2
    2d34:	20b8      	movs	r0, #184	; 0xb8
    2d36:	47a0      	blx	r4
    2d38:	2003      	movs	r0, #3
    2d3a:	47a8      	blx	r5
	LCD_Write_COM16(0xB8, 0x03);LCD_Write_DATA8(0x03);	
    2d3c:	2103      	movs	r1, #3
    2d3e:	20b8      	movs	r0, #184	; 0xb8
    2d40:	47a0      	blx	r4
    2d42:	2003      	movs	r0, #3
    2d44:	47a8      	blx	r5
	LCD_Write_COM16(0xBC, 0x00);LCD_Write_DATA8(0x02);
    2d46:	2100      	movs	r1, #0
    2d48:	20bc      	movs	r0, #188	; 0xbc
    2d4a:	47a0      	blx	r4
    2d4c:	2002      	movs	r0, #2
    2d4e:	47a8      	blx	r5
	LCD_Write_COM16(0xBC, 0x01);LCD_Write_DATA8(0x00);
    2d50:	2101      	movs	r1, #1
    2d52:	20bc      	movs	r0, #188	; 0xbc
    2d54:	47a0      	blx	r4
    2d56:	2000      	movs	r0, #0
    2d58:	47a8      	blx	r5
	LCD_Write_COM16(0xBC, 0x02);LCD_Write_DATA8(0x00);
    2d5a:	2102      	movs	r1, #2
    2d5c:	20bc      	movs	r0, #188	; 0xbc
    2d5e:	47a0      	blx	r4
    2d60:	2000      	movs	r0, #0
    2d62:	47a8      	blx	r5
	LCD_Write_COM16(0xC9, 0x00);LCD_Write_DATA8(0xD0);
    2d64:	2100      	movs	r1, #0
    2d66:	20c9      	movs	r0, #201	; 0xc9
    2d68:	47a0      	blx	r4
    2d6a:	20d0      	movs	r0, #208	; 0xd0
    2d6c:	47a8      	blx	r5
	LCD_Write_COM16(0xC9, 0x01);LCD_Write_DATA8(0x02);
    2d6e:	2101      	movs	r1, #1
    2d70:	20c9      	movs	r0, #201	; 0xc9
    2d72:	47a0      	blx	r4
    2d74:	2002      	movs	r0, #2
    2d76:	47a8      	blx	r5
	LCD_Write_COM16(0xC9, 0x02);LCD_Write_DATA8(0x50);
    2d78:	2102      	movs	r1, #2
    2d7a:	20c9      	movs	r0, #201	; 0xc9
    2d7c:	47a0      	blx	r4
    2d7e:	2050      	movs	r0, #80	; 0x50
    2d80:	47a8      	blx	r5
	LCD_Write_COM16(0xC9, 0x03);LCD_Write_DATA8(0x50);
    2d82:	2103      	movs	r1, #3
    2d84:	20c9      	movs	r0, #201	; 0xc9
    2d86:	47a0      	blx	r4
    2d88:	2050      	movs	r0, #80	; 0x50
    2d8a:	47a8      	blx	r5
	LCD_Write_COM16(0xC9, 0x04);LCD_Write_DATA8(0x50);
    2d8c:	2104      	movs	r1, #4
    2d8e:	20c9      	movs	r0, #201	; 0xc9
    2d90:	47a0      	blx	r4
    2d92:	2050      	movs	r0, #80	; 0x50
    2d94:	47a8      	blx	r5
	LCD_Write_COM16(0x35, 0x00);LCD_Write_DATA8(0x00);
    2d96:	2100      	movs	r1, #0
    2d98:	2035      	movs	r0, #53	; 0x35
    2d9a:	47a0      	blx	r4
    2d9c:	2000      	movs	r0, #0
    2d9e:	47a8      	blx	r5
	LCD_Write_COM16(0x3A, 0x00);LCD_Write_DATA8(0x55);
    2da0:	2100      	movs	r1, #0
    2da2:	203a      	movs	r0, #58	; 0x3a
    2da4:	47a0      	blx	r4
    2da6:	2055      	movs	r0, #85	; 0x55
    2da8:	47a8      	blx	r5
	LCD_Write_COM16(0x36, 0x00);LCD_Write_DATA8(0xE2);  //This is the MADCTL register
    2daa:	2100      	movs	r1, #0
    2dac:	2036      	movs	r0, #54	; 0x36
    2dae:	47a0      	blx	r4
    2db0:	20e2      	movs	r0, #226	; 0xe2
    2db2:	47a8      	blx	r5
  	LCD_Write_COM16(0x11,0x00);   //Start Up  
    2db4:	2100      	movs	r1, #0
    2db6:	2011      	movs	r0, #17
    2db8:	47a0      	blx	r4
  	delay_ms(100);
    2dba:	2064      	movs	r0, #100	; 0x64
    2dbc:	4e17      	ldr	r6, [pc, #92]	; (2e1c <InitLCD+0x21c>)
    2dbe:	47b0      	blx	r6
  	LCD_Write_COM16(0x29,0x00);   //Display On  
    2dc0:	2100      	movs	r1, #0
    2dc2:	2029      	movs	r0, #41	; 0x29
    2dc4:	47a0      	blx	r4
   	delay_ms(100);
    2dc6:	2064      	movs	r0, #100	; 0x64
    2dc8:	47b0      	blx	r6
	LCD_Write_COM16(0x51,0x00);LCD_Write_DATA8(0xFF);
    2dca:	2100      	movs	r1, #0
    2dcc:	2051      	movs	r0, #81	; 0x51
    2dce:	47a0      	blx	r4
    2dd0:	20ff      	movs	r0, #255	; 0xff
    2dd2:	47a8      	blx	r5
	REG_PORT_OUTSET1 = LCD_CS;
    2dd4:	2280      	movs	r2, #128	; 0x80
    2dd6:	03d2      	lsls	r2, r2, #15
    2dd8:	4b0f      	ldr	r3, [pc, #60]	; (2e18 <InitLCD+0x218>)
    2dda:	601a      	str	r2, [r3, #0]
	clrScr();
    2ddc:	4b16      	ldr	r3, [pc, #88]	; (2e38 <InitLCD+0x238>)
    2dde:	4798      	blx	r3
	setColorRGB(0,0,0);
    2de0:	2200      	movs	r2, #0
    2de2:	2100      	movs	r1, #0
    2de4:	2000      	movs	r0, #0
    2de6:	4b15      	ldr	r3, [pc, #84]	; (2e3c <InitLCD+0x23c>)
    2de8:	4798      	blx	r3
	setBackColorRGB(0, 0, 0);
    2dea:	2200      	movs	r2, #0
    2dec:	2100      	movs	r1, #0
    2dee:	2000      	movs	r0, #0
    2df0:	4b13      	ldr	r3, [pc, #76]	; (2e40 <InitLCD+0x240>)
    2df2:	4798      	blx	r3
	fillRect(0,0,799,489);
    2df4:	23ea      	movs	r3, #234	; 0xea
    2df6:	33ff      	adds	r3, #255	; 0xff
    2df8:	4a12      	ldr	r2, [pc, #72]	; (2e44 <InitLCD+0x244>)
    2dfa:	2100      	movs	r1, #0
    2dfc:	2000      	movs	r0, #0
    2dfe:	4c12      	ldr	r4, [pc, #72]	; (2e48 <InitLCD+0x248>)
    2e00:	47a0      	blx	r4
}
    2e02:	b002      	add	sp, #8
    2e04:	bc04      	pop	{r2}
    2e06:	4690      	mov	r8, r2
    2e08:	bdf0      	pop	{r4, r5, r6, r7, pc}
    2e0a:	46c0      	nop			; (mov r8, r8)
    2e0c:	41004488 	.word	0x41004488
    2e10:	0000ffff 	.word	0x0000ffff
    2e14:	41004494 	.word	0x41004494
    2e18:	41004498 	.word	0x41004498
    2e1c:	00000401 	.word	0x00000401
    2e20:	00006504 	.word	0x00006504
    2e24:	00006474 	.word	0x00006474
    2e28:	00002bb5 	.word	0x00002bb5
    2e2c:	000064bc 	.word	0x000064bc
    2e30:	00002be5 	.word	0x00002be5
    2e34:	00006440 	.word	0x00006440
    2e38:	00002b31 	.word	0x00002b31
    2e3c:	000028b5 	.word	0x000028b5
    2e40:	000028dd 	.word	0x000028dd
    2e44:	0000031f 	.word	0x0000031f
    2e48:	000029f1 	.word	0x000029f1

00002e4c <SysTick_Handler>:

void SysTick_Handler(void)
{

	
	ul_tickcount++;
    2e4c:	4a02      	ldr	r2, [pc, #8]	; (2e58 <SysTick_Handler+0xc>)
    2e4e:	8813      	ldrh	r3, [r2, #0]
    2e50:	3301      	adds	r3, #1
    2e52:	8013      	strh	r3, [r2, #0]
	{
		ul_tickcount = 0;
	}
	*/

}
    2e54:	4770      	bx	lr
    2e56:	46c0      	nop			; (mov r8, r8)
    2e58:	2000029e 	.word	0x2000029e

00002e5c <conf_systick>:

void conf_systick(void)
{
    2e5c:	b510      	push	{r4, lr}
	//system_core_clk=48Mhz / 1000=48kHz systic clk if 48Mhz  is used
	SysTick_Config(SystemCoreClock/1000);
    2e5e:	4b0e      	ldr	r3, [pc, #56]	; (2e98 <conf_systick+0x3c>)
    2e60:	6818      	ldr	r0, [r3, #0]
    2e62:	21fa      	movs	r1, #250	; 0xfa
    2e64:	0089      	lsls	r1, r1, #2
    2e66:	4b0d      	ldr	r3, [pc, #52]	; (2e9c <conf_systick+0x40>)
    2e68:	4798      	blx	r3
           function <b>SysTick_Config</b> is not included. In this case, the file <b><i>device</i>.h</b>
           must contain a vendor-specific implementation of this function.
 */
__STATIC_INLINE uint32_t SysTick_Config(uint32_t ticks)
{
  if ((ticks - 1UL) > SysTick_LOAD_RELOAD_Msk)
    2e6a:	3801      	subs	r0, #1
    2e6c:	4b0c      	ldr	r3, [pc, #48]	; (2ea0 <conf_systick+0x44>)
    2e6e:	4298      	cmp	r0, r3
    2e70:	d80d      	bhi.n	2e8e <conf_systick+0x32>
  {
    return (1UL);                                                   /* Reload value impossible */
  }

  SysTick->LOAD  = (uint32_t)(ticks - 1UL);                         /* set reload register */
    2e72:	4a0c      	ldr	r2, [pc, #48]	; (2ea4 <conf_systick+0x48>)
    2e74:	6050      	str	r0, [r2, #4]
    SCB->SHP[_SHP_IDX(IRQn)] = ((uint32_t)(SCB->SHP[_SHP_IDX(IRQn)] & ~(0xFFUL << _BIT_SHIFT(IRQn))) |
    2e76:	480c      	ldr	r0, [pc, #48]	; (2ea8 <conf_systick+0x4c>)
    2e78:	6a03      	ldr	r3, [r0, #32]
    2e7a:	021b      	lsls	r3, r3, #8
    2e7c:	0a1b      	lsrs	r3, r3, #8
    2e7e:	21c0      	movs	r1, #192	; 0xc0
    2e80:	0609      	lsls	r1, r1, #24
    2e82:	430b      	orrs	r3, r1
    2e84:	6203      	str	r3, [r0, #32]
  NVIC_SetPriority (SysTick_IRQn, (1UL << __NVIC_PRIO_BITS) - 1UL); /* set Priority for Systick Interrupt */
  SysTick->VAL   = 0UL;                                             /* Load the SysTick Counter Value */
    2e86:	2300      	movs	r3, #0
    2e88:	6093      	str	r3, [r2, #8]
  SysTick->CTRL  = SysTick_CTRL_CLKSOURCE_Msk |
    2e8a:	3307      	adds	r3, #7
    2e8c:	6013      	str	r3, [r2, #0]
    2e8e:	2280      	movs	r2, #128	; 0x80
    2e90:	0612      	lsls	r2, r2, #24
    2e92:	4b06      	ldr	r3, [pc, #24]	; (2eac <conf_systick+0x50>)
    2e94:	601a      	str	r2, [r3, #0]
	system_interrupt_enable(SYSTEM_INTERRUPT_SYSTICK);
}
    2e96:	bd10      	pop	{r4, pc}
    2e98:	2000000c 	.word	0x2000000c
    2e9c:	00003155 	.word	0x00003155
    2ea0:	00ffffff 	.word	0x00ffffff
    2ea4:	e000e010 	.word	0xe000e010
    2ea8:	e000ed00 	.word	0xe000ed00
    2eac:	e000e100 	.word	0xe000e100

00002eb0 <configure_usart_USB>:

/**************************SERCOM STUFF*******************************/
void configure_usart_USB(void)
{
    2eb0:	b530      	push	{r4, r5, lr}
    2eb2:	b091      	sub	sp, #68	; 0x44
	config->data_order       = USART_DATAORDER_LSB;
    2eb4:	2380      	movs	r3, #128	; 0x80
    2eb6:	05db      	lsls	r3, r3, #23
    2eb8:	9300      	str	r3, [sp, #0]
	config->transfer_mode    = USART_TRANSFER_ASYNCHRONOUSLY;
    2eba:	2300      	movs	r3, #0
    2ebc:	9301      	str	r3, [sp, #4]
	config->parity           = USART_PARITY_NONE;
    2ebe:	22ff      	movs	r2, #255	; 0xff
    2ec0:	4669      	mov	r1, sp
    2ec2:	810a      	strh	r2, [r1, #8]
	config->stopbits         = USART_STOPBITS_1;
    2ec4:	2200      	movs	r2, #0
    2ec6:	728b      	strb	r3, [r1, #10]
	config->character_size   = USART_CHARACTER_SIZE_8BIT;
    2ec8:	72cb      	strb	r3, [r1, #11]
	config->baudrate         = 9600;
    2eca:	2196      	movs	r1, #150	; 0x96
    2ecc:	0189      	lsls	r1, r1, #6
    2ece:	9108      	str	r1, [sp, #32]
	config->receiver_enable  = true;
    2ed0:	2101      	movs	r1, #1
    2ed2:	2024      	movs	r0, #36	; 0x24
    2ed4:	466c      	mov	r4, sp
    2ed6:	5421      	strb	r1, [r4, r0]
	config->transmitter_enable = true;
    2ed8:	3001      	adds	r0, #1
    2eda:	5421      	strb	r1, [r4, r0]
	config->clock_polarity_inverted = false;
    2edc:	3125      	adds	r1, #37	; 0x25
    2ede:	5463      	strb	r3, [r4, r1]
	config->use_external_clock = false;
    2ee0:	3101      	adds	r1, #1
    2ee2:	5463      	strb	r3, [r4, r1]
	config->ext_clock_freq   = 0;
    2ee4:	930a      	str	r3, [sp, #40]	; 0x28
	config->run_in_standby   = false;
    2ee6:	3105      	adds	r1, #5
    2ee8:	5463      	strb	r3, [r4, r1]
	config->generator_source = GCLK_GENERATOR_0;
    2eea:	3101      	adds	r1, #1
    2eec:	5463      	strb	r3, [r4, r1]
	config->sample_adjustment     = USART_SAMPLE_ADJUSTMENT_7_8_9;
    2eee:	9305      	str	r3, [sp, #20]
	config->sample_rate           = USART_SAMPLE_RATE_16X_ARITHMETIC;
    2ef0:	8223      	strh	r3, [r4, #16]
	config->lin_slave_enable      = false;
    2ef2:	76e3      	strb	r3, [r4, #27]
	config->immediate_buffer_overflow_notification  = false;
    2ef4:	7622      	strb	r2, [r4, #24]
	config->start_frame_detection_enable            = false;
    2ef6:	7722      	strb	r2, [r4, #28]
	config->encoding_format_enable                  = false;
    2ef8:	7662      	strb	r2, [r4, #25]
	config->receive_pulse_length                    = 19;
    2efa:	2313      	movs	r3, #19
    2efc:	76a3      	strb	r3, [r4, #26]
	config->collision_detection_enable              = false;
    2efe:	7762      	strb	r2, [r4, #29]
	struct usart_config config_usart_USB;
	usart_get_config_defaults(&config_usart_USB);

		config_usart_USB.baudrate    = 9600;
		config_usart_USB.mux_setting = EDBG_CDC_SERCOM_MUX_SETTING;
    2f00:	2380      	movs	r3, #128	; 0x80
    2f02:	035b      	lsls	r3, r3, #13
    2f04:	9303      	str	r3, [sp, #12]
		config_usart_USB.pinmux_pad0 = EDBG_CDC_SERCOM_PINMUX_PAD0;
    2f06:	4b12      	ldr	r3, [pc, #72]	; (2f50 <configure_usart_USB+0xa0>)
    2f08:	930c      	str	r3, [sp, #48]	; 0x30
		config_usart_USB.pinmux_pad1 = EDBG_CDC_SERCOM_PINMUX_PAD1;
    2f0a:	4b12      	ldr	r3, [pc, #72]	; (2f54 <configure_usart_USB+0xa4>)
    2f0c:	930d      	str	r3, [sp, #52]	; 0x34
		config_usart_USB.pinmux_pad2 = EDBG_CDC_SERCOM_PINMUX_PAD2;
    2f0e:	2301      	movs	r3, #1
    2f10:	425b      	negs	r3, r3
    2f12:	930e      	str	r3, [sp, #56]	; 0x38
		config_usart_USB.pinmux_pad3 = EDBG_CDC_SERCOM_PINMUX_PAD3;
    2f14:	930f      	str	r3, [sp, #60]	; 0x3c
		while (usart_init(&usart_USB,
    2f16:	4d10      	ldr	r5, [pc, #64]	; (2f58 <configure_usart_USB+0xa8>)
    2f18:	4c10      	ldr	r4, [pc, #64]	; (2f5c <configure_usart_USB+0xac>)
    2f1a:	466a      	mov	r2, sp
    2f1c:	4910      	ldr	r1, [pc, #64]	; (2f60 <configure_usart_USB+0xb0>)
    2f1e:	0028      	movs	r0, r5
    2f20:	47a0      	blx	r4
    2f22:	2800      	cmp	r0, #0
    2f24:	d1f9      	bne.n	2f1a <configure_usart_USB+0x6a>
	SercomUsart *const usart_hw = &(module->hw->USART);
    2f26:	4d0c      	ldr	r5, [pc, #48]	; (2f58 <configure_usart_USB+0xa8>)
    2f28:	682c      	ldr	r4, [r5, #0]
	system_interrupt_enable(_sercom_get_interrupt_vector(module->hw));
    2f2a:	0020      	movs	r0, r4
    2f2c:	4b0d      	ldr	r3, [pc, #52]	; (2f64 <configure_usart_USB+0xb4>)
    2f2e:	4798      	blx	r3
    2f30:	231f      	movs	r3, #31
    2f32:	4018      	ands	r0, r3
    2f34:	3b1e      	subs	r3, #30
    2f36:	4083      	lsls	r3, r0
    2f38:	4a0b      	ldr	r2, [pc, #44]	; (2f68 <configure_usart_USB+0xb8>)
    2f3a:	6013      	str	r3, [r2, #0]
	SercomUsart *const usart_hw = &(module->hw->USART);
    2f3c:	682a      	ldr	r2, [r5, #0]
	return (usart_hw->SYNCBUSY.reg);
    2f3e:	69d3      	ldr	r3, [r2, #28]
	while (usart_is_syncing(module)) {
    2f40:	2b00      	cmp	r3, #0
    2f42:	d1fc      	bne.n	2f3e <configure_usart_USB+0x8e>
	usart_hw->CTRLA.reg |= SERCOM_USART_CTRLA_ENABLE;
    2f44:	6823      	ldr	r3, [r4, #0]
    2f46:	2202      	movs	r2, #2
    2f48:	4313      	orrs	r3, r2
    2f4a:	6023      	str	r3, [r4, #0]
		EDBG_CDC_MODULE, &config_usart_USB) != STATUS_OK) {
		}

	usart_enable(&usart_USB);
}
    2f4c:	b011      	add	sp, #68	; 0x44
    2f4e:	bd30      	pop	{r4, r5, pc}
    2f50:	00160002 	.word	0x00160002
    2f54:	00170002 	.word	0x00170002
    2f58:	200003d8 	.word	0x200003d8
    2f5c:	00000e6d 	.word	0x00000e6d
    2f60:	42001400 	.word	0x42001400
    2f64:	00000ddd 	.word	0x00000ddd
    2f68:	e000e100 	.word	0xe000e100

00002f6c <configure_adc>:

void configure_adc(void)
{
    2f6c:	b510      	push	{r4, lr}
    2f6e:	b08c      	sub	sp, #48	; 0x30
	struct adc_config config_adc;
	adc_get_config_defaults(&config_adc);
    2f70:	4668      	mov	r0, sp
    2f72:	4b11      	ldr	r3, [pc, #68]	; (2fb8 <configure_adc+0x4c>)
    2f74:	4798      	blx	r3
	config_adc.positive_input = ADC_POSITIVE_INPUT_DAC;
    2f76:	231c      	movs	r3, #28
    2f78:	466a      	mov	r2, sp
    2f7a:	7313      	strb	r3, [r2, #12]
	adc_init(&adc_instance, ADC, &config_adc);
    2f7c:	4c0f      	ldr	r4, [pc, #60]	; (2fbc <configure_adc+0x50>)
    2f7e:	4910      	ldr	r1, [pc, #64]	; (2fc0 <configure_adc+0x54>)
    2f80:	0020      	movs	r0, r4
    2f82:	4b10      	ldr	r3, [pc, #64]	; (2fc4 <configure_adc+0x58>)
    2f84:	4798      	blx	r3
	Adc *const adc_module = module_inst->hw;
    2f86:	6822      	ldr	r2, [r4, #0]
    2f88:	7e53      	ldrb	r3, [r2, #25]
	while (adc_is_syncing(module_inst)) {
    2f8a:	b25b      	sxtb	r3, r3
    2f8c:	2b00      	cmp	r3, #0
    2f8e:	dbfb      	blt.n	2f88 <configure_adc+0x1c>
    2f90:	2180      	movs	r1, #128	; 0x80
    2f92:	0409      	lsls	r1, r1, #16
    2f94:	4b0c      	ldr	r3, [pc, #48]	; (2fc8 <configure_adc+0x5c>)
    2f96:	6019      	str	r1, [r3, #0]
	adc_module->INTENCLR.reg = ADC_INTENCLR_MASK;
    2f98:	230f      	movs	r3, #15
    2f9a:	7593      	strb	r3, [r2, #22]
	adc_module->INTFLAG.reg = ADC_INTFLAG_MASK;
    2f9c:	7613      	strb	r3, [r2, #24]
	adc_module->CTRLA.reg |= ADC_CTRLA_ENABLE;
    2f9e:	7813      	ldrb	r3, [r2, #0]
    2fa0:	2102      	movs	r1, #2
    2fa2:	430b      	orrs	r3, r1
    2fa4:	7013      	strb	r3, [r2, #0]
	Adc *const adc_module = module_inst->hw;
    2fa6:	4b05      	ldr	r3, [pc, #20]	; (2fbc <configure_adc+0x50>)
    2fa8:	681a      	ldr	r2, [r3, #0]
	if (adc_module->STATUS.reg & ADC_STATUS_SYNCBUSY) {
    2faa:	7e53      	ldrb	r3, [r2, #25]
	while (adc_is_syncing(module_inst)) {
    2fac:	b25b      	sxtb	r3, r3
    2fae:	2b00      	cmp	r3, #0
    2fb0:	dbfb      	blt.n	2faa <configure_adc+0x3e>
	adc_enable(&adc_instance);
}
    2fb2:	b00c      	add	sp, #48	; 0x30
    2fb4:	bd10      	pop	{r4, pc}
    2fb6:	46c0      	nop			; (mov r8, r8)
    2fb8:	000004d5 	.word	0x000004d5
    2fbc:	2000040c 	.word	0x2000040c
    2fc0:	42004000 	.word	0x42004000
    2fc4:	00000519 	.word	0x00000519
    2fc8:	e000e100 	.word	0xe000e100

00002fcc <setupBoard>:


void setupBoard(void)
{
    2fcc:	b570      	push	{r4, r5, r6, lr}
	uint16_t adcResult;

	system_init();
    2fce:	4b2d      	ldr	r3, [pc, #180]	; (3084 <setupBoard+0xb8>)
    2fd0:	4798      	blx	r3
	
	configure_adc();
    2fd2:	4b2d      	ldr	r3, [pc, #180]	; (3088 <setupBoard+0xbc>)
    2fd4:	4798      	blx	r3
	Adc *const adc_module = module_inst->hw;
    2fd6:	4b2d      	ldr	r3, [pc, #180]	; (308c <setupBoard+0xc0>)
    2fd8:	6819      	ldr	r1, [r3, #0]
    2fda:	7e4b      	ldrb	r3, [r1, #25]
	while (adc_is_syncing(module_inst)) {
    2fdc:	b25b      	sxtb	r3, r3
    2fde:	2b00      	cmp	r3, #0
    2fe0:	dbfb      	blt.n	2fda <setupBoard+0xe>
	adc_module->SWTRIG.reg |= ADC_SWTRIG_START;
    2fe2:	7b0b      	ldrb	r3, [r1, #12]
    2fe4:	2202      	movs	r2, #2
    2fe6:	4313      	orrs	r3, r2
    2fe8:	730b      	strb	r3, [r1, #12]
    2fea:	7e4b      	ldrb	r3, [r1, #25]
	while (adc_is_syncing(module_inst)) {
    2fec:	b25b      	sxtb	r3, r3
    2fee:	2b00      	cmp	r3, #0
    2ff0:	dbfb      	blt.n	2fea <setupBoard+0x1e>
	if (int_flags & ADC_INTFLAG_RESRDY) {
    2ff2:	2001      	movs	r0, #1
	if (int_flags & ADC_INTFLAG_WINMON) {
    2ff4:	2504      	movs	r5, #4
		status_flags |= ADC_STATUS_WINDOW;
    2ff6:	2402      	movs	r4, #2
    2ff8:	e001      	b.n	2ffe <setupBoard+0x32>
	if (!(adc_get_status(module_inst) & ADC_STATUS_RESULT_READY)) {
    2ffa:	4210      	tst	r0, r2
    2ffc:	d10a      	bne.n	3014 <setupBoard+0x48>
	uint32_t int_flags = adc_module->INTFLAG.reg;
    2ffe:	7e0b      	ldrb	r3, [r1, #24]
    3000:	b2db      	uxtb	r3, r3
	if (int_flags & ADC_INTFLAG_RESRDY) {
    3002:	0002      	movs	r2, r0
    3004:	401a      	ands	r2, r3
	if (int_flags & ADC_INTFLAG_WINMON) {
    3006:	421d      	tst	r5, r3
    3008:	d000      	beq.n	300c <setupBoard+0x40>
		status_flags |= ADC_STATUS_WINDOW;
    300a:	4322      	orrs	r2, r4
	if (int_flags & ADC_INTFLAG_OVERRUN) {
    300c:	421c      	tst	r4, r3
    300e:	d0f4      	beq.n	2ffa <setupBoard+0x2e>
		status_flags |= ADC_STATUS_OVERRUN;
    3010:	432a      	orrs	r2, r5
    3012:	e7f2      	b.n	2ffa <setupBoard+0x2e>
    3014:	7e4b      	ldrb	r3, [r1, #25]
	while (adc_is_syncing(module_inst)) {
    3016:	b25b      	sxtb	r3, r3
    3018:	2b00      	cmp	r3, #0
    301a:	dbfb      	blt.n	3014 <setupBoard+0x48>
	*result = adc_module->RESULT.reg;
    301c:	8b4c      	ldrh	r4, [r1, #26]
    301e:	b2a4      	uxth	r4, r4
	adc_module->INTFLAG.reg = int_flags;
    3020:	2301      	movs	r3, #1
    3022:	760b      	strb	r3, [r1, #24]
	uint32_t int_flags = adc_module->INTFLAG.reg;
    3024:	7e0a      	ldrb	r2, [r1, #24]
    3026:	b2d2      	uxtb	r2, r2
	if (int_flags & ADC_INTFLAG_RESRDY) {
    3028:	4013      	ands	r3, r2
	if (int_flags & ADC_INTFLAG_WINMON) {
    302a:	0750      	lsls	r0, r2, #29
    302c:	d501      	bpl.n	3032 <setupBoard+0x66>
		status_flags |= ADC_STATUS_WINDOW;
    302e:	2002      	movs	r0, #2
    3030:	4303      	orrs	r3, r0
	if (int_flags & ADC_INTFLAG_OVERRUN) {
    3032:	0792      	lsls	r2, r2, #30
    3034:	d501      	bpl.n	303a <setupBoard+0x6e>
		status_flags |= ADC_STATUS_OVERRUN;
    3036:	2204      	movs	r2, #4
    3038:	4313      	orrs	r3, r2
	if (adc_get_status(module_inst) & ADC_STATUS_OVERRUN) {
    303a:	075b      	lsls	r3, r3, #29
    303c:	d501      	bpl.n	3042 <setupBoard+0x76>
	adc_module->INTFLAG.reg = int_flags;
    303e:	2302      	movs	r3, #2
    3040:	760b      	strb	r3, [r1, #24]
	adc_start_conversion(&adc_instance);
	do {
		/* Wait for conversion to be done and read out result */
	} while (adc_read(&adc_instance, &adcResult) == STATUS_BUSY);
	
	system_init();
    3042:	4b10      	ldr	r3, [pc, #64]	; (3084 <setupBoard+0xb8>)
    3044:	4798      	blx	r3
	
	delay_init();
    3046:	4b12      	ldr	r3, [pc, #72]	; (3090 <setupBoard+0xc4>)
    3048:	4798      	blx	r3
	srand(adcResult);
    304a:	0020      	movs	r0, r4
    304c:	4b11      	ldr	r3, [pc, #68]	; (3094 <setupBoard+0xc8>)
    304e:	4798      	blx	r3
	configure_usart_USB();
    3050:	4b11      	ldr	r3, [pc, #68]	; (3098 <setupBoard+0xcc>)
    3052:	4798      	blx	r3
	configure_console();
    3054:	4b11      	ldr	r3, [pc, #68]	; (309c <setupBoard+0xd0>)
    3056:	4798      	blx	r3
	
	InitLCD();
    3058:	4b11      	ldr	r3, [pc, #68]	; (30a0 <setupBoard+0xd4>)
    305a:	4798      	blx	r3
	splashScreen();
    305c:	4b11      	ldr	r3, [pc, #68]	; (30a4 <setupBoard+0xd8>)
    305e:	4798      	blx	r3
		
	printf("Serial OK 9600 8N1\n\r");
    3060:	4811      	ldr	r0, [pc, #68]	; (30a8 <setupBoard+0xdc>)
    3062:	4b12      	ldr	r3, [pc, #72]	; (30ac <setupBoard+0xe0>)
    3064:	4798      	blx	r3
	
	conf_systick();
    3066:	4b12      	ldr	r3, [pc, #72]	; (30b0 <setupBoard+0xe4>)
    3068:	4798      	blx	r3
	clearCursorBuffer();
    306a:	4b12      	ldr	r3, [pc, #72]	; (30b4 <setupBoard+0xe8>)
    306c:	4798      	blx	r3

	readCursor(0,0);
    306e:	2100      	movs	r1, #0
    3070:	2000      	movs	r0, #0
    3072:	4b11      	ldr	r3, [pc, #68]	; (30b8 <setupBoard+0xec>)
    3074:	4798      	blx	r3
	xCharPos=0;
    3076:	2300      	movs	r3, #0
    3078:	4a10      	ldr	r2, [pc, #64]	; (30bc <setupBoard+0xf0>)
    307a:	8013      	strh	r3, [r2, #0]
	yCharPos=0;
    307c:	4a10      	ldr	r2, [pc, #64]	; (30c0 <setupBoard+0xf4>)
    307e:	8013      	strh	r3, [r2, #0]
}
    3080:	bd70      	pop	{r4, r5, r6, pc}
    3082:	46c0      	nop			; (mov r8, r8)
    3084:	00001b3d 	.word	0x00001b3d
    3088:	00002f6d 	.word	0x00002f6d
    308c:	2000040c 	.word	0x2000040c
    3090:	000003c1 	.word	0x000003c1
    3094:	00003361 	.word	0x00003361
    3098:	00002eb1 	.word	0x00002eb1
    309c:	00001d65 	.word	0x00001d65
    30a0:	00002c01 	.word	0x00002c01
    30a4:	000001e5 	.word	0x000001e5
    30a8:	0000654c 	.word	0x0000654c
    30ac:	0000332d 	.word	0x0000332d
    30b0:	00002e5d 	.word	0x00002e5d
    30b4:	0000237d 	.word	0x0000237d
    30b8:	00002429 	.word	0x00002429
    30bc:	20000298 	.word	0x20000298
    30c0:	2000029a 	.word	0x2000029a

000030c4 <main>:
{
    30c4:	b5f8      	push	{r3, r4, r5, r6, r7, lr}
	setupBoard();
    30c6:	4b1b      	ldr	r3, [pc, #108]	; (3134 <main+0x70>)
    30c8:	4798      	blx	r3
		if((ul_tickcount % (UINT16_MAX/4) == 0) && (funcLock == false))
    30ca:	4f1b      	ldr	r7, [pc, #108]	; (3138 <main+0x74>)
    30cc:	4e1b      	ldr	r6, [pc, #108]	; (313c <main+0x78>)
    30ce:	4d1c      	ldr	r5, [pc, #112]	; (3140 <main+0x7c>)
    30d0:	e013      	b.n	30fa <main+0x36>
		if((ul_tickcount % 200 == 0) && (funcLock == false))
    30d2:	21c8      	movs	r1, #200	; 0xc8
    30d4:	0020      	movs	r0, r4
    30d6:	4b19      	ldr	r3, [pc, #100]	; (313c <main+0x78>)
    30d8:	4798      	blx	r3
    30da:	b289      	uxth	r1, r1
    30dc:	2900      	cmp	r1, #0
    30de:	d10c      	bne.n	30fa <main+0x36>
    30e0:	4b18      	ldr	r3, [pc, #96]	; (3144 <main+0x80>)
    30e2:	781b      	ldrb	r3, [r3, #0]
    30e4:	2b00      	cmp	r3, #0
    30e6:	d108      	bne.n	30fa <main+0x36>
			funcLock = true;
    30e8:	4c16      	ldr	r4, [pc, #88]	; (3144 <main+0x80>)
    30ea:	2301      	movs	r3, #1
    30ec:	7023      	strb	r3, [r4, #0]
			readKeyboard();
    30ee:	4b16      	ldr	r3, [pc, #88]	; (3148 <main+0x84>)
    30f0:	4798      	blx	r3
			printKeyboardBuffer();
    30f2:	4b16      	ldr	r3, [pc, #88]	; (314c <main+0x88>)
    30f4:	4798      	blx	r3
			funcLock = false;
    30f6:	2300      	movs	r3, #0
    30f8:	7023      	strb	r3, [r4, #0]
		__WFI();
    30fa:	bf30      	wfi
		if((ul_tickcount % (UINT16_MAX/4) == 0) && (funcLock == false))
    30fc:	883c      	ldrh	r4, [r7, #0]
    30fe:	0029      	movs	r1, r5
    3100:	0020      	movs	r0, r4
    3102:	47b0      	blx	r6
    3104:	b289      	uxth	r1, r1
    3106:	2900      	cmp	r1, #0
    3108:	d1e3      	bne.n	30d2 <main+0xe>
    310a:	4b0e      	ldr	r3, [pc, #56]	; (3144 <main+0x80>)
    310c:	781b      	ldrb	r3, [r3, #0]
    310e:	2b00      	cmp	r3, #0
    3110:	d1f3      	bne.n	30fa <main+0x36>
			funcLock = true;
    3112:	4c0c      	ldr	r4, [pc, #48]	; (3144 <main+0x80>)
    3114:	3301      	adds	r3, #1
    3116:	7023      	strb	r3, [r4, #0]
			blinkCursor();
    3118:	4b0d      	ldr	r3, [pc, #52]	; (3150 <main+0x8c>)
    311a:	4798      	blx	r3
			funcLock = false;
    311c:	2300      	movs	r3, #0
    311e:	7023      	strb	r3, [r4, #0]
		if((ul_tickcount % 200 == 0) && (funcLock == false))
    3120:	4b05      	ldr	r3, [pc, #20]	; (3138 <main+0x74>)
    3122:	8818      	ldrh	r0, [r3, #0]
    3124:	21c8      	movs	r1, #200	; 0xc8
    3126:	4b05      	ldr	r3, [pc, #20]	; (313c <main+0x78>)
    3128:	4798      	blx	r3
    312a:	b289      	uxth	r1, r1
    312c:	2900      	cmp	r1, #0
    312e:	d0db      	beq.n	30e8 <main+0x24>
    3130:	e7e3      	b.n	30fa <main+0x36>
    3132:	46c0      	nop			; (mov r8, r8)
    3134:	00002fcd 	.word	0x00002fcd
    3138:	2000029e 	.word	0x2000029e
    313c:	00003261 	.word	0x00003261
    3140:	00003fff 	.word	0x00003fff
    3144:	2000029c 	.word	0x2000029c
    3148:	0000217d 	.word	0x0000217d
    314c:	00002621 	.word	0x00002621
    3150:	00002505 	.word	0x00002505

00003154 <__udivsi3>:
    3154:	2200      	movs	r2, #0
    3156:	0843      	lsrs	r3, r0, #1
    3158:	428b      	cmp	r3, r1
    315a:	d374      	bcc.n	3246 <__udivsi3+0xf2>
    315c:	0903      	lsrs	r3, r0, #4
    315e:	428b      	cmp	r3, r1
    3160:	d35f      	bcc.n	3222 <__udivsi3+0xce>
    3162:	0a03      	lsrs	r3, r0, #8
    3164:	428b      	cmp	r3, r1
    3166:	d344      	bcc.n	31f2 <__udivsi3+0x9e>
    3168:	0b03      	lsrs	r3, r0, #12
    316a:	428b      	cmp	r3, r1
    316c:	d328      	bcc.n	31c0 <__udivsi3+0x6c>
    316e:	0c03      	lsrs	r3, r0, #16
    3170:	428b      	cmp	r3, r1
    3172:	d30d      	bcc.n	3190 <__udivsi3+0x3c>
    3174:	22ff      	movs	r2, #255	; 0xff
    3176:	0209      	lsls	r1, r1, #8
    3178:	ba12      	rev	r2, r2
    317a:	0c03      	lsrs	r3, r0, #16
    317c:	428b      	cmp	r3, r1
    317e:	d302      	bcc.n	3186 <__udivsi3+0x32>
    3180:	1212      	asrs	r2, r2, #8
    3182:	0209      	lsls	r1, r1, #8
    3184:	d065      	beq.n	3252 <__udivsi3+0xfe>
    3186:	0b03      	lsrs	r3, r0, #12
    3188:	428b      	cmp	r3, r1
    318a:	d319      	bcc.n	31c0 <__udivsi3+0x6c>
    318c:	e000      	b.n	3190 <__udivsi3+0x3c>
    318e:	0a09      	lsrs	r1, r1, #8
    3190:	0bc3      	lsrs	r3, r0, #15
    3192:	428b      	cmp	r3, r1
    3194:	d301      	bcc.n	319a <__udivsi3+0x46>
    3196:	03cb      	lsls	r3, r1, #15
    3198:	1ac0      	subs	r0, r0, r3
    319a:	4152      	adcs	r2, r2
    319c:	0b83      	lsrs	r3, r0, #14
    319e:	428b      	cmp	r3, r1
    31a0:	d301      	bcc.n	31a6 <__udivsi3+0x52>
    31a2:	038b      	lsls	r3, r1, #14
    31a4:	1ac0      	subs	r0, r0, r3
    31a6:	4152      	adcs	r2, r2
    31a8:	0b43      	lsrs	r3, r0, #13
    31aa:	428b      	cmp	r3, r1
    31ac:	d301      	bcc.n	31b2 <__udivsi3+0x5e>
    31ae:	034b      	lsls	r3, r1, #13
    31b0:	1ac0      	subs	r0, r0, r3
    31b2:	4152      	adcs	r2, r2
    31b4:	0b03      	lsrs	r3, r0, #12
    31b6:	428b      	cmp	r3, r1
    31b8:	d301      	bcc.n	31be <__udivsi3+0x6a>
    31ba:	030b      	lsls	r3, r1, #12
    31bc:	1ac0      	subs	r0, r0, r3
    31be:	4152      	adcs	r2, r2
    31c0:	0ac3      	lsrs	r3, r0, #11
    31c2:	428b      	cmp	r3, r1
    31c4:	d301      	bcc.n	31ca <__udivsi3+0x76>
    31c6:	02cb      	lsls	r3, r1, #11
    31c8:	1ac0      	subs	r0, r0, r3
    31ca:	4152      	adcs	r2, r2
    31cc:	0a83      	lsrs	r3, r0, #10
    31ce:	428b      	cmp	r3, r1
    31d0:	d301      	bcc.n	31d6 <__udivsi3+0x82>
    31d2:	028b      	lsls	r3, r1, #10
    31d4:	1ac0      	subs	r0, r0, r3
    31d6:	4152      	adcs	r2, r2
    31d8:	0a43      	lsrs	r3, r0, #9
    31da:	428b      	cmp	r3, r1
    31dc:	d301      	bcc.n	31e2 <__udivsi3+0x8e>
    31de:	024b      	lsls	r3, r1, #9
    31e0:	1ac0      	subs	r0, r0, r3
    31e2:	4152      	adcs	r2, r2
    31e4:	0a03      	lsrs	r3, r0, #8
    31e6:	428b      	cmp	r3, r1
    31e8:	d301      	bcc.n	31ee <__udivsi3+0x9a>
    31ea:	020b      	lsls	r3, r1, #8
    31ec:	1ac0      	subs	r0, r0, r3
    31ee:	4152      	adcs	r2, r2
    31f0:	d2cd      	bcs.n	318e <__udivsi3+0x3a>
    31f2:	09c3      	lsrs	r3, r0, #7
    31f4:	428b      	cmp	r3, r1
    31f6:	d301      	bcc.n	31fc <__udivsi3+0xa8>
    31f8:	01cb      	lsls	r3, r1, #7
    31fa:	1ac0      	subs	r0, r0, r3
    31fc:	4152      	adcs	r2, r2
    31fe:	0983      	lsrs	r3, r0, #6
    3200:	428b      	cmp	r3, r1
    3202:	d301      	bcc.n	3208 <__udivsi3+0xb4>
    3204:	018b      	lsls	r3, r1, #6
    3206:	1ac0      	subs	r0, r0, r3
    3208:	4152      	adcs	r2, r2
    320a:	0943      	lsrs	r3, r0, #5
    320c:	428b      	cmp	r3, r1
    320e:	d301      	bcc.n	3214 <__udivsi3+0xc0>
    3210:	014b      	lsls	r3, r1, #5
    3212:	1ac0      	subs	r0, r0, r3
    3214:	4152      	adcs	r2, r2
    3216:	0903      	lsrs	r3, r0, #4
    3218:	428b      	cmp	r3, r1
    321a:	d301      	bcc.n	3220 <__udivsi3+0xcc>
    321c:	010b      	lsls	r3, r1, #4
    321e:	1ac0      	subs	r0, r0, r3
    3220:	4152      	adcs	r2, r2
    3222:	08c3      	lsrs	r3, r0, #3
    3224:	428b      	cmp	r3, r1
    3226:	d301      	bcc.n	322c <__udivsi3+0xd8>
    3228:	00cb      	lsls	r3, r1, #3
    322a:	1ac0      	subs	r0, r0, r3
    322c:	4152      	adcs	r2, r2
    322e:	0883      	lsrs	r3, r0, #2
    3230:	428b      	cmp	r3, r1
    3232:	d301      	bcc.n	3238 <__udivsi3+0xe4>
    3234:	008b      	lsls	r3, r1, #2
    3236:	1ac0      	subs	r0, r0, r3
    3238:	4152      	adcs	r2, r2
    323a:	0843      	lsrs	r3, r0, #1
    323c:	428b      	cmp	r3, r1
    323e:	d301      	bcc.n	3244 <__udivsi3+0xf0>
    3240:	004b      	lsls	r3, r1, #1
    3242:	1ac0      	subs	r0, r0, r3
    3244:	4152      	adcs	r2, r2
    3246:	1a41      	subs	r1, r0, r1
    3248:	d200      	bcs.n	324c <__udivsi3+0xf8>
    324a:	4601      	mov	r1, r0
    324c:	4152      	adcs	r2, r2
    324e:	4610      	mov	r0, r2
    3250:	4770      	bx	lr
    3252:	e7ff      	b.n	3254 <__udivsi3+0x100>
    3254:	b501      	push	{r0, lr}
    3256:	2000      	movs	r0, #0
    3258:	f000 f806 	bl	3268 <__aeabi_idiv0>
    325c:	bd02      	pop	{r1, pc}
    325e:	46c0      	nop			; (mov r8, r8)

00003260 <__aeabi_uidivmod>:
    3260:	2900      	cmp	r1, #0
    3262:	d0f7      	beq.n	3254 <__udivsi3+0x100>
    3264:	e776      	b.n	3154 <__udivsi3>
    3266:	4770      	bx	lr

00003268 <__aeabi_idiv0>:
    3268:	4770      	bx	lr
    326a:	46c0      	nop			; (mov r8, r8)

0000326c <__aeabi_lmul>:
    326c:	b5f0      	push	{r4, r5, r6, r7, lr}
    326e:	46ce      	mov	lr, r9
    3270:	4647      	mov	r7, r8
    3272:	0415      	lsls	r5, r2, #16
    3274:	0c2d      	lsrs	r5, r5, #16
    3276:	002e      	movs	r6, r5
    3278:	b580      	push	{r7, lr}
    327a:	0407      	lsls	r7, r0, #16
    327c:	0c14      	lsrs	r4, r2, #16
    327e:	0c3f      	lsrs	r7, r7, #16
    3280:	4699      	mov	r9, r3
    3282:	0c03      	lsrs	r3, r0, #16
    3284:	437e      	muls	r6, r7
    3286:	435d      	muls	r5, r3
    3288:	4367      	muls	r7, r4
    328a:	4363      	muls	r3, r4
    328c:	197f      	adds	r7, r7, r5
    328e:	0c34      	lsrs	r4, r6, #16
    3290:	19e4      	adds	r4, r4, r7
    3292:	469c      	mov	ip, r3
    3294:	42a5      	cmp	r5, r4
    3296:	d903      	bls.n	32a0 <__aeabi_lmul+0x34>
    3298:	2380      	movs	r3, #128	; 0x80
    329a:	025b      	lsls	r3, r3, #9
    329c:	4698      	mov	r8, r3
    329e:	44c4      	add	ip, r8
    32a0:	464b      	mov	r3, r9
    32a2:	4351      	muls	r1, r2
    32a4:	4343      	muls	r3, r0
    32a6:	0436      	lsls	r6, r6, #16
    32a8:	0c36      	lsrs	r6, r6, #16
    32aa:	0c25      	lsrs	r5, r4, #16
    32ac:	0424      	lsls	r4, r4, #16
    32ae:	4465      	add	r5, ip
    32b0:	19a4      	adds	r4, r4, r6
    32b2:	1859      	adds	r1, r3, r1
    32b4:	1949      	adds	r1, r1, r5
    32b6:	0020      	movs	r0, r4
    32b8:	bc0c      	pop	{r2, r3}
    32ba:	4690      	mov	r8, r2
    32bc:	4699      	mov	r9, r3
    32be:	bdf0      	pop	{r4, r5, r6, r7, pc}

000032c0 <__libc_init_array>:
    32c0:	b570      	push	{r4, r5, r6, lr}
    32c2:	2600      	movs	r6, #0
    32c4:	4d0c      	ldr	r5, [pc, #48]	; (32f8 <__libc_init_array+0x38>)
    32c6:	4c0d      	ldr	r4, [pc, #52]	; (32fc <__libc_init_array+0x3c>)
    32c8:	1b64      	subs	r4, r4, r5
    32ca:	10a4      	asrs	r4, r4, #2
    32cc:	42a6      	cmp	r6, r4
    32ce:	d109      	bne.n	32e4 <__libc_init_array+0x24>
    32d0:	2600      	movs	r6, #0
    32d2:	f003 f993 	bl	65fc <_init>
    32d6:	4d0a      	ldr	r5, [pc, #40]	; (3300 <__libc_init_array+0x40>)
    32d8:	4c0a      	ldr	r4, [pc, #40]	; (3304 <__libc_init_array+0x44>)
    32da:	1b64      	subs	r4, r4, r5
    32dc:	10a4      	asrs	r4, r4, #2
    32de:	42a6      	cmp	r6, r4
    32e0:	d105      	bne.n	32ee <__libc_init_array+0x2e>
    32e2:	bd70      	pop	{r4, r5, r6, pc}
    32e4:	00b3      	lsls	r3, r6, #2
    32e6:	58eb      	ldr	r3, [r5, r3]
    32e8:	4798      	blx	r3
    32ea:	3601      	adds	r6, #1
    32ec:	e7ee      	b.n	32cc <__libc_init_array+0xc>
    32ee:	00b3      	lsls	r3, r6, #2
    32f0:	58eb      	ldr	r3, [r5, r3]
    32f2:	4798      	blx	r3
    32f4:	3601      	adds	r6, #1
    32f6:	e7f2      	b.n	32de <__libc_init_array+0x1e>
    32f8:	00006608 	.word	0x00006608
    32fc:	00006608 	.word	0x00006608
    3300:	00006608 	.word	0x00006608
    3304:	0000660c 	.word	0x0000660c

00003308 <memcpy>:
    3308:	2300      	movs	r3, #0
    330a:	b510      	push	{r4, lr}
    330c:	429a      	cmp	r2, r3
    330e:	d100      	bne.n	3312 <memcpy+0xa>
    3310:	bd10      	pop	{r4, pc}
    3312:	5ccc      	ldrb	r4, [r1, r3]
    3314:	54c4      	strb	r4, [r0, r3]
    3316:	3301      	adds	r3, #1
    3318:	e7f8      	b.n	330c <memcpy+0x4>

0000331a <memset>:
    331a:	0003      	movs	r3, r0
    331c:	1882      	adds	r2, r0, r2
    331e:	4293      	cmp	r3, r2
    3320:	d100      	bne.n	3324 <memset+0xa>
    3322:	4770      	bx	lr
    3324:	7019      	strb	r1, [r3, #0]
    3326:	3301      	adds	r3, #1
    3328:	e7f9      	b.n	331e <memset+0x4>
	...

0000332c <iprintf>:
    332c:	b40f      	push	{r0, r1, r2, r3}
    332e:	4b0b      	ldr	r3, [pc, #44]	; (335c <iprintf+0x30>)
    3330:	b513      	push	{r0, r1, r4, lr}
    3332:	681c      	ldr	r4, [r3, #0]
    3334:	2c00      	cmp	r4, #0
    3336:	d005      	beq.n	3344 <iprintf+0x18>
    3338:	69a3      	ldr	r3, [r4, #24]
    333a:	2b00      	cmp	r3, #0
    333c:	d102      	bne.n	3344 <iprintf+0x18>
    333e:	0020      	movs	r0, r4
    3340:	f000 fa2e 	bl	37a0 <__sinit>
    3344:	ab05      	add	r3, sp, #20
    3346:	9a04      	ldr	r2, [sp, #16]
    3348:	68a1      	ldr	r1, [r4, #8]
    334a:	0020      	movs	r0, r4
    334c:	9301      	str	r3, [sp, #4]
    334e:	f000 fc03 	bl	3b58 <_vfiprintf_r>
    3352:	bc16      	pop	{r1, r2, r4}
    3354:	bc08      	pop	{r3}
    3356:	b004      	add	sp, #16
    3358:	4718      	bx	r3
    335a:	46c0      	nop			; (mov r8, r8)
    335c:	20000158 	.word	0x20000158

00003360 <srand>:
    3360:	4b10      	ldr	r3, [pc, #64]	; (33a4 <srand+0x44>)
    3362:	b570      	push	{r4, r5, r6, lr}
    3364:	681c      	ldr	r4, [r3, #0]
    3366:	0005      	movs	r5, r0
    3368:	6ba3      	ldr	r3, [r4, #56]	; 0x38
    336a:	2b00      	cmp	r3, #0
    336c:	d115      	bne.n	339a <srand+0x3a>
    336e:	2018      	movs	r0, #24
    3370:	f000 fb18 	bl	39a4 <malloc>
    3374:	4b0c      	ldr	r3, [pc, #48]	; (33a8 <srand+0x48>)
    3376:	63a0      	str	r0, [r4, #56]	; 0x38
    3378:	8003      	strh	r3, [r0, #0]
    337a:	4b0c      	ldr	r3, [pc, #48]	; (33ac <srand+0x4c>)
    337c:	2201      	movs	r2, #1
    337e:	8043      	strh	r3, [r0, #2]
    3380:	4b0b      	ldr	r3, [pc, #44]	; (33b0 <srand+0x50>)
    3382:	8083      	strh	r3, [r0, #4]
    3384:	4b0b      	ldr	r3, [pc, #44]	; (33b4 <srand+0x54>)
    3386:	80c3      	strh	r3, [r0, #6]
    3388:	4b0b      	ldr	r3, [pc, #44]	; (33b8 <srand+0x58>)
    338a:	8103      	strh	r3, [r0, #8]
    338c:	2305      	movs	r3, #5
    338e:	8143      	strh	r3, [r0, #10]
    3390:	3306      	adds	r3, #6
    3392:	8183      	strh	r3, [r0, #12]
    3394:	2300      	movs	r3, #0
    3396:	6102      	str	r2, [r0, #16]
    3398:	6143      	str	r3, [r0, #20]
    339a:	2200      	movs	r2, #0
    339c:	6ba3      	ldr	r3, [r4, #56]	; 0x38
    339e:	611d      	str	r5, [r3, #16]
    33a0:	615a      	str	r2, [r3, #20]
    33a2:	bd70      	pop	{r4, r5, r6, pc}
    33a4:	20000158 	.word	0x20000158
    33a8:	0000330e 	.word	0x0000330e
    33ac:	ffffabcd 	.word	0xffffabcd
    33b0:	00001234 	.word	0x00001234
    33b4:	ffffe66d 	.word	0xffffe66d
    33b8:	ffffdeec 	.word	0xffffdeec

000033bc <rand>:
    33bc:	4b15      	ldr	r3, [pc, #84]	; (3414 <rand+0x58>)
    33be:	b510      	push	{r4, lr}
    33c0:	681c      	ldr	r4, [r3, #0]
    33c2:	6ba3      	ldr	r3, [r4, #56]	; 0x38
    33c4:	2b00      	cmp	r3, #0
    33c6:	d115      	bne.n	33f4 <rand+0x38>
    33c8:	2018      	movs	r0, #24
    33ca:	f000 faeb 	bl	39a4 <malloc>
    33ce:	4b12      	ldr	r3, [pc, #72]	; (3418 <rand+0x5c>)
    33d0:	63a0      	str	r0, [r4, #56]	; 0x38
    33d2:	8003      	strh	r3, [r0, #0]
    33d4:	4b11      	ldr	r3, [pc, #68]	; (341c <rand+0x60>)
    33d6:	2201      	movs	r2, #1
    33d8:	8043      	strh	r3, [r0, #2]
    33da:	4b11      	ldr	r3, [pc, #68]	; (3420 <rand+0x64>)
    33dc:	8083      	strh	r3, [r0, #4]
    33de:	4b11      	ldr	r3, [pc, #68]	; (3424 <rand+0x68>)
    33e0:	80c3      	strh	r3, [r0, #6]
    33e2:	4b11      	ldr	r3, [pc, #68]	; (3428 <rand+0x6c>)
    33e4:	8103      	strh	r3, [r0, #8]
    33e6:	2305      	movs	r3, #5
    33e8:	8143      	strh	r3, [r0, #10]
    33ea:	3306      	adds	r3, #6
    33ec:	8183      	strh	r3, [r0, #12]
    33ee:	2300      	movs	r3, #0
    33f0:	6102      	str	r2, [r0, #16]
    33f2:	6143      	str	r3, [r0, #20]
    33f4:	6ba4      	ldr	r4, [r4, #56]	; 0x38
    33f6:	4a0d      	ldr	r2, [pc, #52]	; (342c <rand+0x70>)
    33f8:	6920      	ldr	r0, [r4, #16]
    33fa:	6961      	ldr	r1, [r4, #20]
    33fc:	4b0c      	ldr	r3, [pc, #48]	; (3430 <rand+0x74>)
    33fe:	f7ff ff35 	bl	326c <__aeabi_lmul>
    3402:	2201      	movs	r2, #1
    3404:	2300      	movs	r3, #0
    3406:	1880      	adds	r0, r0, r2
    3408:	4159      	adcs	r1, r3
    340a:	6120      	str	r0, [r4, #16]
    340c:	6161      	str	r1, [r4, #20]
    340e:	0048      	lsls	r0, r1, #1
    3410:	0840      	lsrs	r0, r0, #1
    3412:	bd10      	pop	{r4, pc}
    3414:	20000158 	.word	0x20000158
    3418:	0000330e 	.word	0x0000330e
    341c:	ffffabcd 	.word	0xffffabcd
    3420:	00001234 	.word	0x00001234
    3424:	ffffe66d 	.word	0xffffe66d
    3428:	ffffdeec 	.word	0xffffdeec
    342c:	4c957f2d 	.word	0x4c957f2d
    3430:	5851f42d 	.word	0x5851f42d

00003434 <setbuf>:
    3434:	424a      	negs	r2, r1
    3436:	414a      	adcs	r2, r1
    3438:	2380      	movs	r3, #128	; 0x80
    343a:	b510      	push	{r4, lr}
    343c:	0052      	lsls	r2, r2, #1
    343e:	00db      	lsls	r3, r3, #3
    3440:	f000 f802 	bl	3448 <setvbuf>
    3444:	bd10      	pop	{r4, pc}
	...

00003448 <setvbuf>:
    3448:	b5f0      	push	{r4, r5, r6, r7, lr}
    344a:	001d      	movs	r5, r3
    344c:	4b4f      	ldr	r3, [pc, #316]	; (358c <setvbuf+0x144>)
    344e:	b085      	sub	sp, #20
    3450:	681e      	ldr	r6, [r3, #0]
    3452:	0004      	movs	r4, r0
    3454:	000f      	movs	r7, r1
    3456:	9200      	str	r2, [sp, #0]
    3458:	2e00      	cmp	r6, #0
    345a:	d005      	beq.n	3468 <setvbuf+0x20>
    345c:	69b3      	ldr	r3, [r6, #24]
    345e:	2b00      	cmp	r3, #0
    3460:	d102      	bne.n	3468 <setvbuf+0x20>
    3462:	0030      	movs	r0, r6
    3464:	f000 f99c 	bl	37a0 <__sinit>
    3468:	4b49      	ldr	r3, [pc, #292]	; (3590 <setvbuf+0x148>)
    346a:	429c      	cmp	r4, r3
    346c:	d150      	bne.n	3510 <setvbuf+0xc8>
    346e:	6874      	ldr	r4, [r6, #4]
    3470:	9b00      	ldr	r3, [sp, #0]
    3472:	2b02      	cmp	r3, #2
    3474:	d005      	beq.n	3482 <setvbuf+0x3a>
    3476:	2b01      	cmp	r3, #1
    3478:	d900      	bls.n	347c <setvbuf+0x34>
    347a:	e084      	b.n	3586 <setvbuf+0x13e>
    347c:	2d00      	cmp	r5, #0
    347e:	da00      	bge.n	3482 <setvbuf+0x3a>
    3480:	e081      	b.n	3586 <setvbuf+0x13e>
    3482:	0021      	movs	r1, r4
    3484:	0030      	movs	r0, r6
    3486:	f000 f91d 	bl	36c4 <_fflush_r>
    348a:	6b61      	ldr	r1, [r4, #52]	; 0x34
    348c:	2900      	cmp	r1, #0
    348e:	d008      	beq.n	34a2 <setvbuf+0x5a>
    3490:	0023      	movs	r3, r4
    3492:	3344      	adds	r3, #68	; 0x44
    3494:	4299      	cmp	r1, r3
    3496:	d002      	beq.n	349e <setvbuf+0x56>
    3498:	0030      	movs	r0, r6
    349a:	f000 fa8d 	bl	39b8 <_free_r>
    349e:	2300      	movs	r3, #0
    34a0:	6363      	str	r3, [r4, #52]	; 0x34
    34a2:	2300      	movs	r3, #0
    34a4:	61a3      	str	r3, [r4, #24]
    34a6:	6063      	str	r3, [r4, #4]
    34a8:	89a3      	ldrh	r3, [r4, #12]
    34aa:	061b      	lsls	r3, r3, #24
    34ac:	d503      	bpl.n	34b6 <setvbuf+0x6e>
    34ae:	6921      	ldr	r1, [r4, #16]
    34b0:	0030      	movs	r0, r6
    34b2:	f000 fa81 	bl	39b8 <_free_r>
    34b6:	89a3      	ldrh	r3, [r4, #12]
    34b8:	4a36      	ldr	r2, [pc, #216]	; (3594 <setvbuf+0x14c>)
    34ba:	4013      	ands	r3, r2
    34bc:	81a3      	strh	r3, [r4, #12]
    34be:	9b00      	ldr	r3, [sp, #0]
    34c0:	2b02      	cmp	r3, #2
    34c2:	d05a      	beq.n	357a <setvbuf+0x132>
    34c4:	ab03      	add	r3, sp, #12
    34c6:	aa02      	add	r2, sp, #8
    34c8:	0021      	movs	r1, r4
    34ca:	0030      	movs	r0, r6
    34cc:	f000 f9fe 	bl	38cc <__swhatbuf_r>
    34d0:	89a3      	ldrh	r3, [r4, #12]
    34d2:	4318      	orrs	r0, r3
    34d4:	81a0      	strh	r0, [r4, #12]
    34d6:	2d00      	cmp	r5, #0
    34d8:	d124      	bne.n	3524 <setvbuf+0xdc>
    34da:	9d02      	ldr	r5, [sp, #8]
    34dc:	0028      	movs	r0, r5
    34de:	f000 fa61 	bl	39a4 <malloc>
    34e2:	9501      	str	r5, [sp, #4]
    34e4:	1e07      	subs	r7, r0, #0
    34e6:	d142      	bne.n	356e <setvbuf+0x126>
    34e8:	9b02      	ldr	r3, [sp, #8]
    34ea:	9301      	str	r3, [sp, #4]
    34ec:	42ab      	cmp	r3, r5
    34ee:	d139      	bne.n	3564 <setvbuf+0x11c>
    34f0:	2001      	movs	r0, #1
    34f2:	4240      	negs	r0, r0
    34f4:	2302      	movs	r3, #2
    34f6:	89a2      	ldrh	r2, [r4, #12]
    34f8:	4313      	orrs	r3, r2
    34fa:	81a3      	strh	r3, [r4, #12]
    34fc:	2300      	movs	r3, #0
    34fe:	60a3      	str	r3, [r4, #8]
    3500:	0023      	movs	r3, r4
    3502:	3347      	adds	r3, #71	; 0x47
    3504:	6023      	str	r3, [r4, #0]
    3506:	6123      	str	r3, [r4, #16]
    3508:	2301      	movs	r3, #1
    350a:	6163      	str	r3, [r4, #20]
    350c:	b005      	add	sp, #20
    350e:	bdf0      	pop	{r4, r5, r6, r7, pc}
    3510:	4b21      	ldr	r3, [pc, #132]	; (3598 <setvbuf+0x150>)
    3512:	429c      	cmp	r4, r3
    3514:	d101      	bne.n	351a <setvbuf+0xd2>
    3516:	68b4      	ldr	r4, [r6, #8]
    3518:	e7aa      	b.n	3470 <setvbuf+0x28>
    351a:	4b20      	ldr	r3, [pc, #128]	; (359c <setvbuf+0x154>)
    351c:	429c      	cmp	r4, r3
    351e:	d1a7      	bne.n	3470 <setvbuf+0x28>
    3520:	68f4      	ldr	r4, [r6, #12]
    3522:	e7a5      	b.n	3470 <setvbuf+0x28>
    3524:	2f00      	cmp	r7, #0
    3526:	d0d9      	beq.n	34dc <setvbuf+0x94>
    3528:	69b3      	ldr	r3, [r6, #24]
    352a:	2b00      	cmp	r3, #0
    352c:	d102      	bne.n	3534 <setvbuf+0xec>
    352e:	0030      	movs	r0, r6
    3530:	f000 f936 	bl	37a0 <__sinit>
    3534:	9b00      	ldr	r3, [sp, #0]
    3536:	2b01      	cmp	r3, #1
    3538:	d103      	bne.n	3542 <setvbuf+0xfa>
    353a:	89a3      	ldrh	r3, [r4, #12]
    353c:	9a00      	ldr	r2, [sp, #0]
    353e:	431a      	orrs	r2, r3
    3540:	81a2      	strh	r2, [r4, #12]
    3542:	2008      	movs	r0, #8
    3544:	89a3      	ldrh	r3, [r4, #12]
    3546:	6027      	str	r7, [r4, #0]
    3548:	6127      	str	r7, [r4, #16]
    354a:	6165      	str	r5, [r4, #20]
    354c:	4018      	ands	r0, r3
    354e:	d018      	beq.n	3582 <setvbuf+0x13a>
    3550:	2001      	movs	r0, #1
    3552:	4018      	ands	r0, r3
    3554:	2300      	movs	r3, #0
    3556:	4298      	cmp	r0, r3
    3558:	d011      	beq.n	357e <setvbuf+0x136>
    355a:	426d      	negs	r5, r5
    355c:	60a3      	str	r3, [r4, #8]
    355e:	61a5      	str	r5, [r4, #24]
    3560:	0018      	movs	r0, r3
    3562:	e7d3      	b.n	350c <setvbuf+0xc4>
    3564:	9801      	ldr	r0, [sp, #4]
    3566:	f000 fa1d 	bl	39a4 <malloc>
    356a:	1e07      	subs	r7, r0, #0
    356c:	d0c0      	beq.n	34f0 <setvbuf+0xa8>
    356e:	2380      	movs	r3, #128	; 0x80
    3570:	89a2      	ldrh	r2, [r4, #12]
    3572:	9d01      	ldr	r5, [sp, #4]
    3574:	4313      	orrs	r3, r2
    3576:	81a3      	strh	r3, [r4, #12]
    3578:	e7d6      	b.n	3528 <setvbuf+0xe0>
    357a:	2000      	movs	r0, #0
    357c:	e7ba      	b.n	34f4 <setvbuf+0xac>
    357e:	60a5      	str	r5, [r4, #8]
    3580:	e7c4      	b.n	350c <setvbuf+0xc4>
    3582:	60a0      	str	r0, [r4, #8]
    3584:	e7c2      	b.n	350c <setvbuf+0xc4>
    3586:	2001      	movs	r0, #1
    3588:	4240      	negs	r0, r0
    358a:	e7bf      	b.n	350c <setvbuf+0xc4>
    358c:	20000158 	.word	0x20000158
    3590:	00006588 	.word	0x00006588
    3594:	fffff35c 	.word	0xfffff35c
    3598:	000065a8 	.word	0x000065a8
    359c:	00006568 	.word	0x00006568

000035a0 <strlen>:
    35a0:	2300      	movs	r3, #0
    35a2:	5cc2      	ldrb	r2, [r0, r3]
    35a4:	3301      	adds	r3, #1
    35a6:	2a00      	cmp	r2, #0
    35a8:	d1fb      	bne.n	35a2 <strlen+0x2>
    35aa:	1e58      	subs	r0, r3, #1
    35ac:	4770      	bx	lr
	...

000035b0 <__sflush_r>:
    35b0:	b5f7      	push	{r0, r1, r2, r4, r5, r6, r7, lr}
    35b2:	898a      	ldrh	r2, [r1, #12]
    35b4:	0005      	movs	r5, r0
    35b6:	000c      	movs	r4, r1
    35b8:	0713      	lsls	r3, r2, #28
    35ba:	d460      	bmi.n	367e <__sflush_r+0xce>
    35bc:	684b      	ldr	r3, [r1, #4]
    35be:	2b00      	cmp	r3, #0
    35c0:	dc04      	bgt.n	35cc <__sflush_r+0x1c>
    35c2:	6c0b      	ldr	r3, [r1, #64]	; 0x40
    35c4:	2b00      	cmp	r3, #0
    35c6:	dc01      	bgt.n	35cc <__sflush_r+0x1c>
    35c8:	2000      	movs	r0, #0
    35ca:	bdfe      	pop	{r1, r2, r3, r4, r5, r6, r7, pc}
    35cc:	6ae7      	ldr	r7, [r4, #44]	; 0x2c
    35ce:	2f00      	cmp	r7, #0
    35d0:	d0fa      	beq.n	35c8 <__sflush_r+0x18>
    35d2:	2300      	movs	r3, #0
    35d4:	682e      	ldr	r6, [r5, #0]
    35d6:	602b      	str	r3, [r5, #0]
    35d8:	2380      	movs	r3, #128	; 0x80
    35da:	015b      	lsls	r3, r3, #5
    35dc:	401a      	ands	r2, r3
    35de:	d034      	beq.n	364a <__sflush_r+0x9a>
    35e0:	6d60      	ldr	r0, [r4, #84]	; 0x54
    35e2:	89a3      	ldrh	r3, [r4, #12]
    35e4:	075b      	lsls	r3, r3, #29
    35e6:	d506      	bpl.n	35f6 <__sflush_r+0x46>
    35e8:	6863      	ldr	r3, [r4, #4]
    35ea:	1ac0      	subs	r0, r0, r3
    35ec:	6b63      	ldr	r3, [r4, #52]	; 0x34
    35ee:	2b00      	cmp	r3, #0
    35f0:	d001      	beq.n	35f6 <__sflush_r+0x46>
    35f2:	6c23      	ldr	r3, [r4, #64]	; 0x40
    35f4:	1ac0      	subs	r0, r0, r3
    35f6:	0002      	movs	r2, r0
    35f8:	6a21      	ldr	r1, [r4, #32]
    35fa:	2300      	movs	r3, #0
    35fc:	0028      	movs	r0, r5
    35fe:	6ae7      	ldr	r7, [r4, #44]	; 0x2c
    3600:	47b8      	blx	r7
    3602:	89a1      	ldrh	r1, [r4, #12]
    3604:	1c43      	adds	r3, r0, #1
    3606:	d106      	bne.n	3616 <__sflush_r+0x66>
    3608:	682b      	ldr	r3, [r5, #0]
    360a:	2b1d      	cmp	r3, #29
    360c:	d831      	bhi.n	3672 <__sflush_r+0xc2>
    360e:	4a2c      	ldr	r2, [pc, #176]	; (36c0 <__sflush_r+0x110>)
    3610:	40da      	lsrs	r2, r3
    3612:	07d3      	lsls	r3, r2, #31
    3614:	d52d      	bpl.n	3672 <__sflush_r+0xc2>
    3616:	2300      	movs	r3, #0
    3618:	6063      	str	r3, [r4, #4]
    361a:	6923      	ldr	r3, [r4, #16]
    361c:	6023      	str	r3, [r4, #0]
    361e:	04cb      	lsls	r3, r1, #19
    3620:	d505      	bpl.n	362e <__sflush_r+0x7e>
    3622:	1c43      	adds	r3, r0, #1
    3624:	d102      	bne.n	362c <__sflush_r+0x7c>
    3626:	682b      	ldr	r3, [r5, #0]
    3628:	2b00      	cmp	r3, #0
    362a:	d100      	bne.n	362e <__sflush_r+0x7e>
    362c:	6560      	str	r0, [r4, #84]	; 0x54
    362e:	6b61      	ldr	r1, [r4, #52]	; 0x34
    3630:	602e      	str	r6, [r5, #0]
    3632:	2900      	cmp	r1, #0
    3634:	d0c8      	beq.n	35c8 <__sflush_r+0x18>
    3636:	0023      	movs	r3, r4
    3638:	3344      	adds	r3, #68	; 0x44
    363a:	4299      	cmp	r1, r3
    363c:	d002      	beq.n	3644 <__sflush_r+0x94>
    363e:	0028      	movs	r0, r5
    3640:	f000 f9ba 	bl	39b8 <_free_r>
    3644:	2000      	movs	r0, #0
    3646:	6360      	str	r0, [r4, #52]	; 0x34
    3648:	e7bf      	b.n	35ca <__sflush_r+0x1a>
    364a:	2301      	movs	r3, #1
    364c:	6a21      	ldr	r1, [r4, #32]
    364e:	0028      	movs	r0, r5
    3650:	47b8      	blx	r7
    3652:	1c43      	adds	r3, r0, #1
    3654:	d1c5      	bne.n	35e2 <__sflush_r+0x32>
    3656:	682b      	ldr	r3, [r5, #0]
    3658:	2b00      	cmp	r3, #0
    365a:	d0c2      	beq.n	35e2 <__sflush_r+0x32>
    365c:	2b1d      	cmp	r3, #29
    365e:	d001      	beq.n	3664 <__sflush_r+0xb4>
    3660:	2b16      	cmp	r3, #22
    3662:	d101      	bne.n	3668 <__sflush_r+0xb8>
    3664:	602e      	str	r6, [r5, #0]
    3666:	e7af      	b.n	35c8 <__sflush_r+0x18>
    3668:	2340      	movs	r3, #64	; 0x40
    366a:	89a2      	ldrh	r2, [r4, #12]
    366c:	4313      	orrs	r3, r2
    366e:	81a3      	strh	r3, [r4, #12]
    3670:	e7ab      	b.n	35ca <__sflush_r+0x1a>
    3672:	2340      	movs	r3, #64	; 0x40
    3674:	430b      	orrs	r3, r1
    3676:	2001      	movs	r0, #1
    3678:	81a3      	strh	r3, [r4, #12]
    367a:	4240      	negs	r0, r0
    367c:	e7a5      	b.n	35ca <__sflush_r+0x1a>
    367e:	690f      	ldr	r7, [r1, #16]
    3680:	2f00      	cmp	r7, #0
    3682:	d0a1      	beq.n	35c8 <__sflush_r+0x18>
    3684:	680b      	ldr	r3, [r1, #0]
    3686:	600f      	str	r7, [r1, #0]
    3688:	1bdb      	subs	r3, r3, r7
    368a:	9301      	str	r3, [sp, #4]
    368c:	2300      	movs	r3, #0
    368e:	0792      	lsls	r2, r2, #30
    3690:	d100      	bne.n	3694 <__sflush_r+0xe4>
    3692:	694b      	ldr	r3, [r1, #20]
    3694:	60a3      	str	r3, [r4, #8]
    3696:	9b01      	ldr	r3, [sp, #4]
    3698:	2b00      	cmp	r3, #0
    369a:	dc00      	bgt.n	369e <__sflush_r+0xee>
    369c:	e794      	b.n	35c8 <__sflush_r+0x18>
    369e:	9b01      	ldr	r3, [sp, #4]
    36a0:	003a      	movs	r2, r7
    36a2:	6a21      	ldr	r1, [r4, #32]
    36a4:	0028      	movs	r0, r5
    36a6:	6aa6      	ldr	r6, [r4, #40]	; 0x28
    36a8:	47b0      	blx	r6
    36aa:	2800      	cmp	r0, #0
    36ac:	dc03      	bgt.n	36b6 <__sflush_r+0x106>
    36ae:	2340      	movs	r3, #64	; 0x40
    36b0:	89a2      	ldrh	r2, [r4, #12]
    36b2:	4313      	orrs	r3, r2
    36b4:	e7df      	b.n	3676 <__sflush_r+0xc6>
    36b6:	9b01      	ldr	r3, [sp, #4]
    36b8:	183f      	adds	r7, r7, r0
    36ba:	1a1b      	subs	r3, r3, r0
    36bc:	9301      	str	r3, [sp, #4]
    36be:	e7ea      	b.n	3696 <__sflush_r+0xe6>
    36c0:	20400001 	.word	0x20400001

000036c4 <_fflush_r>:
    36c4:	690b      	ldr	r3, [r1, #16]
    36c6:	b570      	push	{r4, r5, r6, lr}
    36c8:	0005      	movs	r5, r0
    36ca:	000c      	movs	r4, r1
    36cc:	2b00      	cmp	r3, #0
    36ce:	d101      	bne.n	36d4 <_fflush_r+0x10>
    36d0:	2000      	movs	r0, #0
    36d2:	bd70      	pop	{r4, r5, r6, pc}
    36d4:	2800      	cmp	r0, #0
    36d6:	d004      	beq.n	36e2 <_fflush_r+0x1e>
    36d8:	6983      	ldr	r3, [r0, #24]
    36da:	2b00      	cmp	r3, #0
    36dc:	d101      	bne.n	36e2 <_fflush_r+0x1e>
    36de:	f000 f85f 	bl	37a0 <__sinit>
    36e2:	4b0b      	ldr	r3, [pc, #44]	; (3710 <_fflush_r+0x4c>)
    36e4:	429c      	cmp	r4, r3
    36e6:	d109      	bne.n	36fc <_fflush_r+0x38>
    36e8:	686c      	ldr	r4, [r5, #4]
    36ea:	220c      	movs	r2, #12
    36ec:	5ea3      	ldrsh	r3, [r4, r2]
    36ee:	2b00      	cmp	r3, #0
    36f0:	d0ee      	beq.n	36d0 <_fflush_r+0xc>
    36f2:	0021      	movs	r1, r4
    36f4:	0028      	movs	r0, r5
    36f6:	f7ff ff5b 	bl	35b0 <__sflush_r>
    36fa:	e7ea      	b.n	36d2 <_fflush_r+0xe>
    36fc:	4b05      	ldr	r3, [pc, #20]	; (3714 <_fflush_r+0x50>)
    36fe:	429c      	cmp	r4, r3
    3700:	d101      	bne.n	3706 <_fflush_r+0x42>
    3702:	68ac      	ldr	r4, [r5, #8]
    3704:	e7f1      	b.n	36ea <_fflush_r+0x26>
    3706:	4b04      	ldr	r3, [pc, #16]	; (3718 <_fflush_r+0x54>)
    3708:	429c      	cmp	r4, r3
    370a:	d1ee      	bne.n	36ea <_fflush_r+0x26>
    370c:	68ec      	ldr	r4, [r5, #12]
    370e:	e7ec      	b.n	36ea <_fflush_r+0x26>
    3710:	00006588 	.word	0x00006588
    3714:	000065a8 	.word	0x000065a8
    3718:	00006568 	.word	0x00006568

0000371c <_cleanup_r>:
    371c:	b510      	push	{r4, lr}
    371e:	4902      	ldr	r1, [pc, #8]	; (3728 <_cleanup_r+0xc>)
    3720:	f000 f8b2 	bl	3888 <_fwalk_reent>
    3724:	bd10      	pop	{r4, pc}
    3726:	46c0      	nop			; (mov r8, r8)
    3728:	000036c5 	.word	0x000036c5

0000372c <std.isra.0>:
    372c:	2300      	movs	r3, #0
    372e:	b510      	push	{r4, lr}
    3730:	0004      	movs	r4, r0
    3732:	6003      	str	r3, [r0, #0]
    3734:	6043      	str	r3, [r0, #4]
    3736:	6083      	str	r3, [r0, #8]
    3738:	8181      	strh	r1, [r0, #12]
    373a:	6643      	str	r3, [r0, #100]	; 0x64
    373c:	81c2      	strh	r2, [r0, #14]
    373e:	6103      	str	r3, [r0, #16]
    3740:	6143      	str	r3, [r0, #20]
    3742:	6183      	str	r3, [r0, #24]
    3744:	0019      	movs	r1, r3
    3746:	2208      	movs	r2, #8
    3748:	305c      	adds	r0, #92	; 0x5c
    374a:	f7ff fde6 	bl	331a <memset>
    374e:	4b05      	ldr	r3, [pc, #20]	; (3764 <std.isra.0+0x38>)
    3750:	6224      	str	r4, [r4, #32]
    3752:	6263      	str	r3, [r4, #36]	; 0x24
    3754:	4b04      	ldr	r3, [pc, #16]	; (3768 <std.isra.0+0x3c>)
    3756:	62a3      	str	r3, [r4, #40]	; 0x28
    3758:	4b04      	ldr	r3, [pc, #16]	; (376c <std.isra.0+0x40>)
    375a:	62e3      	str	r3, [r4, #44]	; 0x2c
    375c:	4b04      	ldr	r3, [pc, #16]	; (3770 <std.isra.0+0x44>)
    375e:	6323      	str	r3, [r4, #48]	; 0x30
    3760:	bd10      	pop	{r4, pc}
    3762:	46c0      	nop			; (mov r8, r8)
    3764:	000040c5 	.word	0x000040c5
    3768:	000040ed 	.word	0x000040ed
    376c:	00004125 	.word	0x00004125
    3770:	00004151 	.word	0x00004151

00003774 <__sfmoreglue>:
    3774:	b570      	push	{r4, r5, r6, lr}
    3776:	2568      	movs	r5, #104	; 0x68
    3778:	1e4a      	subs	r2, r1, #1
    377a:	4355      	muls	r5, r2
    377c:	000e      	movs	r6, r1
    377e:	0029      	movs	r1, r5
    3780:	3174      	adds	r1, #116	; 0x74
    3782:	f000 f963 	bl	3a4c <_malloc_r>
    3786:	1e04      	subs	r4, r0, #0
    3788:	d008      	beq.n	379c <__sfmoreglue+0x28>
    378a:	2100      	movs	r1, #0
    378c:	002a      	movs	r2, r5
    378e:	6001      	str	r1, [r0, #0]
    3790:	6046      	str	r6, [r0, #4]
    3792:	300c      	adds	r0, #12
    3794:	60a0      	str	r0, [r4, #8]
    3796:	3268      	adds	r2, #104	; 0x68
    3798:	f7ff fdbf 	bl	331a <memset>
    379c:	0020      	movs	r0, r4
    379e:	bd70      	pop	{r4, r5, r6, pc}

000037a0 <__sinit>:
    37a0:	6983      	ldr	r3, [r0, #24]
    37a2:	b513      	push	{r0, r1, r4, lr}
    37a4:	0004      	movs	r4, r0
    37a6:	2b00      	cmp	r3, #0
    37a8:	d128      	bne.n	37fc <__sinit+0x5c>
    37aa:	6483      	str	r3, [r0, #72]	; 0x48
    37ac:	64c3      	str	r3, [r0, #76]	; 0x4c
    37ae:	6503      	str	r3, [r0, #80]	; 0x50
    37b0:	4b13      	ldr	r3, [pc, #76]	; (3800 <__sinit+0x60>)
    37b2:	4a14      	ldr	r2, [pc, #80]	; (3804 <__sinit+0x64>)
    37b4:	681b      	ldr	r3, [r3, #0]
    37b6:	6282      	str	r2, [r0, #40]	; 0x28
    37b8:	9301      	str	r3, [sp, #4]
    37ba:	4298      	cmp	r0, r3
    37bc:	d101      	bne.n	37c2 <__sinit+0x22>
    37be:	2301      	movs	r3, #1
    37c0:	6183      	str	r3, [r0, #24]
    37c2:	0020      	movs	r0, r4
    37c4:	f000 f820 	bl	3808 <__sfp>
    37c8:	6060      	str	r0, [r4, #4]
    37ca:	0020      	movs	r0, r4
    37cc:	f000 f81c 	bl	3808 <__sfp>
    37d0:	60a0      	str	r0, [r4, #8]
    37d2:	0020      	movs	r0, r4
    37d4:	f000 f818 	bl	3808 <__sfp>
    37d8:	2200      	movs	r2, #0
    37da:	60e0      	str	r0, [r4, #12]
    37dc:	2104      	movs	r1, #4
    37de:	6860      	ldr	r0, [r4, #4]
    37e0:	f7ff ffa4 	bl	372c <std.isra.0>
    37e4:	2201      	movs	r2, #1
    37e6:	2109      	movs	r1, #9
    37e8:	68a0      	ldr	r0, [r4, #8]
    37ea:	f7ff ff9f 	bl	372c <std.isra.0>
    37ee:	2202      	movs	r2, #2
    37f0:	2112      	movs	r1, #18
    37f2:	68e0      	ldr	r0, [r4, #12]
    37f4:	f7ff ff9a 	bl	372c <std.isra.0>
    37f8:	2301      	movs	r3, #1
    37fa:	61a3      	str	r3, [r4, #24]
    37fc:	bd13      	pop	{r0, r1, r4, pc}
    37fe:	46c0      	nop			; (mov r8, r8)
    3800:	00006564 	.word	0x00006564
    3804:	0000371d 	.word	0x0000371d

00003808 <__sfp>:
    3808:	b5f8      	push	{r3, r4, r5, r6, r7, lr}
    380a:	4b1e      	ldr	r3, [pc, #120]	; (3884 <__sfp+0x7c>)
    380c:	0007      	movs	r7, r0
    380e:	681e      	ldr	r6, [r3, #0]
    3810:	69b3      	ldr	r3, [r6, #24]
    3812:	2b00      	cmp	r3, #0
    3814:	d102      	bne.n	381c <__sfp+0x14>
    3816:	0030      	movs	r0, r6
    3818:	f7ff ffc2 	bl	37a0 <__sinit>
    381c:	3648      	adds	r6, #72	; 0x48
    381e:	68b4      	ldr	r4, [r6, #8]
    3820:	6873      	ldr	r3, [r6, #4]
    3822:	3b01      	subs	r3, #1
    3824:	d504      	bpl.n	3830 <__sfp+0x28>
    3826:	6833      	ldr	r3, [r6, #0]
    3828:	2b00      	cmp	r3, #0
    382a:	d007      	beq.n	383c <__sfp+0x34>
    382c:	6836      	ldr	r6, [r6, #0]
    382e:	e7f6      	b.n	381e <__sfp+0x16>
    3830:	220c      	movs	r2, #12
    3832:	5ea5      	ldrsh	r5, [r4, r2]
    3834:	2d00      	cmp	r5, #0
    3836:	d00d      	beq.n	3854 <__sfp+0x4c>
    3838:	3468      	adds	r4, #104	; 0x68
    383a:	e7f2      	b.n	3822 <__sfp+0x1a>
    383c:	2104      	movs	r1, #4
    383e:	0038      	movs	r0, r7
    3840:	f7ff ff98 	bl	3774 <__sfmoreglue>
    3844:	6030      	str	r0, [r6, #0]
    3846:	2800      	cmp	r0, #0
    3848:	d1f0      	bne.n	382c <__sfp+0x24>
    384a:	230c      	movs	r3, #12
    384c:	0004      	movs	r4, r0
    384e:	603b      	str	r3, [r7, #0]
    3850:	0020      	movs	r0, r4
    3852:	bdf8      	pop	{r3, r4, r5, r6, r7, pc}
    3854:	2301      	movs	r3, #1
    3856:	0020      	movs	r0, r4
    3858:	425b      	negs	r3, r3
    385a:	81e3      	strh	r3, [r4, #14]
    385c:	3302      	adds	r3, #2
    385e:	81a3      	strh	r3, [r4, #12]
    3860:	6665      	str	r5, [r4, #100]	; 0x64
    3862:	6025      	str	r5, [r4, #0]
    3864:	60a5      	str	r5, [r4, #8]
    3866:	6065      	str	r5, [r4, #4]
    3868:	6125      	str	r5, [r4, #16]
    386a:	6165      	str	r5, [r4, #20]
    386c:	61a5      	str	r5, [r4, #24]
    386e:	2208      	movs	r2, #8
    3870:	0029      	movs	r1, r5
    3872:	305c      	adds	r0, #92	; 0x5c
    3874:	f7ff fd51 	bl	331a <memset>
    3878:	6365      	str	r5, [r4, #52]	; 0x34
    387a:	63a5      	str	r5, [r4, #56]	; 0x38
    387c:	64a5      	str	r5, [r4, #72]	; 0x48
    387e:	64e5      	str	r5, [r4, #76]	; 0x4c
    3880:	e7e6      	b.n	3850 <__sfp+0x48>
    3882:	46c0      	nop			; (mov r8, r8)
    3884:	00006564 	.word	0x00006564

00003888 <_fwalk_reent>:
    3888:	b5f7      	push	{r0, r1, r2, r4, r5, r6, r7, lr}
    388a:	0004      	movs	r4, r0
    388c:	0007      	movs	r7, r0
    388e:	2600      	movs	r6, #0
    3890:	9101      	str	r1, [sp, #4]
    3892:	3448      	adds	r4, #72	; 0x48
    3894:	2c00      	cmp	r4, #0
    3896:	d101      	bne.n	389c <_fwalk_reent+0x14>
    3898:	0030      	movs	r0, r6
    389a:	bdfe      	pop	{r1, r2, r3, r4, r5, r6, r7, pc}
    389c:	6863      	ldr	r3, [r4, #4]
    389e:	68a5      	ldr	r5, [r4, #8]
    38a0:	9300      	str	r3, [sp, #0]
    38a2:	9b00      	ldr	r3, [sp, #0]
    38a4:	3b01      	subs	r3, #1
    38a6:	9300      	str	r3, [sp, #0]
    38a8:	d501      	bpl.n	38ae <_fwalk_reent+0x26>
    38aa:	6824      	ldr	r4, [r4, #0]
    38ac:	e7f2      	b.n	3894 <_fwalk_reent+0xc>
    38ae:	89ab      	ldrh	r3, [r5, #12]
    38b0:	2b01      	cmp	r3, #1
    38b2:	d908      	bls.n	38c6 <_fwalk_reent+0x3e>
    38b4:	220e      	movs	r2, #14
    38b6:	5eab      	ldrsh	r3, [r5, r2]
    38b8:	3301      	adds	r3, #1
    38ba:	d004      	beq.n	38c6 <_fwalk_reent+0x3e>
    38bc:	0029      	movs	r1, r5
    38be:	0038      	movs	r0, r7
    38c0:	9b01      	ldr	r3, [sp, #4]
    38c2:	4798      	blx	r3
    38c4:	4306      	orrs	r6, r0
    38c6:	3568      	adds	r5, #104	; 0x68
    38c8:	e7eb      	b.n	38a2 <_fwalk_reent+0x1a>
	...

000038cc <__swhatbuf_r>:
    38cc:	b570      	push	{r4, r5, r6, lr}
    38ce:	000e      	movs	r6, r1
    38d0:	001d      	movs	r5, r3
    38d2:	230e      	movs	r3, #14
    38d4:	5ec9      	ldrsh	r1, [r1, r3]
    38d6:	b090      	sub	sp, #64	; 0x40
    38d8:	0014      	movs	r4, r2
    38da:	2900      	cmp	r1, #0
    38dc:	da07      	bge.n	38ee <__swhatbuf_r+0x22>
    38de:	2300      	movs	r3, #0
    38e0:	602b      	str	r3, [r5, #0]
    38e2:	89b3      	ldrh	r3, [r6, #12]
    38e4:	061b      	lsls	r3, r3, #24
    38e6:	d411      	bmi.n	390c <__swhatbuf_r+0x40>
    38e8:	2380      	movs	r3, #128	; 0x80
    38ea:	00db      	lsls	r3, r3, #3
    38ec:	e00f      	b.n	390e <__swhatbuf_r+0x42>
    38ee:	aa01      	add	r2, sp, #4
    38f0:	f000 fd26 	bl	4340 <_fstat_r>
    38f4:	2800      	cmp	r0, #0
    38f6:	dbf2      	blt.n	38de <__swhatbuf_r+0x12>
    38f8:	22f0      	movs	r2, #240	; 0xf0
    38fa:	9b02      	ldr	r3, [sp, #8]
    38fc:	0212      	lsls	r2, r2, #8
    38fe:	4013      	ands	r3, r2
    3900:	4a05      	ldr	r2, [pc, #20]	; (3918 <__swhatbuf_r+0x4c>)
    3902:	189b      	adds	r3, r3, r2
    3904:	425a      	negs	r2, r3
    3906:	4153      	adcs	r3, r2
    3908:	602b      	str	r3, [r5, #0]
    390a:	e7ed      	b.n	38e8 <__swhatbuf_r+0x1c>
    390c:	2340      	movs	r3, #64	; 0x40
    390e:	2000      	movs	r0, #0
    3910:	6023      	str	r3, [r4, #0]
    3912:	b010      	add	sp, #64	; 0x40
    3914:	bd70      	pop	{r4, r5, r6, pc}
    3916:	46c0      	nop			; (mov r8, r8)
    3918:	ffffe000 	.word	0xffffe000

0000391c <__smakebuf_r>:
    391c:	b5f7      	push	{r0, r1, r2, r4, r5, r6, r7, lr}
    391e:	2602      	movs	r6, #2
    3920:	898b      	ldrh	r3, [r1, #12]
    3922:	0005      	movs	r5, r0
    3924:	000c      	movs	r4, r1
    3926:	4233      	tst	r3, r6
    3928:	d006      	beq.n	3938 <__smakebuf_r+0x1c>
    392a:	0023      	movs	r3, r4
    392c:	3347      	adds	r3, #71	; 0x47
    392e:	6023      	str	r3, [r4, #0]
    3930:	6123      	str	r3, [r4, #16]
    3932:	2301      	movs	r3, #1
    3934:	6163      	str	r3, [r4, #20]
    3936:	bdf7      	pop	{r0, r1, r2, r4, r5, r6, r7, pc}
    3938:	ab01      	add	r3, sp, #4
    393a:	466a      	mov	r2, sp
    393c:	f7ff ffc6 	bl	38cc <__swhatbuf_r>
    3940:	9900      	ldr	r1, [sp, #0]
    3942:	0007      	movs	r7, r0
    3944:	0028      	movs	r0, r5
    3946:	f000 f881 	bl	3a4c <_malloc_r>
    394a:	2800      	cmp	r0, #0
    394c:	d108      	bne.n	3960 <__smakebuf_r+0x44>
    394e:	220c      	movs	r2, #12
    3950:	5ea3      	ldrsh	r3, [r4, r2]
    3952:	059a      	lsls	r2, r3, #22
    3954:	d4ef      	bmi.n	3936 <__smakebuf_r+0x1a>
    3956:	2203      	movs	r2, #3
    3958:	4393      	bics	r3, r2
    395a:	431e      	orrs	r6, r3
    395c:	81a6      	strh	r6, [r4, #12]
    395e:	e7e4      	b.n	392a <__smakebuf_r+0xe>
    3960:	4b0f      	ldr	r3, [pc, #60]	; (39a0 <__smakebuf_r+0x84>)
    3962:	62ab      	str	r3, [r5, #40]	; 0x28
    3964:	2380      	movs	r3, #128	; 0x80
    3966:	89a2      	ldrh	r2, [r4, #12]
    3968:	6020      	str	r0, [r4, #0]
    396a:	4313      	orrs	r3, r2
    396c:	81a3      	strh	r3, [r4, #12]
    396e:	9b00      	ldr	r3, [sp, #0]
    3970:	6120      	str	r0, [r4, #16]
    3972:	6163      	str	r3, [r4, #20]
    3974:	9b01      	ldr	r3, [sp, #4]
    3976:	2b00      	cmp	r3, #0
    3978:	d00d      	beq.n	3996 <__smakebuf_r+0x7a>
    397a:	230e      	movs	r3, #14
    397c:	5ee1      	ldrsh	r1, [r4, r3]
    397e:	0028      	movs	r0, r5
    3980:	f000 fcf0 	bl	4364 <_isatty_r>
    3984:	2800      	cmp	r0, #0
    3986:	d006      	beq.n	3996 <__smakebuf_r+0x7a>
    3988:	2203      	movs	r2, #3
    398a:	89a3      	ldrh	r3, [r4, #12]
    398c:	4393      	bics	r3, r2
    398e:	001a      	movs	r2, r3
    3990:	2301      	movs	r3, #1
    3992:	4313      	orrs	r3, r2
    3994:	81a3      	strh	r3, [r4, #12]
    3996:	89a0      	ldrh	r0, [r4, #12]
    3998:	4338      	orrs	r0, r7
    399a:	81a0      	strh	r0, [r4, #12]
    399c:	e7cb      	b.n	3936 <__smakebuf_r+0x1a>
    399e:	46c0      	nop			; (mov r8, r8)
    39a0:	0000371d 	.word	0x0000371d

000039a4 <malloc>:
    39a4:	b510      	push	{r4, lr}
    39a6:	4b03      	ldr	r3, [pc, #12]	; (39b4 <malloc+0x10>)
    39a8:	0001      	movs	r1, r0
    39aa:	6818      	ldr	r0, [r3, #0]
    39ac:	f000 f84e 	bl	3a4c <_malloc_r>
    39b0:	bd10      	pop	{r4, pc}
    39b2:	46c0      	nop			; (mov r8, r8)
    39b4:	20000158 	.word	0x20000158

000039b8 <_free_r>:
    39b8:	b570      	push	{r4, r5, r6, lr}
    39ba:	0005      	movs	r5, r0
    39bc:	2900      	cmp	r1, #0
    39be:	d010      	beq.n	39e2 <_free_r+0x2a>
    39c0:	1f0c      	subs	r4, r1, #4
    39c2:	6823      	ldr	r3, [r4, #0]
    39c4:	2b00      	cmp	r3, #0
    39c6:	da00      	bge.n	39ca <_free_r+0x12>
    39c8:	18e4      	adds	r4, r4, r3
    39ca:	0028      	movs	r0, r5
    39cc:	f000 fcfb 	bl	43c6 <__malloc_lock>
    39d0:	4a1d      	ldr	r2, [pc, #116]	; (3a48 <_free_r+0x90>)
    39d2:	6813      	ldr	r3, [r2, #0]
    39d4:	2b00      	cmp	r3, #0
    39d6:	d105      	bne.n	39e4 <_free_r+0x2c>
    39d8:	6063      	str	r3, [r4, #4]
    39da:	6014      	str	r4, [r2, #0]
    39dc:	0028      	movs	r0, r5
    39de:	f000 fcf3 	bl	43c8 <__malloc_unlock>
    39e2:	bd70      	pop	{r4, r5, r6, pc}
    39e4:	42a3      	cmp	r3, r4
    39e6:	d909      	bls.n	39fc <_free_r+0x44>
    39e8:	6821      	ldr	r1, [r4, #0]
    39ea:	1860      	adds	r0, r4, r1
    39ec:	4283      	cmp	r3, r0
    39ee:	d1f3      	bne.n	39d8 <_free_r+0x20>
    39f0:	6818      	ldr	r0, [r3, #0]
    39f2:	685b      	ldr	r3, [r3, #4]
    39f4:	1841      	adds	r1, r0, r1
    39f6:	6021      	str	r1, [r4, #0]
    39f8:	e7ee      	b.n	39d8 <_free_r+0x20>
    39fa:	0013      	movs	r3, r2
    39fc:	685a      	ldr	r2, [r3, #4]
    39fe:	2a00      	cmp	r2, #0
    3a00:	d001      	beq.n	3a06 <_free_r+0x4e>
    3a02:	42a2      	cmp	r2, r4
    3a04:	d9f9      	bls.n	39fa <_free_r+0x42>
    3a06:	6819      	ldr	r1, [r3, #0]
    3a08:	1858      	adds	r0, r3, r1
    3a0a:	42a0      	cmp	r0, r4
    3a0c:	d10b      	bne.n	3a26 <_free_r+0x6e>
    3a0e:	6820      	ldr	r0, [r4, #0]
    3a10:	1809      	adds	r1, r1, r0
    3a12:	1858      	adds	r0, r3, r1
    3a14:	6019      	str	r1, [r3, #0]
    3a16:	4282      	cmp	r2, r0
    3a18:	d1e0      	bne.n	39dc <_free_r+0x24>
    3a1a:	6810      	ldr	r0, [r2, #0]
    3a1c:	6852      	ldr	r2, [r2, #4]
    3a1e:	1841      	adds	r1, r0, r1
    3a20:	6019      	str	r1, [r3, #0]
    3a22:	605a      	str	r2, [r3, #4]
    3a24:	e7da      	b.n	39dc <_free_r+0x24>
    3a26:	42a0      	cmp	r0, r4
    3a28:	d902      	bls.n	3a30 <_free_r+0x78>
    3a2a:	230c      	movs	r3, #12
    3a2c:	602b      	str	r3, [r5, #0]
    3a2e:	e7d5      	b.n	39dc <_free_r+0x24>
    3a30:	6821      	ldr	r1, [r4, #0]
    3a32:	1860      	adds	r0, r4, r1
    3a34:	4282      	cmp	r2, r0
    3a36:	d103      	bne.n	3a40 <_free_r+0x88>
    3a38:	6810      	ldr	r0, [r2, #0]
    3a3a:	6852      	ldr	r2, [r2, #4]
    3a3c:	1841      	adds	r1, r0, r1
    3a3e:	6021      	str	r1, [r4, #0]
    3a40:	6062      	str	r2, [r4, #4]
    3a42:	605c      	str	r4, [r3, #4]
    3a44:	e7ca      	b.n	39dc <_free_r+0x24>
    3a46:	46c0      	nop			; (mov r8, r8)
    3a48:	200002a0 	.word	0x200002a0

00003a4c <_malloc_r>:
    3a4c:	2303      	movs	r3, #3
    3a4e:	b570      	push	{r4, r5, r6, lr}
    3a50:	1ccd      	adds	r5, r1, #3
    3a52:	439d      	bics	r5, r3
    3a54:	3508      	adds	r5, #8
    3a56:	0006      	movs	r6, r0
    3a58:	2d0c      	cmp	r5, #12
    3a5a:	d21e      	bcs.n	3a9a <_malloc_r+0x4e>
    3a5c:	250c      	movs	r5, #12
    3a5e:	42a9      	cmp	r1, r5
    3a60:	d81d      	bhi.n	3a9e <_malloc_r+0x52>
    3a62:	0030      	movs	r0, r6
    3a64:	f000 fcaf 	bl	43c6 <__malloc_lock>
    3a68:	4a25      	ldr	r2, [pc, #148]	; (3b00 <_malloc_r+0xb4>)
    3a6a:	6814      	ldr	r4, [r2, #0]
    3a6c:	0021      	movs	r1, r4
    3a6e:	2900      	cmp	r1, #0
    3a70:	d119      	bne.n	3aa6 <_malloc_r+0x5a>
    3a72:	4c24      	ldr	r4, [pc, #144]	; (3b04 <_malloc_r+0xb8>)
    3a74:	6823      	ldr	r3, [r4, #0]
    3a76:	2b00      	cmp	r3, #0
    3a78:	d103      	bne.n	3a82 <_malloc_r+0x36>
    3a7a:	0030      	movs	r0, r6
    3a7c:	f000 fb10 	bl	40a0 <_sbrk_r>
    3a80:	6020      	str	r0, [r4, #0]
    3a82:	0029      	movs	r1, r5
    3a84:	0030      	movs	r0, r6
    3a86:	f000 fb0b 	bl	40a0 <_sbrk_r>
    3a8a:	1c43      	adds	r3, r0, #1
    3a8c:	d12c      	bne.n	3ae8 <_malloc_r+0x9c>
    3a8e:	230c      	movs	r3, #12
    3a90:	0030      	movs	r0, r6
    3a92:	6033      	str	r3, [r6, #0]
    3a94:	f000 fc98 	bl	43c8 <__malloc_unlock>
    3a98:	e003      	b.n	3aa2 <_malloc_r+0x56>
    3a9a:	2d00      	cmp	r5, #0
    3a9c:	dadf      	bge.n	3a5e <_malloc_r+0x12>
    3a9e:	230c      	movs	r3, #12
    3aa0:	6033      	str	r3, [r6, #0]
    3aa2:	2000      	movs	r0, #0
    3aa4:	bd70      	pop	{r4, r5, r6, pc}
    3aa6:	680b      	ldr	r3, [r1, #0]
    3aa8:	1b5b      	subs	r3, r3, r5
    3aaa:	d41a      	bmi.n	3ae2 <_malloc_r+0x96>
    3aac:	2b0b      	cmp	r3, #11
    3aae:	d903      	bls.n	3ab8 <_malloc_r+0x6c>
    3ab0:	600b      	str	r3, [r1, #0]
    3ab2:	18cc      	adds	r4, r1, r3
    3ab4:	6025      	str	r5, [r4, #0]
    3ab6:	e003      	b.n	3ac0 <_malloc_r+0x74>
    3ab8:	428c      	cmp	r4, r1
    3aba:	d10e      	bne.n	3ada <_malloc_r+0x8e>
    3abc:	6863      	ldr	r3, [r4, #4]
    3abe:	6013      	str	r3, [r2, #0]
    3ac0:	0030      	movs	r0, r6
    3ac2:	f000 fc81 	bl	43c8 <__malloc_unlock>
    3ac6:	0020      	movs	r0, r4
    3ac8:	2207      	movs	r2, #7
    3aca:	300b      	adds	r0, #11
    3acc:	1d23      	adds	r3, r4, #4
    3ace:	4390      	bics	r0, r2
    3ad0:	1ac3      	subs	r3, r0, r3
    3ad2:	d0e7      	beq.n	3aa4 <_malloc_r+0x58>
    3ad4:	425a      	negs	r2, r3
    3ad6:	50e2      	str	r2, [r4, r3]
    3ad8:	e7e4      	b.n	3aa4 <_malloc_r+0x58>
    3ada:	684b      	ldr	r3, [r1, #4]
    3adc:	6063      	str	r3, [r4, #4]
    3ade:	000c      	movs	r4, r1
    3ae0:	e7ee      	b.n	3ac0 <_malloc_r+0x74>
    3ae2:	000c      	movs	r4, r1
    3ae4:	6849      	ldr	r1, [r1, #4]
    3ae6:	e7c2      	b.n	3a6e <_malloc_r+0x22>
    3ae8:	2303      	movs	r3, #3
    3aea:	1cc4      	adds	r4, r0, #3
    3aec:	439c      	bics	r4, r3
    3aee:	42a0      	cmp	r0, r4
    3af0:	d0e0      	beq.n	3ab4 <_malloc_r+0x68>
    3af2:	1a21      	subs	r1, r4, r0
    3af4:	0030      	movs	r0, r6
    3af6:	f000 fad3 	bl	40a0 <_sbrk_r>
    3afa:	1c43      	adds	r3, r0, #1
    3afc:	d1da      	bne.n	3ab4 <_malloc_r+0x68>
    3afe:	e7c6      	b.n	3a8e <_malloc_r+0x42>
    3b00:	200002a0 	.word	0x200002a0
    3b04:	200002a4 	.word	0x200002a4

00003b08 <__sfputc_r>:
    3b08:	6893      	ldr	r3, [r2, #8]
    3b0a:	b510      	push	{r4, lr}
    3b0c:	3b01      	subs	r3, #1
    3b0e:	6093      	str	r3, [r2, #8]
    3b10:	2b00      	cmp	r3, #0
    3b12:	da05      	bge.n	3b20 <__sfputc_r+0x18>
    3b14:	6994      	ldr	r4, [r2, #24]
    3b16:	42a3      	cmp	r3, r4
    3b18:	db08      	blt.n	3b2c <__sfputc_r+0x24>
    3b1a:	b2cb      	uxtb	r3, r1
    3b1c:	2b0a      	cmp	r3, #10
    3b1e:	d005      	beq.n	3b2c <__sfputc_r+0x24>
    3b20:	6813      	ldr	r3, [r2, #0]
    3b22:	1c58      	adds	r0, r3, #1
    3b24:	6010      	str	r0, [r2, #0]
    3b26:	7019      	strb	r1, [r3, #0]
    3b28:	b2c8      	uxtb	r0, r1
    3b2a:	bd10      	pop	{r4, pc}
    3b2c:	f000 fb16 	bl	415c <__swbuf_r>
    3b30:	e7fb      	b.n	3b2a <__sfputc_r+0x22>

00003b32 <__sfputs_r>:
    3b32:	b5f8      	push	{r3, r4, r5, r6, r7, lr}
    3b34:	0006      	movs	r6, r0
    3b36:	000f      	movs	r7, r1
    3b38:	0014      	movs	r4, r2
    3b3a:	18d5      	adds	r5, r2, r3
    3b3c:	42ac      	cmp	r4, r5
    3b3e:	d101      	bne.n	3b44 <__sfputs_r+0x12>
    3b40:	2000      	movs	r0, #0
    3b42:	e007      	b.n	3b54 <__sfputs_r+0x22>
    3b44:	7821      	ldrb	r1, [r4, #0]
    3b46:	003a      	movs	r2, r7
    3b48:	0030      	movs	r0, r6
    3b4a:	f7ff ffdd 	bl	3b08 <__sfputc_r>
    3b4e:	3401      	adds	r4, #1
    3b50:	1c43      	adds	r3, r0, #1
    3b52:	d1f3      	bne.n	3b3c <__sfputs_r+0xa>
    3b54:	bdf8      	pop	{r3, r4, r5, r6, r7, pc}
	...

00003b58 <_vfiprintf_r>:
    3b58:	b5f0      	push	{r4, r5, r6, r7, lr}
    3b5a:	b09f      	sub	sp, #124	; 0x7c
    3b5c:	0006      	movs	r6, r0
    3b5e:	000f      	movs	r7, r1
    3b60:	0014      	movs	r4, r2
    3b62:	9305      	str	r3, [sp, #20]
    3b64:	2800      	cmp	r0, #0
    3b66:	d004      	beq.n	3b72 <_vfiprintf_r+0x1a>
    3b68:	6983      	ldr	r3, [r0, #24]
    3b6a:	2b00      	cmp	r3, #0
    3b6c:	d101      	bne.n	3b72 <_vfiprintf_r+0x1a>
    3b6e:	f7ff fe17 	bl	37a0 <__sinit>
    3b72:	4b7f      	ldr	r3, [pc, #508]	; (3d70 <_vfiprintf_r+0x218>)
    3b74:	429f      	cmp	r7, r3
    3b76:	d15c      	bne.n	3c32 <_vfiprintf_r+0xda>
    3b78:	6877      	ldr	r7, [r6, #4]
    3b7a:	89bb      	ldrh	r3, [r7, #12]
    3b7c:	071b      	lsls	r3, r3, #28
    3b7e:	d562      	bpl.n	3c46 <_vfiprintf_r+0xee>
    3b80:	693b      	ldr	r3, [r7, #16]
    3b82:	2b00      	cmp	r3, #0
    3b84:	d05f      	beq.n	3c46 <_vfiprintf_r+0xee>
    3b86:	2300      	movs	r3, #0
    3b88:	ad06      	add	r5, sp, #24
    3b8a:	616b      	str	r3, [r5, #20]
    3b8c:	3320      	adds	r3, #32
    3b8e:	766b      	strb	r3, [r5, #25]
    3b90:	3310      	adds	r3, #16
    3b92:	76ab      	strb	r3, [r5, #26]
    3b94:	9402      	str	r4, [sp, #8]
    3b96:	9c02      	ldr	r4, [sp, #8]
    3b98:	7823      	ldrb	r3, [r4, #0]
    3b9a:	2b00      	cmp	r3, #0
    3b9c:	d15d      	bne.n	3c5a <_vfiprintf_r+0x102>
    3b9e:	9b02      	ldr	r3, [sp, #8]
    3ba0:	1ae3      	subs	r3, r4, r3
    3ba2:	9304      	str	r3, [sp, #16]
    3ba4:	d00d      	beq.n	3bc2 <_vfiprintf_r+0x6a>
    3ba6:	9b04      	ldr	r3, [sp, #16]
    3ba8:	9a02      	ldr	r2, [sp, #8]
    3baa:	0039      	movs	r1, r7
    3bac:	0030      	movs	r0, r6
    3bae:	f7ff ffc0 	bl	3b32 <__sfputs_r>
    3bb2:	1c43      	adds	r3, r0, #1
    3bb4:	d100      	bne.n	3bb8 <_vfiprintf_r+0x60>
    3bb6:	e0cc      	b.n	3d52 <_vfiprintf_r+0x1fa>
    3bb8:	696a      	ldr	r2, [r5, #20]
    3bba:	9b04      	ldr	r3, [sp, #16]
    3bbc:	4694      	mov	ip, r2
    3bbe:	4463      	add	r3, ip
    3bc0:	616b      	str	r3, [r5, #20]
    3bc2:	7823      	ldrb	r3, [r4, #0]
    3bc4:	2b00      	cmp	r3, #0
    3bc6:	d100      	bne.n	3bca <_vfiprintf_r+0x72>
    3bc8:	e0c3      	b.n	3d52 <_vfiprintf_r+0x1fa>
    3bca:	2201      	movs	r2, #1
    3bcc:	2300      	movs	r3, #0
    3bce:	4252      	negs	r2, r2
    3bd0:	606a      	str	r2, [r5, #4]
    3bd2:	a902      	add	r1, sp, #8
    3bd4:	3254      	adds	r2, #84	; 0x54
    3bd6:	1852      	adds	r2, r2, r1
    3bd8:	3401      	adds	r4, #1
    3bda:	602b      	str	r3, [r5, #0]
    3bdc:	60eb      	str	r3, [r5, #12]
    3bde:	60ab      	str	r3, [r5, #8]
    3be0:	7013      	strb	r3, [r2, #0]
    3be2:	65ab      	str	r3, [r5, #88]	; 0x58
    3be4:	7821      	ldrb	r1, [r4, #0]
    3be6:	2205      	movs	r2, #5
    3be8:	4862      	ldr	r0, [pc, #392]	; (3d74 <_vfiprintf_r+0x21c>)
    3bea:	f000 fbe1 	bl	43b0 <memchr>
    3bee:	1c63      	adds	r3, r4, #1
    3bf0:	469c      	mov	ip, r3
    3bf2:	2800      	cmp	r0, #0
    3bf4:	d135      	bne.n	3c62 <_vfiprintf_r+0x10a>
    3bf6:	6829      	ldr	r1, [r5, #0]
    3bf8:	06cb      	lsls	r3, r1, #27
    3bfa:	d504      	bpl.n	3c06 <_vfiprintf_r+0xae>
    3bfc:	2353      	movs	r3, #83	; 0x53
    3bfe:	aa02      	add	r2, sp, #8
    3c00:	3020      	adds	r0, #32
    3c02:	189b      	adds	r3, r3, r2
    3c04:	7018      	strb	r0, [r3, #0]
    3c06:	070b      	lsls	r3, r1, #28
    3c08:	d504      	bpl.n	3c14 <_vfiprintf_r+0xbc>
    3c0a:	2353      	movs	r3, #83	; 0x53
    3c0c:	202b      	movs	r0, #43	; 0x2b
    3c0e:	aa02      	add	r2, sp, #8
    3c10:	189b      	adds	r3, r3, r2
    3c12:	7018      	strb	r0, [r3, #0]
    3c14:	7823      	ldrb	r3, [r4, #0]
    3c16:	2b2a      	cmp	r3, #42	; 0x2a
    3c18:	d02c      	beq.n	3c74 <_vfiprintf_r+0x11c>
    3c1a:	2000      	movs	r0, #0
    3c1c:	210a      	movs	r1, #10
    3c1e:	9b09      	ldr	r3, [sp, #36]	; 0x24
    3c20:	7822      	ldrb	r2, [r4, #0]
    3c22:	3a30      	subs	r2, #48	; 0x30
    3c24:	2a09      	cmp	r2, #9
    3c26:	d800      	bhi.n	3c2a <_vfiprintf_r+0xd2>
    3c28:	e06b      	b.n	3d02 <_vfiprintf_r+0x1aa>
    3c2a:	2800      	cmp	r0, #0
    3c2c:	d02a      	beq.n	3c84 <_vfiprintf_r+0x12c>
    3c2e:	9309      	str	r3, [sp, #36]	; 0x24
    3c30:	e028      	b.n	3c84 <_vfiprintf_r+0x12c>
    3c32:	4b51      	ldr	r3, [pc, #324]	; (3d78 <_vfiprintf_r+0x220>)
    3c34:	429f      	cmp	r7, r3
    3c36:	d101      	bne.n	3c3c <_vfiprintf_r+0xe4>
    3c38:	68b7      	ldr	r7, [r6, #8]
    3c3a:	e79e      	b.n	3b7a <_vfiprintf_r+0x22>
    3c3c:	4b4f      	ldr	r3, [pc, #316]	; (3d7c <_vfiprintf_r+0x224>)
    3c3e:	429f      	cmp	r7, r3
    3c40:	d19b      	bne.n	3b7a <_vfiprintf_r+0x22>
    3c42:	68f7      	ldr	r7, [r6, #12]
    3c44:	e799      	b.n	3b7a <_vfiprintf_r+0x22>
    3c46:	0039      	movs	r1, r7
    3c48:	0030      	movs	r0, r6
    3c4a:	f000 faf1 	bl	4230 <__swsetup_r>
    3c4e:	2800      	cmp	r0, #0
    3c50:	d099      	beq.n	3b86 <_vfiprintf_r+0x2e>
    3c52:	2001      	movs	r0, #1
    3c54:	4240      	negs	r0, r0
    3c56:	b01f      	add	sp, #124	; 0x7c
    3c58:	bdf0      	pop	{r4, r5, r6, r7, pc}
    3c5a:	2b25      	cmp	r3, #37	; 0x25
    3c5c:	d09f      	beq.n	3b9e <_vfiprintf_r+0x46>
    3c5e:	3401      	adds	r4, #1
    3c60:	e79a      	b.n	3b98 <_vfiprintf_r+0x40>
    3c62:	4b44      	ldr	r3, [pc, #272]	; (3d74 <_vfiprintf_r+0x21c>)
    3c64:	6829      	ldr	r1, [r5, #0]
    3c66:	1ac0      	subs	r0, r0, r3
    3c68:	2301      	movs	r3, #1
    3c6a:	4083      	lsls	r3, r0
    3c6c:	430b      	orrs	r3, r1
    3c6e:	602b      	str	r3, [r5, #0]
    3c70:	4664      	mov	r4, ip
    3c72:	e7b7      	b.n	3be4 <_vfiprintf_r+0x8c>
    3c74:	9b05      	ldr	r3, [sp, #20]
    3c76:	1d18      	adds	r0, r3, #4
    3c78:	681b      	ldr	r3, [r3, #0]
    3c7a:	9005      	str	r0, [sp, #20]
    3c7c:	2b00      	cmp	r3, #0
    3c7e:	db3a      	blt.n	3cf6 <_vfiprintf_r+0x19e>
    3c80:	9309      	str	r3, [sp, #36]	; 0x24
    3c82:	4664      	mov	r4, ip
    3c84:	7823      	ldrb	r3, [r4, #0]
    3c86:	2b2e      	cmp	r3, #46	; 0x2e
    3c88:	d10b      	bne.n	3ca2 <_vfiprintf_r+0x14a>
    3c8a:	7863      	ldrb	r3, [r4, #1]
    3c8c:	1c62      	adds	r2, r4, #1
    3c8e:	2b2a      	cmp	r3, #42	; 0x2a
    3c90:	d13f      	bne.n	3d12 <_vfiprintf_r+0x1ba>
    3c92:	9b05      	ldr	r3, [sp, #20]
    3c94:	3402      	adds	r4, #2
    3c96:	1d1a      	adds	r2, r3, #4
    3c98:	681b      	ldr	r3, [r3, #0]
    3c9a:	9205      	str	r2, [sp, #20]
    3c9c:	2b00      	cmp	r3, #0
    3c9e:	db35      	blt.n	3d0c <_vfiprintf_r+0x1b4>
    3ca0:	9307      	str	r3, [sp, #28]
    3ca2:	7821      	ldrb	r1, [r4, #0]
    3ca4:	2203      	movs	r2, #3
    3ca6:	4836      	ldr	r0, [pc, #216]	; (3d80 <_vfiprintf_r+0x228>)
    3ca8:	f000 fb82 	bl	43b0 <memchr>
    3cac:	2800      	cmp	r0, #0
    3cae:	d007      	beq.n	3cc0 <_vfiprintf_r+0x168>
    3cb0:	4b33      	ldr	r3, [pc, #204]	; (3d80 <_vfiprintf_r+0x228>)
    3cb2:	682a      	ldr	r2, [r5, #0]
    3cb4:	1ac0      	subs	r0, r0, r3
    3cb6:	2340      	movs	r3, #64	; 0x40
    3cb8:	4083      	lsls	r3, r0
    3cba:	4313      	orrs	r3, r2
    3cbc:	602b      	str	r3, [r5, #0]
    3cbe:	3401      	adds	r4, #1
    3cc0:	7821      	ldrb	r1, [r4, #0]
    3cc2:	1c63      	adds	r3, r4, #1
    3cc4:	2206      	movs	r2, #6
    3cc6:	482f      	ldr	r0, [pc, #188]	; (3d84 <_vfiprintf_r+0x22c>)
    3cc8:	9302      	str	r3, [sp, #8]
    3cca:	7629      	strb	r1, [r5, #24]
    3ccc:	f000 fb70 	bl	43b0 <memchr>
    3cd0:	2800      	cmp	r0, #0
    3cd2:	d044      	beq.n	3d5e <_vfiprintf_r+0x206>
    3cd4:	4b2c      	ldr	r3, [pc, #176]	; (3d88 <_vfiprintf_r+0x230>)
    3cd6:	2b00      	cmp	r3, #0
    3cd8:	d12f      	bne.n	3d3a <_vfiprintf_r+0x1e2>
    3cda:	6829      	ldr	r1, [r5, #0]
    3cdc:	9b05      	ldr	r3, [sp, #20]
    3cde:	2207      	movs	r2, #7
    3ce0:	05c9      	lsls	r1, r1, #23
    3ce2:	d528      	bpl.n	3d36 <_vfiprintf_r+0x1de>
    3ce4:	189b      	adds	r3, r3, r2
    3ce6:	4393      	bics	r3, r2
    3ce8:	3308      	adds	r3, #8
    3cea:	9305      	str	r3, [sp, #20]
    3cec:	696b      	ldr	r3, [r5, #20]
    3cee:	9a03      	ldr	r2, [sp, #12]
    3cf0:	189b      	adds	r3, r3, r2
    3cf2:	616b      	str	r3, [r5, #20]
    3cf4:	e74f      	b.n	3b96 <_vfiprintf_r+0x3e>
    3cf6:	425b      	negs	r3, r3
    3cf8:	60eb      	str	r3, [r5, #12]
    3cfa:	2302      	movs	r3, #2
    3cfc:	430b      	orrs	r3, r1
    3cfe:	602b      	str	r3, [r5, #0]
    3d00:	e7bf      	b.n	3c82 <_vfiprintf_r+0x12a>
    3d02:	434b      	muls	r3, r1
    3d04:	3401      	adds	r4, #1
    3d06:	189b      	adds	r3, r3, r2
    3d08:	2001      	movs	r0, #1
    3d0a:	e789      	b.n	3c20 <_vfiprintf_r+0xc8>
    3d0c:	2301      	movs	r3, #1
    3d0e:	425b      	negs	r3, r3
    3d10:	e7c6      	b.n	3ca0 <_vfiprintf_r+0x148>
    3d12:	2300      	movs	r3, #0
    3d14:	0014      	movs	r4, r2
    3d16:	200a      	movs	r0, #10
    3d18:	001a      	movs	r2, r3
    3d1a:	606b      	str	r3, [r5, #4]
    3d1c:	7821      	ldrb	r1, [r4, #0]
    3d1e:	3930      	subs	r1, #48	; 0x30
    3d20:	2909      	cmp	r1, #9
    3d22:	d903      	bls.n	3d2c <_vfiprintf_r+0x1d4>
    3d24:	2b00      	cmp	r3, #0
    3d26:	d0bc      	beq.n	3ca2 <_vfiprintf_r+0x14a>
    3d28:	9207      	str	r2, [sp, #28]
    3d2a:	e7ba      	b.n	3ca2 <_vfiprintf_r+0x14a>
    3d2c:	4342      	muls	r2, r0
    3d2e:	3401      	adds	r4, #1
    3d30:	1852      	adds	r2, r2, r1
    3d32:	2301      	movs	r3, #1
    3d34:	e7f2      	b.n	3d1c <_vfiprintf_r+0x1c4>
    3d36:	3307      	adds	r3, #7
    3d38:	e7d5      	b.n	3ce6 <_vfiprintf_r+0x18e>
    3d3a:	ab05      	add	r3, sp, #20
    3d3c:	9300      	str	r3, [sp, #0]
    3d3e:	003a      	movs	r2, r7
    3d40:	4b12      	ldr	r3, [pc, #72]	; (3d8c <_vfiprintf_r+0x234>)
    3d42:	0029      	movs	r1, r5
    3d44:	0030      	movs	r0, r6
    3d46:	e000      	b.n	3d4a <_vfiprintf_r+0x1f2>
    3d48:	bf00      	nop
    3d4a:	9003      	str	r0, [sp, #12]
    3d4c:	9b03      	ldr	r3, [sp, #12]
    3d4e:	3301      	adds	r3, #1
    3d50:	d1cc      	bne.n	3cec <_vfiprintf_r+0x194>
    3d52:	89bb      	ldrh	r3, [r7, #12]
    3d54:	065b      	lsls	r3, r3, #25
    3d56:	d500      	bpl.n	3d5a <_vfiprintf_r+0x202>
    3d58:	e77b      	b.n	3c52 <_vfiprintf_r+0xfa>
    3d5a:	980b      	ldr	r0, [sp, #44]	; 0x2c
    3d5c:	e77b      	b.n	3c56 <_vfiprintf_r+0xfe>
    3d5e:	ab05      	add	r3, sp, #20
    3d60:	9300      	str	r3, [sp, #0]
    3d62:	003a      	movs	r2, r7
    3d64:	4b09      	ldr	r3, [pc, #36]	; (3d8c <_vfiprintf_r+0x234>)
    3d66:	0029      	movs	r1, r5
    3d68:	0030      	movs	r0, r6
    3d6a:	f000 f87f 	bl	3e6c <_printf_i>
    3d6e:	e7ec      	b.n	3d4a <_vfiprintf_r+0x1f2>
    3d70:	00006588 	.word	0x00006588
    3d74:	000065c8 	.word	0x000065c8
    3d78:	000065a8 	.word	0x000065a8
    3d7c:	00006568 	.word	0x00006568
    3d80:	000065ce 	.word	0x000065ce
    3d84:	000065d2 	.word	0x000065d2
    3d88:	00000000 	.word	0x00000000
    3d8c:	00003b33 	.word	0x00003b33

00003d90 <_printf_common>:
    3d90:	b5f7      	push	{r0, r1, r2, r4, r5, r6, r7, lr}
    3d92:	0015      	movs	r5, r2
    3d94:	9301      	str	r3, [sp, #4]
    3d96:	688a      	ldr	r2, [r1, #8]
    3d98:	690b      	ldr	r3, [r1, #16]
    3d9a:	9000      	str	r0, [sp, #0]
    3d9c:	000c      	movs	r4, r1
    3d9e:	4293      	cmp	r3, r2
    3da0:	da00      	bge.n	3da4 <_printf_common+0x14>
    3da2:	0013      	movs	r3, r2
    3da4:	0022      	movs	r2, r4
    3da6:	602b      	str	r3, [r5, #0]
    3da8:	3243      	adds	r2, #67	; 0x43
    3daa:	7812      	ldrb	r2, [r2, #0]
    3dac:	2a00      	cmp	r2, #0
    3dae:	d001      	beq.n	3db4 <_printf_common+0x24>
    3db0:	3301      	adds	r3, #1
    3db2:	602b      	str	r3, [r5, #0]
    3db4:	6823      	ldr	r3, [r4, #0]
    3db6:	069b      	lsls	r3, r3, #26
    3db8:	d502      	bpl.n	3dc0 <_printf_common+0x30>
    3dba:	682b      	ldr	r3, [r5, #0]
    3dbc:	3302      	adds	r3, #2
    3dbe:	602b      	str	r3, [r5, #0]
    3dc0:	2706      	movs	r7, #6
    3dc2:	6823      	ldr	r3, [r4, #0]
    3dc4:	401f      	ands	r7, r3
    3dc6:	d027      	beq.n	3e18 <_printf_common+0x88>
    3dc8:	0023      	movs	r3, r4
    3dca:	3343      	adds	r3, #67	; 0x43
    3dcc:	781b      	ldrb	r3, [r3, #0]
    3dce:	1e5a      	subs	r2, r3, #1
    3dd0:	4193      	sbcs	r3, r2
    3dd2:	6822      	ldr	r2, [r4, #0]
    3dd4:	0692      	lsls	r2, r2, #26
    3dd6:	d430      	bmi.n	3e3a <_printf_common+0xaa>
    3dd8:	0022      	movs	r2, r4
    3dda:	9901      	ldr	r1, [sp, #4]
    3ddc:	3243      	adds	r2, #67	; 0x43
    3dde:	9800      	ldr	r0, [sp, #0]
    3de0:	9e08      	ldr	r6, [sp, #32]
    3de2:	47b0      	blx	r6
    3de4:	1c43      	adds	r3, r0, #1
    3de6:	d025      	beq.n	3e34 <_printf_common+0xa4>
    3de8:	2306      	movs	r3, #6
    3dea:	6820      	ldr	r0, [r4, #0]
    3dec:	682a      	ldr	r2, [r5, #0]
    3dee:	68e1      	ldr	r1, [r4, #12]
    3df0:	4003      	ands	r3, r0
    3df2:	2500      	movs	r5, #0
    3df4:	2b04      	cmp	r3, #4
    3df6:	d103      	bne.n	3e00 <_printf_common+0x70>
    3df8:	1a8d      	subs	r5, r1, r2
    3dfa:	43eb      	mvns	r3, r5
    3dfc:	17db      	asrs	r3, r3, #31
    3dfe:	401d      	ands	r5, r3
    3e00:	68a3      	ldr	r3, [r4, #8]
    3e02:	6922      	ldr	r2, [r4, #16]
    3e04:	4293      	cmp	r3, r2
    3e06:	dd01      	ble.n	3e0c <_printf_common+0x7c>
    3e08:	1a9b      	subs	r3, r3, r2
    3e0a:	18ed      	adds	r5, r5, r3
    3e0c:	2700      	movs	r7, #0
    3e0e:	42bd      	cmp	r5, r7
    3e10:	d120      	bne.n	3e54 <_printf_common+0xc4>
    3e12:	2000      	movs	r0, #0
    3e14:	e010      	b.n	3e38 <_printf_common+0xa8>
    3e16:	3701      	adds	r7, #1
    3e18:	68e3      	ldr	r3, [r4, #12]
    3e1a:	682a      	ldr	r2, [r5, #0]
    3e1c:	1a9b      	subs	r3, r3, r2
    3e1e:	429f      	cmp	r7, r3
    3e20:	dad2      	bge.n	3dc8 <_printf_common+0x38>
    3e22:	0022      	movs	r2, r4
    3e24:	2301      	movs	r3, #1
    3e26:	3219      	adds	r2, #25
    3e28:	9901      	ldr	r1, [sp, #4]
    3e2a:	9800      	ldr	r0, [sp, #0]
    3e2c:	9e08      	ldr	r6, [sp, #32]
    3e2e:	47b0      	blx	r6
    3e30:	1c43      	adds	r3, r0, #1
    3e32:	d1f0      	bne.n	3e16 <_printf_common+0x86>
    3e34:	2001      	movs	r0, #1
    3e36:	4240      	negs	r0, r0
    3e38:	bdfe      	pop	{r1, r2, r3, r4, r5, r6, r7, pc}
    3e3a:	2030      	movs	r0, #48	; 0x30
    3e3c:	18e1      	adds	r1, r4, r3
    3e3e:	3143      	adds	r1, #67	; 0x43
    3e40:	7008      	strb	r0, [r1, #0]
    3e42:	0021      	movs	r1, r4
    3e44:	1c5a      	adds	r2, r3, #1
    3e46:	3145      	adds	r1, #69	; 0x45
    3e48:	7809      	ldrb	r1, [r1, #0]
    3e4a:	18a2      	adds	r2, r4, r2
    3e4c:	3243      	adds	r2, #67	; 0x43
    3e4e:	3302      	adds	r3, #2
    3e50:	7011      	strb	r1, [r2, #0]
    3e52:	e7c1      	b.n	3dd8 <_printf_common+0x48>
    3e54:	0022      	movs	r2, r4
    3e56:	2301      	movs	r3, #1
    3e58:	321a      	adds	r2, #26
    3e5a:	9901      	ldr	r1, [sp, #4]
    3e5c:	9800      	ldr	r0, [sp, #0]
    3e5e:	9e08      	ldr	r6, [sp, #32]
    3e60:	47b0      	blx	r6
    3e62:	1c43      	adds	r3, r0, #1
    3e64:	d0e6      	beq.n	3e34 <_printf_common+0xa4>
    3e66:	3701      	adds	r7, #1
    3e68:	e7d1      	b.n	3e0e <_printf_common+0x7e>
	...

00003e6c <_printf_i>:
    3e6c:	b5f0      	push	{r4, r5, r6, r7, lr}
    3e6e:	b08b      	sub	sp, #44	; 0x2c
    3e70:	9206      	str	r2, [sp, #24]
    3e72:	000a      	movs	r2, r1
    3e74:	3243      	adds	r2, #67	; 0x43
    3e76:	9307      	str	r3, [sp, #28]
    3e78:	9005      	str	r0, [sp, #20]
    3e7a:	9204      	str	r2, [sp, #16]
    3e7c:	7e0a      	ldrb	r2, [r1, #24]
    3e7e:	000c      	movs	r4, r1
    3e80:	9b10      	ldr	r3, [sp, #64]	; 0x40
    3e82:	2a6e      	cmp	r2, #110	; 0x6e
    3e84:	d100      	bne.n	3e88 <_printf_i+0x1c>
    3e86:	e08f      	b.n	3fa8 <_printf_i+0x13c>
    3e88:	d817      	bhi.n	3eba <_printf_i+0x4e>
    3e8a:	2a63      	cmp	r2, #99	; 0x63
    3e8c:	d02c      	beq.n	3ee8 <_printf_i+0x7c>
    3e8e:	d808      	bhi.n	3ea2 <_printf_i+0x36>
    3e90:	2a00      	cmp	r2, #0
    3e92:	d100      	bne.n	3e96 <_printf_i+0x2a>
    3e94:	e099      	b.n	3fca <_printf_i+0x15e>
    3e96:	2a58      	cmp	r2, #88	; 0x58
    3e98:	d054      	beq.n	3f44 <_printf_i+0xd8>
    3e9a:	0026      	movs	r6, r4
    3e9c:	3642      	adds	r6, #66	; 0x42
    3e9e:	7032      	strb	r2, [r6, #0]
    3ea0:	e029      	b.n	3ef6 <_printf_i+0x8a>
    3ea2:	2a64      	cmp	r2, #100	; 0x64
    3ea4:	d001      	beq.n	3eaa <_printf_i+0x3e>
    3ea6:	2a69      	cmp	r2, #105	; 0x69
    3ea8:	d1f7      	bne.n	3e9a <_printf_i+0x2e>
    3eaa:	6821      	ldr	r1, [r4, #0]
    3eac:	681a      	ldr	r2, [r3, #0]
    3eae:	0608      	lsls	r0, r1, #24
    3eb0:	d523      	bpl.n	3efa <_printf_i+0x8e>
    3eb2:	1d11      	adds	r1, r2, #4
    3eb4:	6019      	str	r1, [r3, #0]
    3eb6:	6815      	ldr	r5, [r2, #0]
    3eb8:	e025      	b.n	3f06 <_printf_i+0x9a>
    3eba:	2a73      	cmp	r2, #115	; 0x73
    3ebc:	d100      	bne.n	3ec0 <_printf_i+0x54>
    3ebe:	e088      	b.n	3fd2 <_printf_i+0x166>
    3ec0:	d808      	bhi.n	3ed4 <_printf_i+0x68>
    3ec2:	2a6f      	cmp	r2, #111	; 0x6f
    3ec4:	d029      	beq.n	3f1a <_printf_i+0xae>
    3ec6:	2a70      	cmp	r2, #112	; 0x70
    3ec8:	d1e7      	bne.n	3e9a <_printf_i+0x2e>
    3eca:	2220      	movs	r2, #32
    3ecc:	6809      	ldr	r1, [r1, #0]
    3ece:	430a      	orrs	r2, r1
    3ed0:	6022      	str	r2, [r4, #0]
    3ed2:	e003      	b.n	3edc <_printf_i+0x70>
    3ed4:	2a75      	cmp	r2, #117	; 0x75
    3ed6:	d020      	beq.n	3f1a <_printf_i+0xae>
    3ed8:	2a78      	cmp	r2, #120	; 0x78
    3eda:	d1de      	bne.n	3e9a <_printf_i+0x2e>
    3edc:	0022      	movs	r2, r4
    3ede:	2178      	movs	r1, #120	; 0x78
    3ee0:	3245      	adds	r2, #69	; 0x45
    3ee2:	7011      	strb	r1, [r2, #0]
    3ee4:	4a6c      	ldr	r2, [pc, #432]	; (4098 <_printf_i+0x22c>)
    3ee6:	e030      	b.n	3f4a <_printf_i+0xde>
    3ee8:	000e      	movs	r6, r1
    3eea:	681a      	ldr	r2, [r3, #0]
    3eec:	3642      	adds	r6, #66	; 0x42
    3eee:	1d11      	adds	r1, r2, #4
    3ef0:	6019      	str	r1, [r3, #0]
    3ef2:	6813      	ldr	r3, [r2, #0]
    3ef4:	7033      	strb	r3, [r6, #0]
    3ef6:	2301      	movs	r3, #1
    3ef8:	e079      	b.n	3fee <_printf_i+0x182>
    3efa:	0649      	lsls	r1, r1, #25
    3efc:	d5d9      	bpl.n	3eb2 <_printf_i+0x46>
    3efe:	1d11      	adds	r1, r2, #4
    3f00:	6019      	str	r1, [r3, #0]
    3f02:	2300      	movs	r3, #0
    3f04:	5ed5      	ldrsh	r5, [r2, r3]
    3f06:	2d00      	cmp	r5, #0
    3f08:	da03      	bge.n	3f12 <_printf_i+0xa6>
    3f0a:	232d      	movs	r3, #45	; 0x2d
    3f0c:	9a04      	ldr	r2, [sp, #16]
    3f0e:	426d      	negs	r5, r5
    3f10:	7013      	strb	r3, [r2, #0]
    3f12:	4b62      	ldr	r3, [pc, #392]	; (409c <_printf_i+0x230>)
    3f14:	270a      	movs	r7, #10
    3f16:	9303      	str	r3, [sp, #12]
    3f18:	e02f      	b.n	3f7a <_printf_i+0x10e>
    3f1a:	6820      	ldr	r0, [r4, #0]
    3f1c:	6819      	ldr	r1, [r3, #0]
    3f1e:	0605      	lsls	r5, r0, #24
    3f20:	d503      	bpl.n	3f2a <_printf_i+0xbe>
    3f22:	1d08      	adds	r0, r1, #4
    3f24:	6018      	str	r0, [r3, #0]
    3f26:	680d      	ldr	r5, [r1, #0]
    3f28:	e005      	b.n	3f36 <_printf_i+0xca>
    3f2a:	0640      	lsls	r0, r0, #25
    3f2c:	d5f9      	bpl.n	3f22 <_printf_i+0xb6>
    3f2e:	680d      	ldr	r5, [r1, #0]
    3f30:	1d08      	adds	r0, r1, #4
    3f32:	6018      	str	r0, [r3, #0]
    3f34:	b2ad      	uxth	r5, r5
    3f36:	4b59      	ldr	r3, [pc, #356]	; (409c <_printf_i+0x230>)
    3f38:	2708      	movs	r7, #8
    3f3a:	9303      	str	r3, [sp, #12]
    3f3c:	2a6f      	cmp	r2, #111	; 0x6f
    3f3e:	d018      	beq.n	3f72 <_printf_i+0x106>
    3f40:	270a      	movs	r7, #10
    3f42:	e016      	b.n	3f72 <_printf_i+0x106>
    3f44:	3145      	adds	r1, #69	; 0x45
    3f46:	700a      	strb	r2, [r1, #0]
    3f48:	4a54      	ldr	r2, [pc, #336]	; (409c <_printf_i+0x230>)
    3f4a:	9203      	str	r2, [sp, #12]
    3f4c:	681a      	ldr	r2, [r3, #0]
    3f4e:	6821      	ldr	r1, [r4, #0]
    3f50:	1d10      	adds	r0, r2, #4
    3f52:	6018      	str	r0, [r3, #0]
    3f54:	6815      	ldr	r5, [r2, #0]
    3f56:	0608      	lsls	r0, r1, #24
    3f58:	d522      	bpl.n	3fa0 <_printf_i+0x134>
    3f5a:	07cb      	lsls	r3, r1, #31
    3f5c:	d502      	bpl.n	3f64 <_printf_i+0xf8>
    3f5e:	2320      	movs	r3, #32
    3f60:	4319      	orrs	r1, r3
    3f62:	6021      	str	r1, [r4, #0]
    3f64:	2710      	movs	r7, #16
    3f66:	2d00      	cmp	r5, #0
    3f68:	d103      	bne.n	3f72 <_printf_i+0x106>
    3f6a:	2320      	movs	r3, #32
    3f6c:	6822      	ldr	r2, [r4, #0]
    3f6e:	439a      	bics	r2, r3
    3f70:	6022      	str	r2, [r4, #0]
    3f72:	0023      	movs	r3, r4
    3f74:	2200      	movs	r2, #0
    3f76:	3343      	adds	r3, #67	; 0x43
    3f78:	701a      	strb	r2, [r3, #0]
    3f7a:	6863      	ldr	r3, [r4, #4]
    3f7c:	60a3      	str	r3, [r4, #8]
    3f7e:	2b00      	cmp	r3, #0
    3f80:	db5c      	blt.n	403c <_printf_i+0x1d0>
    3f82:	2204      	movs	r2, #4
    3f84:	6821      	ldr	r1, [r4, #0]
    3f86:	4391      	bics	r1, r2
    3f88:	6021      	str	r1, [r4, #0]
    3f8a:	2d00      	cmp	r5, #0
    3f8c:	d158      	bne.n	4040 <_printf_i+0x1d4>
    3f8e:	9e04      	ldr	r6, [sp, #16]
    3f90:	2b00      	cmp	r3, #0
    3f92:	d064      	beq.n	405e <_printf_i+0x1f2>
    3f94:	0026      	movs	r6, r4
    3f96:	9b03      	ldr	r3, [sp, #12]
    3f98:	3642      	adds	r6, #66	; 0x42
    3f9a:	781b      	ldrb	r3, [r3, #0]
    3f9c:	7033      	strb	r3, [r6, #0]
    3f9e:	e05e      	b.n	405e <_printf_i+0x1f2>
    3fa0:	0648      	lsls	r0, r1, #25
    3fa2:	d5da      	bpl.n	3f5a <_printf_i+0xee>
    3fa4:	b2ad      	uxth	r5, r5
    3fa6:	e7d8      	b.n	3f5a <_printf_i+0xee>
    3fa8:	6809      	ldr	r1, [r1, #0]
    3faa:	681a      	ldr	r2, [r3, #0]
    3fac:	0608      	lsls	r0, r1, #24
    3fae:	d505      	bpl.n	3fbc <_printf_i+0x150>
    3fb0:	1d11      	adds	r1, r2, #4
    3fb2:	6019      	str	r1, [r3, #0]
    3fb4:	6813      	ldr	r3, [r2, #0]
    3fb6:	6962      	ldr	r2, [r4, #20]
    3fb8:	601a      	str	r2, [r3, #0]
    3fba:	e006      	b.n	3fca <_printf_i+0x15e>
    3fbc:	0649      	lsls	r1, r1, #25
    3fbe:	d5f7      	bpl.n	3fb0 <_printf_i+0x144>
    3fc0:	1d11      	adds	r1, r2, #4
    3fc2:	6019      	str	r1, [r3, #0]
    3fc4:	6813      	ldr	r3, [r2, #0]
    3fc6:	8aa2      	ldrh	r2, [r4, #20]
    3fc8:	801a      	strh	r2, [r3, #0]
    3fca:	2300      	movs	r3, #0
    3fcc:	9e04      	ldr	r6, [sp, #16]
    3fce:	6123      	str	r3, [r4, #16]
    3fd0:	e054      	b.n	407c <_printf_i+0x210>
    3fd2:	681a      	ldr	r2, [r3, #0]
    3fd4:	1d11      	adds	r1, r2, #4
    3fd6:	6019      	str	r1, [r3, #0]
    3fd8:	6816      	ldr	r6, [r2, #0]
    3fda:	2100      	movs	r1, #0
    3fdc:	6862      	ldr	r2, [r4, #4]
    3fde:	0030      	movs	r0, r6
    3fe0:	f000 f9e6 	bl	43b0 <memchr>
    3fe4:	2800      	cmp	r0, #0
    3fe6:	d001      	beq.n	3fec <_printf_i+0x180>
    3fe8:	1b80      	subs	r0, r0, r6
    3fea:	6060      	str	r0, [r4, #4]
    3fec:	6863      	ldr	r3, [r4, #4]
    3fee:	6123      	str	r3, [r4, #16]
    3ff0:	2300      	movs	r3, #0
    3ff2:	9a04      	ldr	r2, [sp, #16]
    3ff4:	7013      	strb	r3, [r2, #0]
    3ff6:	e041      	b.n	407c <_printf_i+0x210>
    3ff8:	6923      	ldr	r3, [r4, #16]
    3ffa:	0032      	movs	r2, r6
    3ffc:	9906      	ldr	r1, [sp, #24]
    3ffe:	9805      	ldr	r0, [sp, #20]
    4000:	9d07      	ldr	r5, [sp, #28]
    4002:	47a8      	blx	r5
    4004:	1c43      	adds	r3, r0, #1
    4006:	d043      	beq.n	4090 <_printf_i+0x224>
    4008:	6823      	ldr	r3, [r4, #0]
    400a:	2500      	movs	r5, #0
    400c:	079b      	lsls	r3, r3, #30
    400e:	d40f      	bmi.n	4030 <_printf_i+0x1c4>
    4010:	9b09      	ldr	r3, [sp, #36]	; 0x24
    4012:	68e0      	ldr	r0, [r4, #12]
    4014:	4298      	cmp	r0, r3
    4016:	da3d      	bge.n	4094 <_printf_i+0x228>
    4018:	0018      	movs	r0, r3
    401a:	e03b      	b.n	4094 <_printf_i+0x228>
    401c:	0022      	movs	r2, r4
    401e:	2301      	movs	r3, #1
    4020:	3219      	adds	r2, #25
    4022:	9906      	ldr	r1, [sp, #24]
    4024:	9805      	ldr	r0, [sp, #20]
    4026:	9e07      	ldr	r6, [sp, #28]
    4028:	47b0      	blx	r6
    402a:	1c43      	adds	r3, r0, #1
    402c:	d030      	beq.n	4090 <_printf_i+0x224>
    402e:	3501      	adds	r5, #1
    4030:	68e3      	ldr	r3, [r4, #12]
    4032:	9a09      	ldr	r2, [sp, #36]	; 0x24
    4034:	1a9b      	subs	r3, r3, r2
    4036:	429d      	cmp	r5, r3
    4038:	dbf0      	blt.n	401c <_printf_i+0x1b0>
    403a:	e7e9      	b.n	4010 <_printf_i+0x1a4>
    403c:	2d00      	cmp	r5, #0
    403e:	d0a9      	beq.n	3f94 <_printf_i+0x128>
    4040:	9e04      	ldr	r6, [sp, #16]
    4042:	0028      	movs	r0, r5
    4044:	0039      	movs	r1, r7
    4046:	f7ff f90b 	bl	3260 <__aeabi_uidivmod>
    404a:	9b03      	ldr	r3, [sp, #12]
    404c:	3e01      	subs	r6, #1
    404e:	5c5b      	ldrb	r3, [r3, r1]
    4050:	0028      	movs	r0, r5
    4052:	7033      	strb	r3, [r6, #0]
    4054:	0039      	movs	r1, r7
    4056:	f7ff f87d 	bl	3154 <__udivsi3>
    405a:	1e05      	subs	r5, r0, #0
    405c:	d1f1      	bne.n	4042 <_printf_i+0x1d6>
    405e:	2f08      	cmp	r7, #8
    4060:	d109      	bne.n	4076 <_printf_i+0x20a>
    4062:	6823      	ldr	r3, [r4, #0]
    4064:	07db      	lsls	r3, r3, #31
    4066:	d506      	bpl.n	4076 <_printf_i+0x20a>
    4068:	6863      	ldr	r3, [r4, #4]
    406a:	6922      	ldr	r2, [r4, #16]
    406c:	4293      	cmp	r3, r2
    406e:	dc02      	bgt.n	4076 <_printf_i+0x20a>
    4070:	2330      	movs	r3, #48	; 0x30
    4072:	3e01      	subs	r6, #1
    4074:	7033      	strb	r3, [r6, #0]
    4076:	9b04      	ldr	r3, [sp, #16]
    4078:	1b9b      	subs	r3, r3, r6
    407a:	6123      	str	r3, [r4, #16]
    407c:	9b07      	ldr	r3, [sp, #28]
    407e:	aa09      	add	r2, sp, #36	; 0x24
    4080:	9300      	str	r3, [sp, #0]
    4082:	0021      	movs	r1, r4
    4084:	9b06      	ldr	r3, [sp, #24]
    4086:	9805      	ldr	r0, [sp, #20]
    4088:	f7ff fe82 	bl	3d90 <_printf_common>
    408c:	1c43      	adds	r3, r0, #1
    408e:	d1b3      	bne.n	3ff8 <_printf_i+0x18c>
    4090:	2001      	movs	r0, #1
    4092:	4240      	negs	r0, r0
    4094:	b00b      	add	sp, #44	; 0x2c
    4096:	bdf0      	pop	{r4, r5, r6, r7, pc}
    4098:	000065ea 	.word	0x000065ea
    409c:	000065d9 	.word	0x000065d9

000040a0 <_sbrk_r>:
    40a0:	2300      	movs	r3, #0
    40a2:	b570      	push	{r4, r5, r6, lr}
    40a4:	4c06      	ldr	r4, [pc, #24]	; (40c0 <_sbrk_r+0x20>)
    40a6:	0005      	movs	r5, r0
    40a8:	0008      	movs	r0, r1
    40aa:	6023      	str	r3, [r4, #0]
    40ac:	f7fd fe1a 	bl	1ce4 <_sbrk>
    40b0:	1c43      	adds	r3, r0, #1
    40b2:	d103      	bne.n	40bc <_sbrk_r+0x1c>
    40b4:	6823      	ldr	r3, [r4, #0]
    40b6:	2b00      	cmp	r3, #0
    40b8:	d000      	beq.n	40bc <_sbrk_r+0x1c>
    40ba:	602b      	str	r3, [r5, #0]
    40bc:	bd70      	pop	{r4, r5, r6, pc}
    40be:	46c0      	nop			; (mov r8, r8)
    40c0:	2000042c 	.word	0x2000042c

000040c4 <__sread>:
    40c4:	b570      	push	{r4, r5, r6, lr}
    40c6:	000c      	movs	r4, r1
    40c8:	250e      	movs	r5, #14
    40ca:	5f49      	ldrsh	r1, [r1, r5]
    40cc:	f000 f97e 	bl	43cc <_read_r>
    40d0:	2800      	cmp	r0, #0
    40d2:	db03      	blt.n	40dc <__sread+0x18>
    40d4:	6d63      	ldr	r3, [r4, #84]	; 0x54
    40d6:	181b      	adds	r3, r3, r0
    40d8:	6563      	str	r3, [r4, #84]	; 0x54
    40da:	bd70      	pop	{r4, r5, r6, pc}
    40dc:	89a3      	ldrh	r3, [r4, #12]
    40de:	4a02      	ldr	r2, [pc, #8]	; (40e8 <__sread+0x24>)
    40e0:	4013      	ands	r3, r2
    40e2:	81a3      	strh	r3, [r4, #12]
    40e4:	e7f9      	b.n	40da <__sread+0x16>
    40e6:	46c0      	nop			; (mov r8, r8)
    40e8:	ffffefff 	.word	0xffffefff

000040ec <__swrite>:
    40ec:	b5f8      	push	{r3, r4, r5, r6, r7, lr}
    40ee:	001f      	movs	r7, r3
    40f0:	898b      	ldrh	r3, [r1, #12]
    40f2:	0005      	movs	r5, r0
    40f4:	000c      	movs	r4, r1
    40f6:	0016      	movs	r6, r2
    40f8:	05db      	lsls	r3, r3, #23
    40fa:	d505      	bpl.n	4108 <__swrite+0x1c>
    40fc:	230e      	movs	r3, #14
    40fe:	5ec9      	ldrsh	r1, [r1, r3]
    4100:	2200      	movs	r2, #0
    4102:	2302      	movs	r3, #2
    4104:	f000 f940 	bl	4388 <_lseek_r>
    4108:	89a3      	ldrh	r3, [r4, #12]
    410a:	4a05      	ldr	r2, [pc, #20]	; (4120 <__swrite+0x34>)
    410c:	0028      	movs	r0, r5
    410e:	4013      	ands	r3, r2
    4110:	81a3      	strh	r3, [r4, #12]
    4112:	0032      	movs	r2, r6
    4114:	230e      	movs	r3, #14
    4116:	5ee1      	ldrsh	r1, [r4, r3]
    4118:	003b      	movs	r3, r7
    411a:	f000 f875 	bl	4208 <_write_r>
    411e:	bdf8      	pop	{r3, r4, r5, r6, r7, pc}
    4120:	ffffefff 	.word	0xffffefff

00004124 <__sseek>:
    4124:	b570      	push	{r4, r5, r6, lr}
    4126:	000c      	movs	r4, r1
    4128:	250e      	movs	r5, #14
    412a:	5f49      	ldrsh	r1, [r1, r5]
    412c:	f000 f92c 	bl	4388 <_lseek_r>
    4130:	89a3      	ldrh	r3, [r4, #12]
    4132:	1c42      	adds	r2, r0, #1
    4134:	d103      	bne.n	413e <__sseek+0x1a>
    4136:	4a05      	ldr	r2, [pc, #20]	; (414c <__sseek+0x28>)
    4138:	4013      	ands	r3, r2
    413a:	81a3      	strh	r3, [r4, #12]
    413c:	bd70      	pop	{r4, r5, r6, pc}
    413e:	2280      	movs	r2, #128	; 0x80
    4140:	0152      	lsls	r2, r2, #5
    4142:	4313      	orrs	r3, r2
    4144:	81a3      	strh	r3, [r4, #12]
    4146:	6560      	str	r0, [r4, #84]	; 0x54
    4148:	e7f8      	b.n	413c <__sseek+0x18>
    414a:	46c0      	nop			; (mov r8, r8)
    414c:	ffffefff 	.word	0xffffefff

00004150 <__sclose>:
    4150:	b510      	push	{r4, lr}
    4152:	230e      	movs	r3, #14
    4154:	5ec9      	ldrsh	r1, [r1, r3]
    4156:	f000 f8e1 	bl	431c <_close_r>
    415a:	bd10      	pop	{r4, pc}

0000415c <__swbuf_r>:
    415c:	b5f8      	push	{r3, r4, r5, r6, r7, lr}
    415e:	0005      	movs	r5, r0
    4160:	000e      	movs	r6, r1
    4162:	0014      	movs	r4, r2
    4164:	2800      	cmp	r0, #0
    4166:	d004      	beq.n	4172 <__swbuf_r+0x16>
    4168:	6983      	ldr	r3, [r0, #24]
    416a:	2b00      	cmp	r3, #0
    416c:	d101      	bne.n	4172 <__swbuf_r+0x16>
    416e:	f7ff fb17 	bl	37a0 <__sinit>
    4172:	4b22      	ldr	r3, [pc, #136]	; (41fc <__swbuf_r+0xa0>)
    4174:	429c      	cmp	r4, r3
    4176:	d12d      	bne.n	41d4 <__swbuf_r+0x78>
    4178:	686c      	ldr	r4, [r5, #4]
    417a:	69a3      	ldr	r3, [r4, #24]
    417c:	60a3      	str	r3, [r4, #8]
    417e:	89a3      	ldrh	r3, [r4, #12]
    4180:	071b      	lsls	r3, r3, #28
    4182:	d531      	bpl.n	41e8 <__swbuf_r+0x8c>
    4184:	6923      	ldr	r3, [r4, #16]
    4186:	2b00      	cmp	r3, #0
    4188:	d02e      	beq.n	41e8 <__swbuf_r+0x8c>
    418a:	6823      	ldr	r3, [r4, #0]
    418c:	6922      	ldr	r2, [r4, #16]
    418e:	b2f7      	uxtb	r7, r6
    4190:	1a98      	subs	r0, r3, r2
    4192:	6963      	ldr	r3, [r4, #20]
    4194:	b2f6      	uxtb	r6, r6
    4196:	4298      	cmp	r0, r3
    4198:	db05      	blt.n	41a6 <__swbuf_r+0x4a>
    419a:	0021      	movs	r1, r4
    419c:	0028      	movs	r0, r5
    419e:	f7ff fa91 	bl	36c4 <_fflush_r>
    41a2:	2800      	cmp	r0, #0
    41a4:	d126      	bne.n	41f4 <__swbuf_r+0x98>
    41a6:	68a3      	ldr	r3, [r4, #8]
    41a8:	3001      	adds	r0, #1
    41aa:	3b01      	subs	r3, #1
    41ac:	60a3      	str	r3, [r4, #8]
    41ae:	6823      	ldr	r3, [r4, #0]
    41b0:	1c5a      	adds	r2, r3, #1
    41b2:	6022      	str	r2, [r4, #0]
    41b4:	701f      	strb	r7, [r3, #0]
    41b6:	6963      	ldr	r3, [r4, #20]
    41b8:	4298      	cmp	r0, r3
    41ba:	d004      	beq.n	41c6 <__swbuf_r+0x6a>
    41bc:	89a3      	ldrh	r3, [r4, #12]
    41be:	07db      	lsls	r3, r3, #31
    41c0:	d51a      	bpl.n	41f8 <__swbuf_r+0x9c>
    41c2:	2e0a      	cmp	r6, #10
    41c4:	d118      	bne.n	41f8 <__swbuf_r+0x9c>
    41c6:	0021      	movs	r1, r4
    41c8:	0028      	movs	r0, r5
    41ca:	f7ff fa7b 	bl	36c4 <_fflush_r>
    41ce:	2800      	cmp	r0, #0
    41d0:	d012      	beq.n	41f8 <__swbuf_r+0x9c>
    41d2:	e00f      	b.n	41f4 <__swbuf_r+0x98>
    41d4:	4b0a      	ldr	r3, [pc, #40]	; (4200 <__swbuf_r+0xa4>)
    41d6:	429c      	cmp	r4, r3
    41d8:	d101      	bne.n	41de <__swbuf_r+0x82>
    41da:	68ac      	ldr	r4, [r5, #8]
    41dc:	e7cd      	b.n	417a <__swbuf_r+0x1e>
    41de:	4b09      	ldr	r3, [pc, #36]	; (4204 <__swbuf_r+0xa8>)
    41e0:	429c      	cmp	r4, r3
    41e2:	d1ca      	bne.n	417a <__swbuf_r+0x1e>
    41e4:	68ec      	ldr	r4, [r5, #12]
    41e6:	e7c8      	b.n	417a <__swbuf_r+0x1e>
    41e8:	0021      	movs	r1, r4
    41ea:	0028      	movs	r0, r5
    41ec:	f000 f820 	bl	4230 <__swsetup_r>
    41f0:	2800      	cmp	r0, #0
    41f2:	d0ca      	beq.n	418a <__swbuf_r+0x2e>
    41f4:	2601      	movs	r6, #1
    41f6:	4276      	negs	r6, r6
    41f8:	0030      	movs	r0, r6
    41fa:	bdf8      	pop	{r3, r4, r5, r6, r7, pc}
    41fc:	00006588 	.word	0x00006588
    4200:	000065a8 	.word	0x000065a8
    4204:	00006568 	.word	0x00006568

00004208 <_write_r>:
    4208:	b570      	push	{r4, r5, r6, lr}
    420a:	0005      	movs	r5, r0
    420c:	0008      	movs	r0, r1
    420e:	0011      	movs	r1, r2
    4210:	2200      	movs	r2, #0
    4212:	4c06      	ldr	r4, [pc, #24]	; (422c <_write_r+0x24>)
    4214:	6022      	str	r2, [r4, #0]
    4216:	001a      	movs	r2, r3
    4218:	f7fd fd3c 	bl	1c94 <_write>
    421c:	1c43      	adds	r3, r0, #1
    421e:	d103      	bne.n	4228 <_write_r+0x20>
    4220:	6823      	ldr	r3, [r4, #0]
    4222:	2b00      	cmp	r3, #0
    4224:	d000      	beq.n	4228 <_write_r+0x20>
    4226:	602b      	str	r3, [r5, #0]
    4228:	bd70      	pop	{r4, r5, r6, pc}
    422a:	46c0      	nop			; (mov r8, r8)
    422c:	2000042c 	.word	0x2000042c

00004230 <__swsetup_r>:
    4230:	4b36      	ldr	r3, [pc, #216]	; (430c <__swsetup_r+0xdc>)
    4232:	b570      	push	{r4, r5, r6, lr}
    4234:	681d      	ldr	r5, [r3, #0]
    4236:	0006      	movs	r6, r0
    4238:	000c      	movs	r4, r1
    423a:	2d00      	cmp	r5, #0
    423c:	d005      	beq.n	424a <__swsetup_r+0x1a>
    423e:	69ab      	ldr	r3, [r5, #24]
    4240:	2b00      	cmp	r3, #0
    4242:	d102      	bne.n	424a <__swsetup_r+0x1a>
    4244:	0028      	movs	r0, r5
    4246:	f7ff faab 	bl	37a0 <__sinit>
    424a:	4b31      	ldr	r3, [pc, #196]	; (4310 <__swsetup_r+0xe0>)
    424c:	429c      	cmp	r4, r3
    424e:	d10f      	bne.n	4270 <__swsetup_r+0x40>
    4250:	686c      	ldr	r4, [r5, #4]
    4252:	230c      	movs	r3, #12
    4254:	5ee2      	ldrsh	r2, [r4, r3]
    4256:	b293      	uxth	r3, r2
    4258:	0719      	lsls	r1, r3, #28
    425a:	d42d      	bmi.n	42b8 <__swsetup_r+0x88>
    425c:	06d9      	lsls	r1, r3, #27
    425e:	d411      	bmi.n	4284 <__swsetup_r+0x54>
    4260:	2309      	movs	r3, #9
    4262:	2001      	movs	r0, #1
    4264:	6033      	str	r3, [r6, #0]
    4266:	3337      	adds	r3, #55	; 0x37
    4268:	4313      	orrs	r3, r2
    426a:	81a3      	strh	r3, [r4, #12]
    426c:	4240      	negs	r0, r0
    426e:	bd70      	pop	{r4, r5, r6, pc}
    4270:	4b28      	ldr	r3, [pc, #160]	; (4314 <__swsetup_r+0xe4>)
    4272:	429c      	cmp	r4, r3
    4274:	d101      	bne.n	427a <__swsetup_r+0x4a>
    4276:	68ac      	ldr	r4, [r5, #8]
    4278:	e7eb      	b.n	4252 <__swsetup_r+0x22>
    427a:	4b27      	ldr	r3, [pc, #156]	; (4318 <__swsetup_r+0xe8>)
    427c:	429c      	cmp	r4, r3
    427e:	d1e8      	bne.n	4252 <__swsetup_r+0x22>
    4280:	68ec      	ldr	r4, [r5, #12]
    4282:	e7e6      	b.n	4252 <__swsetup_r+0x22>
    4284:	075b      	lsls	r3, r3, #29
    4286:	d513      	bpl.n	42b0 <__swsetup_r+0x80>
    4288:	6b61      	ldr	r1, [r4, #52]	; 0x34
    428a:	2900      	cmp	r1, #0
    428c:	d008      	beq.n	42a0 <__swsetup_r+0x70>
    428e:	0023      	movs	r3, r4
    4290:	3344      	adds	r3, #68	; 0x44
    4292:	4299      	cmp	r1, r3
    4294:	d002      	beq.n	429c <__swsetup_r+0x6c>
    4296:	0030      	movs	r0, r6
    4298:	f7ff fb8e 	bl	39b8 <_free_r>
    429c:	2300      	movs	r3, #0
    429e:	6363      	str	r3, [r4, #52]	; 0x34
    42a0:	2224      	movs	r2, #36	; 0x24
    42a2:	89a3      	ldrh	r3, [r4, #12]
    42a4:	4393      	bics	r3, r2
    42a6:	81a3      	strh	r3, [r4, #12]
    42a8:	2300      	movs	r3, #0
    42aa:	6063      	str	r3, [r4, #4]
    42ac:	6923      	ldr	r3, [r4, #16]
    42ae:	6023      	str	r3, [r4, #0]
    42b0:	2308      	movs	r3, #8
    42b2:	89a2      	ldrh	r2, [r4, #12]
    42b4:	4313      	orrs	r3, r2
    42b6:	81a3      	strh	r3, [r4, #12]
    42b8:	6923      	ldr	r3, [r4, #16]
    42ba:	2b00      	cmp	r3, #0
    42bc:	d10b      	bne.n	42d6 <__swsetup_r+0xa6>
    42be:	21a0      	movs	r1, #160	; 0xa0
    42c0:	2280      	movs	r2, #128	; 0x80
    42c2:	89a3      	ldrh	r3, [r4, #12]
    42c4:	0089      	lsls	r1, r1, #2
    42c6:	0092      	lsls	r2, r2, #2
    42c8:	400b      	ands	r3, r1
    42ca:	4293      	cmp	r3, r2
    42cc:	d003      	beq.n	42d6 <__swsetup_r+0xa6>
    42ce:	0021      	movs	r1, r4
    42d0:	0030      	movs	r0, r6
    42d2:	f7ff fb23 	bl	391c <__smakebuf_r>
    42d6:	2301      	movs	r3, #1
    42d8:	89a2      	ldrh	r2, [r4, #12]
    42da:	4013      	ands	r3, r2
    42dc:	d011      	beq.n	4302 <__swsetup_r+0xd2>
    42de:	2300      	movs	r3, #0
    42e0:	60a3      	str	r3, [r4, #8]
    42e2:	6963      	ldr	r3, [r4, #20]
    42e4:	425b      	negs	r3, r3
    42e6:	61a3      	str	r3, [r4, #24]
    42e8:	2000      	movs	r0, #0
    42ea:	6923      	ldr	r3, [r4, #16]
    42ec:	4283      	cmp	r3, r0
    42ee:	d1be      	bne.n	426e <__swsetup_r+0x3e>
    42f0:	230c      	movs	r3, #12
    42f2:	5ee2      	ldrsh	r2, [r4, r3]
    42f4:	0613      	lsls	r3, r2, #24
    42f6:	d5ba      	bpl.n	426e <__swsetup_r+0x3e>
    42f8:	2340      	movs	r3, #64	; 0x40
    42fa:	4313      	orrs	r3, r2
    42fc:	81a3      	strh	r3, [r4, #12]
    42fe:	3801      	subs	r0, #1
    4300:	e7b5      	b.n	426e <__swsetup_r+0x3e>
    4302:	0792      	lsls	r2, r2, #30
    4304:	d400      	bmi.n	4308 <__swsetup_r+0xd8>
    4306:	6963      	ldr	r3, [r4, #20]
    4308:	60a3      	str	r3, [r4, #8]
    430a:	e7ed      	b.n	42e8 <__swsetup_r+0xb8>
    430c:	20000158 	.word	0x20000158
    4310:	00006588 	.word	0x00006588
    4314:	000065a8 	.word	0x000065a8
    4318:	00006568 	.word	0x00006568

0000431c <_close_r>:
    431c:	2300      	movs	r3, #0
    431e:	b570      	push	{r4, r5, r6, lr}
    4320:	4c06      	ldr	r4, [pc, #24]	; (433c <_close_r+0x20>)
    4322:	0005      	movs	r5, r0
    4324:	0008      	movs	r0, r1
    4326:	6023      	str	r3, [r4, #0]
    4328:	f7fd fcee 	bl	1d08 <_close>
    432c:	1c43      	adds	r3, r0, #1
    432e:	d103      	bne.n	4338 <_close_r+0x1c>
    4330:	6823      	ldr	r3, [r4, #0]
    4332:	2b00      	cmp	r3, #0
    4334:	d000      	beq.n	4338 <_close_r+0x1c>
    4336:	602b      	str	r3, [r5, #0]
    4338:	bd70      	pop	{r4, r5, r6, pc}
    433a:	46c0      	nop			; (mov r8, r8)
    433c:	2000042c 	.word	0x2000042c

00004340 <_fstat_r>:
    4340:	2300      	movs	r3, #0
    4342:	b570      	push	{r4, r5, r6, lr}
    4344:	4c06      	ldr	r4, [pc, #24]	; (4360 <_fstat_r+0x20>)
    4346:	0005      	movs	r5, r0
    4348:	0008      	movs	r0, r1
    434a:	0011      	movs	r1, r2
    434c:	6023      	str	r3, [r4, #0]
    434e:	f7fd fcde 	bl	1d0e <_fstat>
    4352:	1c43      	adds	r3, r0, #1
    4354:	d103      	bne.n	435e <_fstat_r+0x1e>
    4356:	6823      	ldr	r3, [r4, #0]
    4358:	2b00      	cmp	r3, #0
    435a:	d000      	beq.n	435e <_fstat_r+0x1e>
    435c:	602b      	str	r3, [r5, #0]
    435e:	bd70      	pop	{r4, r5, r6, pc}
    4360:	2000042c 	.word	0x2000042c

00004364 <_isatty_r>:
    4364:	2300      	movs	r3, #0
    4366:	b570      	push	{r4, r5, r6, lr}
    4368:	4c06      	ldr	r4, [pc, #24]	; (4384 <_isatty_r+0x20>)
    436a:	0005      	movs	r5, r0
    436c:	0008      	movs	r0, r1
    436e:	6023      	str	r3, [r4, #0]
    4370:	f7fd fcd2 	bl	1d18 <_isatty>
    4374:	1c43      	adds	r3, r0, #1
    4376:	d103      	bne.n	4380 <_isatty_r+0x1c>
    4378:	6823      	ldr	r3, [r4, #0]
    437a:	2b00      	cmp	r3, #0
    437c:	d000      	beq.n	4380 <_isatty_r+0x1c>
    437e:	602b      	str	r3, [r5, #0]
    4380:	bd70      	pop	{r4, r5, r6, pc}
    4382:	46c0      	nop			; (mov r8, r8)
    4384:	2000042c 	.word	0x2000042c

00004388 <_lseek_r>:
    4388:	b570      	push	{r4, r5, r6, lr}
    438a:	0005      	movs	r5, r0
    438c:	0008      	movs	r0, r1
    438e:	0011      	movs	r1, r2
    4390:	2200      	movs	r2, #0
    4392:	4c06      	ldr	r4, [pc, #24]	; (43ac <_lseek_r+0x24>)
    4394:	6022      	str	r2, [r4, #0]
    4396:	001a      	movs	r2, r3
    4398:	f7fd fcc0 	bl	1d1c <_lseek>
    439c:	1c43      	adds	r3, r0, #1
    439e:	d103      	bne.n	43a8 <_lseek_r+0x20>
    43a0:	6823      	ldr	r3, [r4, #0]
    43a2:	2b00      	cmp	r3, #0
    43a4:	d000      	beq.n	43a8 <_lseek_r+0x20>
    43a6:	602b      	str	r3, [r5, #0]
    43a8:	bd70      	pop	{r4, r5, r6, pc}
    43aa:	46c0      	nop			; (mov r8, r8)
    43ac:	2000042c 	.word	0x2000042c

000043b0 <memchr>:
    43b0:	b2c9      	uxtb	r1, r1
    43b2:	1882      	adds	r2, r0, r2
    43b4:	4290      	cmp	r0, r2
    43b6:	d101      	bne.n	43bc <memchr+0xc>
    43b8:	2000      	movs	r0, #0
    43ba:	4770      	bx	lr
    43bc:	7803      	ldrb	r3, [r0, #0]
    43be:	428b      	cmp	r3, r1
    43c0:	d0fb      	beq.n	43ba <memchr+0xa>
    43c2:	3001      	adds	r0, #1
    43c4:	e7f6      	b.n	43b4 <memchr+0x4>

000043c6 <__malloc_lock>:
    43c6:	4770      	bx	lr

000043c8 <__malloc_unlock>:
    43c8:	4770      	bx	lr
	...

000043cc <_read_r>:
    43cc:	b570      	push	{r4, r5, r6, lr}
    43ce:	0005      	movs	r5, r0
    43d0:	0008      	movs	r0, r1
    43d2:	0011      	movs	r1, r2
    43d4:	2200      	movs	r2, #0
    43d6:	4c06      	ldr	r4, [pc, #24]	; (43f0 <_read_r+0x24>)
    43d8:	6022      	str	r2, [r4, #0]
    43da:	001a      	movs	r2, r3
    43dc:	f7fd fc38 	bl	1c50 <_read>
    43e0:	1c43      	adds	r3, r0, #1
    43e2:	d103      	bne.n	43ec <_read_r+0x20>
    43e4:	6823      	ldr	r3, [r4, #0]
    43e6:	2b00      	cmp	r3, #0
    43e8:	d000      	beq.n	43ec <_read_r+0x20>
    43ea:	602b      	str	r3, [r5, #0]
    43ec:	bd70      	pop	{r4, r5, r6, pc}
    43ee:	46c0      	nop			; (mov r8, r8)
    43f0:	2000042c 	.word	0x2000042c
    43f4:	000a000a 	.word	0x000a000a
    43f8:	00140014 	.word	0x00140014
    43fc:	00000014 	.word	0x00000014
    4400:	000a017c 	.word	0x000a017c
    4404:	000a017c 	.word	0x000a017c
    4408:	00140186 	.word	0x00140186
    440c:	00140000 	.word	0x00140000
    4410:	0122000a 	.word	0x0122000a
    4414:	00140186 	.word	0x00140186
    4418:	01220190 	.word	0x01220190
    441c:	0122000a 	.word	0x0122000a
    4420:	012c0014 	.word	0x012c0014
    4424:	0122017c 	.word	0x0122017c
    4428:	012c0186 	.word	0x012c0186
    442c:	012c0014 	.word	0x012c0014
    4430:	0136017c 	.word	0x0136017c
    4434:	001e0000 	.word	0x001e0000
    4438:	00280032 	.word	0x00280032
    443c:	00320000 	.word	0x00320000
    4440:	003c0032 	.word	0x003c0032
    4444:	001e0050 	.word	0x001e0050
    4448:	00280118 	.word	0x00280118
    444c:	00280046 	.word	0x00280046
    4450:	00be0050 	.word	0x00be0050
    4454:	00be0050 	.word	0x00be0050
    4458:	00c80118 	.word	0x00c80118
    445c:	00280118 	.word	0x00280118
    4460:	00be0122 	.word	0x00be0122
    4464:	00460000 	.word	0x00460000
    4468:	00500032 	.word	0x00500032
    446c:	005a0000 	.word	0x005a0000
    4470:	00640032 	.word	0x00640032
    4474:	006e0000 	.word	0x006e0000
    4478:	00780032 	.word	0x00780032
    447c:	00820000 	.word	0x00820000
    4480:	008c0032 	.word	0x008c0032
    4484:	00960000 	.word	0x00960000
    4488:	00a00032 	.word	0x00a00032
    448c:	00aa0000 	.word	0x00aa0000
    4490:	00b40032 	.word	0x00b40032
    4494:	00be0000 	.word	0x00be0000
    4498:	00c80032 	.word	0x00c80032
    449c:	00c8012c 	.word	0x00c8012c
    44a0:	00d20172 	.word	0x00d20172
    44a4:	00dc001e 	.word	0x00dc001e
    44a8:	00e60172 	.word	0x00e60172
    44ac:	00f0001e 	.word	0x00f0001e
    44b0:	00fa0172 	.word	0x00fa0172
    44b4:	0104001e 	.word	0x0104001e
    44b8:	010e0172 	.word	0x010e0172
    44bc:	0118005a 	.word	0x0118005a
    44c0:	0122012c 	.word	0x0122012c
    44c4:	82be50b4 	.word	0x82be50b4
    44c8:	8cbe82aa 	.word	0x8cbe82aa
    44cc:	64963c8c 	.word	0x64963c8c
    44d0:	64dc3cd2 	.word	0x64dc3cd2
    44d4:	a08c9682 	.word	0xa08c9682
    44d8:	aadca08c 	.word	0xaadca08c
    44dc:	a0e696dc 	.word	0xa0e696dc
    44e0:	50f03c78 	.word	0x50f03c78
    44e4:	5a78466e 	.word	0x5a78466e
    44e8:	aaaa3c96 	.word	0xaaaa3c96
    44ec:	a0dc3cc8 	.word	0xa0dc3cc8
    44f0:	aae6a0d2 	.word	0xaae6a0d2
    44f4:	78696e55 	.word	0x78696e55
    44f8:	6f706520 	.word	0x6f706520
    44fc:	6d206863 	.word	0x6d206863
    4500:	73756e69 	.word	0x73756e69
    4504:	46783020 	.word	0x46783020
    4508:	61642046 	.word	0x61642046
    450c:	00007379 	.word	0x00007379
    4510:	355e3331 	.word	0x355e3331
    4514:	31202b20 	.word	0x31202b20
    4518:	20355e36 	.word	0x20355e36
    451c:	3731203d 	.word	0x3731203d
    4520:	0000355e 	.word	0x0000355e
    4524:	69746552 	.word	0x69746552
    4528:	616c7563 	.word	0x616c7563
    452c:	676e6974 	.word	0x676e6974
    4530:	6c705320 	.word	0x6c705320
    4534:	73656e69 	.word	0x73656e69
    4538:	00000000 	.word	0x00000000
    453c:	6c6f6956 	.word	0x6c6f6956
    4540:	65636e65 	.word	0x65636e65
    4544:	726f7720 	.word	0x726f7720
    4548:	0000736b 	.word	0x0000736b
    454c:	73626154 	.word	0x73626154
    4550:	00000021 	.word	0x00000021
    4554:	6c6c694b 	.word	0x6c6c694b
    4558:	6c694220 	.word	0x6c694220
    455c:	6e6f696c 	.word	0x6e6f696c
    4560:	65726961 	.word	0x65726961
    4564:	61282073 	.word	0x61282073
    4568:	5420646e 	.word	0x5420646e
    456c:	6c6c6972 	.word	0x6c6c6972
    4570:	616e6f69 	.word	0x616e6f69
    4574:	29657269 	.word	0x29657269
    4578:	00000000 	.word	0x00000000
    457c:	65746e49 	.word	0x65746e49
    4580:	74736572 	.word	0x74736572
    4584:	206e6920 	.word	0x206e6920
    4588:	68636574 	.word	0x68636574
    458c:	6f6c6f6e 	.word	0x6f6c6f6e
    4590:	69207967 	.word	0x69207967
    4594:	6f6e2073 	.word	0x6f6e2073
    4598:	20612074 	.word	0x20612074
    459c:	73726570 	.word	0x73726570
    45a0:	6c616e6f 	.word	0x6c616e6f
    45a4:	00797469 	.word	0x00797469
    45a8:	50203031 	.word	0x50203031
    45ac:	544e4952 	.word	0x544e4952
    45b0:	52484320 	.word	0x52484320
    45b4:	30322824 	.word	0x30322824
    45b8:	2b352e35 	.word	0x2b352e35
    45bc:	28444e52 	.word	0x28444e52
    45c0:	3b292931 	.word	0x3b292931
    45c4:	47203a20 	.word	0x47203a20
    45c8:	204f544f 	.word	0x204f544f
    45cc:	00003031 	.word	0x00003031
    45d0:	67206f4e 	.word	0x67206f4e
    45d4:	2e73646f 	.word	0x2e73646f
    45d8:	206f4e20 	.word	0x206f4e20
    45dc:	7473616d 	.word	0x7473616d
    45e0:	2e737265 	.word	0x2e737265
    45e4:	206f4e20 	.word	0x206f4e20
    45e8:	65747865 	.word	0x65747865
    45ec:	6c616e72 	.word	0x6c616e72
    45f0:	62696c20 	.word	0x62696c20
    45f4:	69726172 	.word	0x69726172
    45f8:	002e7365 	.word	0x002e7365
    45fc:	63617053 	.word	0x63617053
    4600:	00217365 	.word	0x00217365
    4604:	6e616954 	.word	0x6e616954
    4608:	656d6e61 	.word	0x656d6e61
    460c:	7153206e 	.word	0x7153206e
    4610:	65726175 	.word	0x65726175
    4614:	38393120 	.word	0x38393120
    4618:	00000039 	.word	0x00000039
    461c:	72656d41 	.word	0x72656d41
    4620:	20616369 	.word	0x20616369
    4624:	20736177 	.word	0x20736177
    4628:	6e756f66 	.word	0x6e756f66
    462c:	20646564 	.word	0x20646564
    4630:	73206e6f 	.word	0x73206e6f
    4634:	6576616c 	.word	0x6576616c
    4638:	00007972 	.word	0x00007972
    463c:	72656854 	.word	0x72656854
    4640:	73692065 	.word	0x73692065
    4644:	6c6e6f20 	.word	0x6c6e6f20
    4648:	61632079 	.word	0x61632079
    464c:	61746970 	.word	0x61746970
    4650:	6e61206c 	.word	0x6e61206c
    4654:	616c2064 	.word	0x616c2064
    4658:	00726f62 	.word	0x00726f62
    465c:	6f636e45 	.word	0x6f636e45
    4660:	67617275 	.word	0x67617275
    4664:	79732065 	.word	0x79732065
    4668:	74656d6d 	.word	0x74656d6d
    466c:	20636972 	.word	0x20636972
    4670:	73616c63 	.word	0x73616c63
    4674:	61772073 	.word	0x61772073
    4678:	72616672 	.word	0x72616672
    467c:	00000065 	.word	0x00000065
    4680:	52554324 	.word	0x52554324
    4684:	544e4552 	.word	0x544e4552
    4688:	4d454d5f 	.word	0x4d454d5f
    468c:	00000045 	.word	0x00000045
    4690:	694e2041 	.word	0x694e2041
    4694:	54206563 	.word	0x54206563
    4698:	00005954 	.word	0x00005954
    469c:	6e617254 	.word	0x6e617254
    46a0:	69722073 	.word	0x69722073
    46a4:	73746867 	.word	0x73746867
    46a8:	65726120 	.word	0x65726120
    46ac:	6d756820 	.word	0x6d756820
    46b0:	72206e61 	.word	0x72206e61
    46b4:	74686769 	.word	0x74686769
    46b8:	00000073 	.word	0x00000073
    46bc:	3d202069 	.word	0x3d202069
    46c0:	35783020 	.word	0x35783020
    46c4:	35373366 	.word	0x35373366
    46c8:	20666439 	.word	0x20666439
    46cc:	2028202d 	.word	0x2028202d
    46d0:	3e3e2069 	.word	0x3e3e2069
    46d4:	29203120 	.word	0x29203120
    46d8:	0000003b 	.word	0x0000003b
    46dc:	42414341 	.word	0x42414341
    46e0:	00000000 	.word	0x00000000
    46e4:	63666544 	.word	0x63666544
    46e8:	73276e6f 	.word	0x73276e6f
    46ec:	6e616320 	.word	0x6e616320
    46f0:	656c6563 	.word	0x656c6563
    46f4:	00002e64 	.word	0x00002e64
    46f8:	73746152 	.word	0x73746152
    46fc:	7473656e 	.word	0x7473656e
    4700:	6f4e203a 	.word	0x6f4e203a
    4704:	6e696874 	.word	0x6e696874
    4708:	6f542067 	.word	0x6f542067
    470c:	216f4420 	.word	0x216f4420
    4710:	00000000 	.word	0x00000000
    4714:	68207449 	.word	0x68207449
    4718:	36207361 	.word	0x36207361
    471c:	656b2039 	.word	0x656b2039
    4720:	002e7379 	.word	0x002e7379
    4724:	61636542 	.word	0x61636542
    4728:	20657375 	.word	0x20657375
    472c:	342d5456 	.word	0x342d5456
    4730:	77203032 	.word	0x77203032
    4734:	61207361 	.word	0x61207361
    4738:	6165726c 	.word	0x6165726c
    473c:	74207964 	.word	0x74207964
    4740:	6e656b61 	.word	0x6e656b61
    4744:	00000000 	.word	0x00000000
    4748:	706d6f43 	.word	0x706d6f43
    474c:	73736572 	.word	0x73736572
    4750:	206e6f69 	.word	0x206e6f69
    4754:	6f676c61 	.word	0x6f676c61
    4758:	68746972 	.word	0x68746972
    475c:	6162206d 	.word	0x6162206d
    4760:	20646573 	.word	0x20646573
    4764:	42206e6f 	.word	0x42206e6f
    4768:	28205042 	.word	0x28205042
    476c:	37393931 	.word	0x37393931
    4770:	00000029 	.word	0x00000029
    4774:	20656854 	.word	0x20656854
    4778:	72756f73 	.word	0x72756f73
    477c:	6f206563 	.word	0x6f206563
    4780:	68742066 	.word	0x68742066
    4784:	694d2065 	.word	0x694d2065
    4788:	73697373 	.word	0x73697373
    478c:	70706973 	.word	0x70706973
    4790:	69722069 	.word	0x69722069
    4794:	20726576 	.word	0x20726576
    4798:	69207369 	.word	0x69207369
    479c:	6550206e 	.word	0x6550206e
    47a0:	79736e6e 	.word	0x79736e6e
    47a4:	6e61766c 	.word	0x6e61766c
    47a8:	002e6169 	.word	0x002e6169
    47ac:	6566664f 	.word	0x6566664f
    47b0:	7669736e 	.word	0x7669736e
    47b4:	61682065 	.word	0x61682065
    47b8:	61776472 	.word	0x61776472
    47bc:	00006572 	.word	0x00006572
    47c0:	6c6c6f46 	.word	0x6c6c6f46
    47c4:	5720776f 	.word	0x5720776f
    47c8:	646c726f 	.word	0x646c726f
    47cc:	676f5020 	.word	0x676f5020
    47d0:	64654620 	.word	0x64654620
    47d4:	74617265 	.word	0x74617265
    47d8:	206e6f69 	.word	0x206e6f69
    47dc:	40202020 	.word	0x40202020
    47e0:	6c726f57 	.word	0x6c726f57
    47e4:	676f5064 	.word	0x676f5064
    47e8:	00000000 	.word	0x00000000
    47ec:	6d6d7544 	.word	0x6d6d7544
    47f0:	68742079 	.word	0x68742079
    47f4:	20636369 	.word	0x20636369
    47f8:	65696c63 	.word	0x65696c63
    47fc:	0000746e 	.word	0x0000746e
    4800:	694e2041 	.word	0x694e2041
    4804:	54206563 	.word	0x54206563
    4808:	202e5954 	.word	0x202e5954
    480c:	4f206e41 	.word	0x4f206e41
    4810:	6f43204b 	.word	0x6f43204b
    4814:	7475706d 	.word	0x7475706d
    4818:	002e7265 	.word	0x002e7265
    481c:	41632049 	.word	0x41632049
    4820:	704f206e 	.word	0x704f206e
    4824:	41206e45 	.word	0x41206e45
    4828:	436f4c20 	.word	0x436f4c20
    482c:	6957206b 	.word	0x6957206b
    4830:	41206854 	.word	0x41206854
    4834:	644f7320 	.word	0x644f7320
    4838:	41632041 	.word	0x41632041
    483c:	0000006e 	.word	0x0000006e
    4840:	696c6f53 	.word	0x696c6f53
    4844:	69726164 	.word	0x69726164
    4848:	69207974 	.word	0x69207974
    484c:	6f6e2073 	.word	0x6f6e2073
    4850:	20612074 	.word	0x20612074
    4854:	2077656e 	.word	0x2077656e
    4858:	6d617266 	.word	0x6d617266
    485c:	726f7765 	.word	0x726f7765
    4860:	0000006b 	.word	0x0000006b
    4864:	61657242 	.word	0x61657242
    4868:	616f6264 	.word	0x616f6264
    486c:	6e696472 	.word	0x6e696472
    4870:	73492067 	.word	0x73492067
    4874:	746f4e20 	.word	0x746f4e20
    4878:	43204120 	.word	0x43204120
    487c:	656d6972 	.word	0x656d6972
    4880:	00000000 	.word	0x00000000
    4884:	2066664f 	.word	0x2066664f
    4888:	6f207962 	.word	0x6f207962
    488c:	6520656e 	.word	0x6520656e
    4890:	726f7272 	.word	0x726f7272
    4894:	72612073 	.word	0x72612073
    4898:	6f632065 	.word	0x6f632065
    489c:	6e6f6d6d 	.word	0x6e6f6d6d
    48a0:	00000000 	.word	0x00000000
    48a4:	000006e2 	.word	0x000006e2
    48a8:	0000092e 	.word	0x0000092e
    48ac:	0000092e 	.word	0x0000092e
    48b0:	0000092e 	.word	0x0000092e
    48b4:	0000092e 	.word	0x0000092e
    48b8:	0000092e 	.word	0x0000092e
    48bc:	0000092e 	.word	0x0000092e
    48c0:	0000092e 	.word	0x0000092e
    48c4:	0000092e 	.word	0x0000092e
    48c8:	0000092e 	.word	0x0000092e
    48cc:	0000092e 	.word	0x0000092e
    48d0:	0000092e 	.word	0x0000092e
    48d4:	0000092e 	.word	0x0000092e
    48d8:	0000092e 	.word	0x0000092e
    48dc:	0000092e 	.word	0x0000092e
    48e0:	0000092e 	.word	0x0000092e
    48e4:	000006ca 	.word	0x000006ca
    48e8:	0000092e 	.word	0x0000092e
    48ec:	0000092e 	.word	0x0000092e
    48f0:	0000092e 	.word	0x0000092e
    48f4:	0000092e 	.word	0x0000092e
    48f8:	0000092e 	.word	0x0000092e
    48fc:	0000092e 	.word	0x0000092e
    4900:	0000092e 	.word	0x0000092e
    4904:	0000092e 	.word	0x0000092e
    4908:	0000092e 	.word	0x0000092e
    490c:	0000092e 	.word	0x0000092e
    4910:	0000092e 	.word	0x0000092e
    4914:	0000092e 	.word	0x0000092e
    4918:	0000092e 	.word	0x0000092e
    491c:	0000092e 	.word	0x0000092e
    4920:	0000092e 	.word	0x0000092e
    4924:	000006da 	.word	0x000006da
    4928:	0000092e 	.word	0x0000092e
    492c:	0000092e 	.word	0x0000092e
    4930:	0000092e 	.word	0x0000092e
    4934:	0000092e 	.word	0x0000092e
    4938:	0000092e 	.word	0x0000092e
    493c:	0000092e 	.word	0x0000092e
    4940:	0000092e 	.word	0x0000092e
    4944:	0000092e 	.word	0x0000092e
    4948:	0000092e 	.word	0x0000092e
    494c:	0000092e 	.word	0x0000092e
    4950:	0000092e 	.word	0x0000092e
    4954:	0000092e 	.word	0x0000092e
    4958:	0000092e 	.word	0x0000092e
    495c:	0000092e 	.word	0x0000092e
    4960:	0000092e 	.word	0x0000092e
    4964:	000006d2 	.word	0x000006d2
    4968:	000006ea 	.word	0x000006ea
    496c:	000006b2 	.word	0x000006b2
    4970:	000006c2 	.word	0x000006c2
    4974:	000006ba 	.word	0x000006ba
    4978:	00000002 	.word	0x00000002
    497c:	00000003 	.word	0x00000003
    4980:	00000028 	.word	0x00000028
    4984:	00000029 	.word	0x00000029
    4988:	00000004 	.word	0x00000004
    498c:	00000005 	.word	0x00000005
    4990:	00000006 	.word	0x00000006
    4994:	00000007 	.word	0x00000007
    4998:	00000020 	.word	0x00000020
    499c:	00000021 	.word	0x00000021
    49a0:	00000022 	.word	0x00000022
    49a4:	00000023 	.word	0x00000023
    49a8:	00000024 	.word	0x00000024
    49ac:	00000025 	.word	0x00000025
    49b0:	00000026 	.word	0x00000026
    49b4:	00000027 	.word	0x00000027
    49b8:	00000008 	.word	0x00000008
    49bc:	00000009 	.word	0x00000009
    49c0:	0000000a 	.word	0x0000000a
    49c4:	0000000b 	.word	0x0000000b
    49c8:	42000800 	.word	0x42000800
    49cc:	42000c00 	.word	0x42000c00
    49d0:	42001000 	.word	0x42001000
    49d4:	42001400 	.word	0x42001400
    49d8:	42001800 	.word	0x42001800
    49dc:	42001c00 	.word	0x42001c00
    49e0:	000013de 	.word	0x000013de
    49e4:	000013da 	.word	0x000013da
    49e8:	000013da 	.word	0x000013da
    49ec:	00001440 	.word	0x00001440
    49f0:	00001440 	.word	0x00001440
    49f4:	000013f2 	.word	0x000013f2
    49f8:	000013e4 	.word	0x000013e4
    49fc:	000013f8 	.word	0x000013f8
    4a00:	0000142e 	.word	0x0000142e
    4a04:	00001600 	.word	0x00001600
    4a08:	000015e0 	.word	0x000015e0
    4a0c:	000015e0 	.word	0x000015e0
    4a10:	0000166c 	.word	0x0000166c
    4a14:	000015f2 	.word	0x000015f2
    4a18:	0000160e 	.word	0x0000160e
    4a1c:	000015e4 	.word	0x000015e4
    4a20:	0000161c 	.word	0x0000161c
    4a24:	0000165c 	.word	0x0000165c

00004a28 <CodePage437>:
	...
    4d60:	01000000 06186080 18608001 60800106     .....`....`....`
    4d70:	80010000 00000060 00000000 66986106     ....`........a.f
    4d80:	98618619 00000000 00000000 00000000     ..a.............
    4d90:	00000000 98610600 fb8f1966 8f1966fe     ......a.f....f..
    4da0:	1966fefb 00986186 00000000 80010000     ..f..a..........
    4db0:	891f7e60 1f7e6082 7e649081 6080811f     `~...`~...d~...`
    4dc0:	00000000 04000000 29a60823 1820c106     ........#..).. .
    4dd0:	98200304 324c1165 00000008 00000000     .. .e.L2........
    4de0:	84e08107 10420821 5a081e78 87208216     ....!.B.x..Z.. .
    4df0:	0000f6d9 00000000 30c00000 00030618     ...........0....
    4e00:	000000c0 00000000 00000000 00000000     ................
    4e10:	40000000 03020810 0c30c000 08c00003     ...@......0.....
    4e20:	10400002 00000000 01000000 02084000     ..@..........@..
    4e30:	06186000 18608001 00010208 00000040     .`....`.....@...
    4e40:	00000000 42000000 90408210 40c23fff     .......B..@..?.@
    4e50:	80104290 00000000 00000000 00000000     .B..............
    4e60:	80000208 e0bfff20 02082080 00000000     .... .... ......
	...
    4e80:	18000000 c0000306 00001040 00000000     ........@.......
    4e90:	00000000 ff000000 0000e0bf 00000000     ................
	...
    4eb4:	030e3800 0000e080 00000000 08200000     .8............ .
    4ec4:	80000104 02041020 10408000 00000208     .... .....@.....
    4ed4:	00000000 e0030000 cc1863f8 b0c1061b     .........c......
    4ee4:	63061b6c f8e0c318 00000000 00000000     l..c............
    4ef4:	1b3c70c0 0c30c004 30c00003 e107030c     .p<...0....0....
    4f04:	000000f8 00000000 c1f8e107 061860b0     .............`..
    4f14:	0187030e 0f30c0c0 0000fefb 00000000     ......0.........
    4f24:	fefb0f00 60c00003 80030e30 b0810618     .......`0.......
    4f34:	00f8e167 00000000 40000000 03070c30     g..........@0...
    4f44:	31649040 04fefb0f 10400001 00000000     @.d1......@.....
    4f54:	0f000000 30c0fefb c1f8e30f 061860b0     .......0.....`..
    4f64:	e167a081 000000f8 00000000 60f8e003     ..g............`
    4f74:	00030c18 1b8c3ffe 67b0c106 0000f8e1     .....?.....g....
    4f84:	00000000 fefb0f00 20608001 00010408     ..........` ....
    4f94:	0c302080 00c00003 00000000 e0030000     . 0.............
    4fa4:	6cb0c1f8 0f3e061b c1061b8c f8e063b0     ...l..>......c..
    4fb4:	00000000 07000000 b0c1f8e1 7d0e3b6c     ............l;.}
    4fc4:	0618609f e1c70003 000000f0 00000000     .`..............
    4fd4:	38000000 e080030e 00000000 030e3800     ...8.........8..
    4fe4:	0000e080 00000000 00000000 80030e38     ............8...
    4ff4:	000000e0 0e380000 40c00003 00000010     ......8....@....
    5004:	30000000 03030c0c 30c0c000 0cc00003     ...0.......0....
    5014:	0c300003 00000000 00000000 00000000     ..0.............
    5024:	00fefb0f fefb0f00 00000000 00000000     ................
    5034:	00000000 3000030c 30c0000c c0c00003     .......0...0....
    5044:	0c0c3030 00000003 00000000 f8e10700     00..............
    5054:	6060b0c1 01061818 00006080 00608001     ..``.....`....`.
    5064:	00000000 e1070000 6cb0c1f8 b4d33edb     ...........l.>..
    5074:	c036fbec f8e10730 00000000 00000000     ..6.0...........
    5084:	0d367080 c18c3186 fefb6fb0 1b6cb0c1     .p6..1...o....l.
    5094:	00000006 00000000 61f8e30f 86196698     ...........a.f..
    50a4:	19861f7e 6f986186 0000f8e3 00000000     ~....a.o........
    50b4:	f8e00300 036c9861 0c30c000 98610003     ....a.l...0...a.
    50c4:	00f8e063 00000000 c30f0000 861966f0     c............f..
    50d4:	98618631 668c1966 f0c38f19 00000000     1.a.f..f........
    50e4:	0f000000 30c0fefb fc00030c 00030c3f     .......0....?...
    50f4:	fb0f30c0 000000fe 00000000 c0fefb0f     .0..............
    5104:	00030c30 030c3ffc 0c30c000 00000003     0....?....0.....
    5114:	00000000 f8e00300 036c9861 0c30c000     ........a.l...0.
    5124:	98611e7b 00f8e063 00000000 1b0c0000     {.a.c...........
    5134:	6cb0c106 bfff061b c1061bec 061b6cb0     ...l.........l..
    5144:	00000000 07000000 0618f8e1 18608001     ..............`.
    5154:	60800106 e1070618 000000f8 00000000     ...`............
    5164:	067ef801 18608001 60800106 8731c618     ..~...`....`..1.
    5174:	0000f0c1 00000000 061b0c00 838d31c6     .............1..
    5184:	0d38e060 31c66083 00061b8c 00000000     `.8..`.1........
    5194:	030c0000 0c30c000 30c00003 c000030c     ......0....0....
    51a4:	fefb0f30 00000000 0c000000 bde38e1b     0...............
    51b4:	c976dbed 061b6cb2 1b6cb0c1 00000006     ..v..l....l.....
    51c4:	00000000 e1861b0c 661b6dbc 5b6cb3c9     .........m.f..l[
    51d4:	ecb0c31e 0000061b 00000000 f8e00300     ................
    51e4:	1b6cb0e3 6cb0c106 b8c1061b 00f8e0e3     ..l....l........
    51f4:	00000000 e30f0000 6cb0c1f8 3ffe061b     ...........l...?
    5204:	c000038c 00030c30 00000000 07000000     ....0...........
    5214:	b0c1f8e1 c1061b6c 36db6cb0 d98731c6     ....l....l.6.1..
    5224:	000000f6 00000000 c1f8e30f 061b6cb0     .............l..
    5234:	638c3ffe cc30c318 0000061b 00000000     .?.c..0.........
    5244:	f8e10700 036cb0c1 801f7e00 b0c10618     ......l..~......
    5254:	00f8e167 00000000 fb0f0000 000208fe     g...............
    5264:	02082080 08208000 20800002 00000000     . .... .... ....
    5274:	0c000000 b0c1061b c1061b6c 061b6cb0     ........l....l..
    5284:	e063b0c1 000000f8 00000000 c1061b0c     ..c.............
    5294:	8c3166b0 60c31863 810d36d8 000020c0     .f1.c..`.6... ..
    52a4:	00000000 061b0c00 1b6cb0c1 6db2c906     ..........l....m
    52b4:	b5d576db 008c796f 00000000 1b0c0000     .v..oy..........
    52c4:	c3186306 060cf860 63d8e003 061bcc18     .c..`......c....
    52d4:	00000000 0c000000 1863061b 1cd860c3     ..........c..`..
    52e4:	20c00107 80000208 00000020 00000000     ... .... .......
    52f4:	03fefb0f 1060c000 0103060c 0f30c0c0     ......`.......0.
    5304:	0000fefb 00000000 f8e00300 00030c30     ............0...
    5314:	030c30c0 0c30c000 00f8e003 00000000     .0....0.........
    5324:	01060000 010c3080 030c6080 03186000     .....0...`...`..
    5334:	0618c000 00000000 07000000 030cf0c1     ................
    5344:	0c30c000 30c00003 c107030c 000000f0     ..0....0........
    5354:	00000000 36708000 8c31860d 0060b0c1     ......p6..1...`.
	...
    5380:	00fefb0f 00000000 80030000 00030ce0     ................
    5390:	00001860 00000000 00000000 00000000     `...............
	...
    53a8:	01fcf003 fef86380 f823b0c0 000000fe     .....c....#.....
    53b8:	00000000 c000030c fcf30d30 0b6cb8e1     ........0.....l.
    53c8:	6fb8e102 00007cf3 00000000 00000000     ...o.|..........
    53d8:	e1070000 6cb0c1f8 30c00003 00fef907     .......l...0....
    53e8:	00000000 18000000 67800106 b0c3f6d9     ...........g....
    53f8:	c3061bec f6d9e7b0 00000000 00000000     ................
    5408:	00000000 c1f8e107 fefb6fb0 f10730c0     .........o...0..
    5418:	000000fc 00000000 3138e000 c000638c     ..........81.c..
    5428:	00033ffc 030c30c0 0000c000 00000000     .?...0..........
    5438:	00000000 d9070000 8731c6f6 30c0f0c1     ..........1....0
    5448:	c3f8e107 f8e1e7b0 030c0000 0d30c000     ..............0.
    5458:	b8e178e3 c1061b6c 061b6cb0 00000000     .x..l....l......
    5468:	01000000 00006080 18e08003 60800106     .....`.........`
    5478:	e1070618 000000f8 00000000 00186000     .............`..
    5488:	18600000 60800106 8c010618 31c61863     ..`....`....c..1
    5498:	00f0c187 00030c00 638c30c0 0f36cc30     .........0.c0.6.
    54a8:	33ccc083 000c330c 00000000 c0030000     ...3.3..........
    54b8:	00030cf0 030c30c0 0c30c000 f8e00303     .....0....0.....
	...
    54d4:	e70c330c 669b6dbf 1b6cb0c1 00000006     .3...m.f..l.....
	...
    54ec:	f8e20b00 1b6cb8e1 6cb0c106 0000061b     ......l....l....
	...
    5504:	e1070000 cc30c3f8 30c30c33 00f8e1c7     ......0.3..0....
	...
    551c:	0b000000 b0c1f8e2 be061b6c 0002882f     ........l.../...
    552c:	02082080 00000000 00000000 c1fae803     . ..............
    553c:	061b6cb0 08a08f3e 20800002 00000208     .l..>...... ....
    554c:	00000000 7ce20800 036cbcf1 0c30c000     .......|..l...0.
    555c:	00000003 00000000 00000000 e1070000     ................
    556c:	0730c0f8 8001f8e1 00f8e36f 00000000     ..0.....o.......
    557c:	00030000 0f0c30c0 0c30f8e3 33c00003     .....0....0....3
    558c:	30c0c00c 00000000 00000000 00000000     ...0............
    559c:	c30c330c 0c33cc30 d9c730c3 000000f6     .3..0.3..0......
	...
    55b4:	02020000 30e6b8c1 01073ed8 000020c0     .......0.>... ..
	...
    55cc:	1b0c0000 6cb0c106 b5d5769b 008c3166     .......l.v..f1..
	...
    55e4:	08000000 1b441823 6ce08003 08620c11     ....#.D....l..b.
	...
    5600:	c618630c 18638c31 60801f7e 873bc618     .c..1.c.~..`..;.
    5610:	0000f0c1 00000000 fefb0f00 c0c00003     ................
    5620:	0f0c3030 0000fefb 00000000 1e780000     00............x.
    5630:	40000208 000e3810 02081040 001e7800     ...@.8..@....x..
    5640:	00000000 80010000 01061860 06186080     ........`....`..
    5650:	18608001 60800106 00000000 0f000000     ..`....`........
    5660:	0208c003 0cc00003 c0000303 030f0208     ................
    5670:	000000c0 00000000 d9c61907 1c736cb3     .............ls.
	...
    56a8:	e0030000 6c9861f8 30c00003 6100030c     .....a.l...0...a
    56b8:	f8e06398 00000608 00000000 00669801     .c............f.
    56c8:	c30c330c 0c33cc30 d9c730c3 000000f6     .3..0.3..0......
    56d8:	00000000 0c180000 f8e10700 fb6fb0c1     ..............o.
    56e8:	0730c0fe 0000fcf1 00000000 10000000     ..0.............
    56f8:	f003000a 638001fc b0c0fef8 00fef823     .......c....#...
	...
    5710:	030033cc 8001fcf0 c0fef863 fef823b0     .3......c....#..
	...
    5728:	000c6000 01fcf003 fef86380 f823b0c0     .`.......c....#.
    5738:	000000fe 03000000 0c482001 fcf00300     ......... H.....
    5748:	f8638001 23b0c0fe 0000fef8 00000000     ..c....#........
    5758:	00000000 e1070000 6cb0c1f8 30c00003     ...........l...0
    5768:	04fef907 00000003 00000000 07001420     ............ ...
    5778:	b0c1f8e1 c0fefb6f fcf10730 00000000     ....o...0.......
    5788:	00000000 00669801 c1f8e107 fefb6fb0     ......f......o..
    5798:	f10730c0 000000fc 00000000 18c00000     .0..............
    57a8:	f8e10700 fb6fb0c1 0730c0fe 0000fcf1     ......o...0.....
    57b8:	00000000 98610600 80030000 010618e0     ......a.........
    57c8:	06186080 00f8e107 00000000 00000000     .`..............
    57d8:	03002840 0618e080 18608001 f8e10706     @(........`.....
	...
    57f0:	0018c000 18e08003 60800106 e1070618     ...........`....
    5800:	000000f8 18630000 367080c0 8c31860d     ......c...p6..1.
    5810:	fb6fb0c1 6cb0c1fe 0000061b 1c000000     ..o....l........
    5820:	70c08108 31860d36 6fb0c18c b0c1fefb     ...p6..1...o....
    5830:	00061b6c 00000000 fb0f0606 0c30c0fe     l.............0.
    5840:	3ffc0003 c000030c fefb0f30 00000000     ...?....0.......
	...
    5858:	1dfe7907 fedb2786 f90733cc 000000ee     .y...'...3......
    5868:	00000000 367ef800 9861860d e3efb1c7     ......~6..a.....
    5878:	8c31c6f8 00001e7b 00000000 20000000     ..1.{.......... 
    5888:	e1070014 cc30c3f8 30c30c33 00f8e1c7     ......0.3..0....
    5898:	00000000 01000000 07006698 30c3f8e1     .........f.....0
    58a8:	c30c33cc f8e1c730 00000000 00000000     .3..0...........
    58b8:	0018c000 c3f8e107 0c33cc30 e1c730c3     ........0.3..0..
    58c8:	000000f8 00000000 14200000 0c330c00     .......... ...3.
    58d8:	33cc30c3 c730c30c 0000f6d9 00000000     .0.3..0.........
    58e8:	60000000 330c000c cc30c30c 30c30c33     ...`...3..0.3..0
    58f8:	00f6d9c7 00000000 01000000 0c006698     .............f..
    5908:	31c61863 7e18638c 1860801f c1873bc6     c..1.c.~..`..;..
    5918:	800d36f0 383ef800 c1061bec 061b6cb0     .6....>8.....l..
    5928:	e0e3b8c1 000000f8 0c330000 c10603c0     ..........3.....
    5938:	061b6cb0 1b6cb0c1 63b0c106 0000f8e0     .l....l....c....
    5948:	00000000 20800002 1b8c1f7e 0c32c826     ....... ~...&.2.
    5958:	1f7e069b 08208080 00000000 c0010000     ..~... .........
    5968:	461873f8 3e608001 6080810f fefb0f18     .s.F..`>...`....
    5978:	00000000 0c000000 08630419 1c506083     ..........c..`P.
    5988:	20e00302 80800f08 00000020 00000000     ... .... .......
    5998:	c1f8e30f f81b6cb0 830d30fe 0d36d878     .....l...0..x.6.
    59a8:	000038e3 00000000 3ce00000 98638e3f     .8.........<?.c.
    59b8:	833ffee0 1c70c000 60800106 00000018     ..?...p....`....
    59c8:	00000000 03000c18 8001fcf0 c0fef863     ............c...
    59d8:	fef823b0 00000000 00000000 000060c0     .#...........`..
    59e8:	18e08003 60800106 e1070618 000000f8     .......`........
    59f8:	00000000 18300000 f8e10700 33cc30c3     ......0......0.3
    5a08:	c730c30c 0000f8e1 00000000 30000000     ..0............0
    5a18:	330c0018 cc30c30c 30c30c33 00f6d9c7     ...3..0.3..0....
	...
    5a30:	0b001998 b8e1f8e2 c1061b6c 061b6cb0     ........l....l..
    5a40:	00000000 8c0c4c00 b8e1061b c9461b6d     .....L......m.F.
    5a50:	165b6cb2 1becb0c3 00000006 00000000     .l[.............
    5a60:	1e08c003 00e08308 000080ff 00000000     ................
	...
    5a78:	d8c00100 c0810d22 0080ff00 00000000     ...."...........
	...
    5a94:	00030c00 030c0000 3030c000 061b0c0c     ..........00....
    5aa4:	00c00f3f 00000000 00000000 ff000000     ?...............
    5ab4:	0003ecbf 00000000 00000000 00000000     ................
	...
    5acc:	18e0bfff 00000006 00000000 00000000     ................
    5adc:	30c00003 c000030c e0bfff00 0c1f3800     ...0.........8..
    5aec:	183060c0 0000c00f c0000300 00030c30     .`0.........0...
    5afc:	bfff00c0 668001e0 fc618619 60800106     .......f..a....`
    5b0c:	00000000 06180000 18000000 60800106     ...............`
    5b1c:	80010618 00061860 00000000 00000000     ....`...........
    5b2c:	90200100 80042448 00001290 00000000     .. .H$..........
	...
    5b44:	40020000 20010948 00244890 00000000     ...@H.. .H$.....
    5b54:	00000000 48024092 09004900 80240024     .....@.H.I..$.$.
    5b64:	92009004 00480240 24090049 42529200     ....@.H.I..$..RB
    5b74:	0949494a 24242529 929094a4 4a425292     JII.)%$$.....RBJ
    5b84:	29094949 ad6d2425 b6b6b5bd dbdad6f6     II.)%$m.........
    5b94:	6f6b5bdb bdad6d6d f6b6b6b5 08dbdad6     .[komm..........
    5ba4:	20800002 80000208 00020820 02082080     ... .... .... ..
    5bb4:	08208000 20800002 80000208 00020820     .. .... .... ...
    5bc4:	3e082080 08208000 20800002 80000208     . .>.. .... ....
    5bd4:	00020820 02082080 f8208000 20800f02      .... .... .... 
    5be4:	80000208 00020820 05142080 14504001     .... .... ...@P.
    5bf4:	50400105 40013d14 01051450 05145040     ..@P.=.@P...@P..
    5c04:	00504001 00000000 00000000 013f0000     .@P...........?.
    5c14:	05145040 14504001 50400105 00000000     @P...@P...@P....
    5c24:	00000000 02f80000 0820800f 20800002     .......... .... 
    5c34:	80000208 01051420 05145040 f4504001     .... ...@P...@P.
    5c44:	50400f01 40010514 01051450 05145040     ..@P...@P...@P..
    5c54:	14504001 50400105 40010514 01051450     .@P...@P...@P...
    5c64:	05145040 00504001 00000000 00000000     @P...@P.........
    5c74:	0f01fc00 05145040 14504001 50400105     ....@P...@P...@P
    5c84:	40010514 01051450 01f45040 0000c00f     ...@P...@P......
	...
    5c9c:	01051400 05145040 14504001 0000003f     ....@P...@P.?...
	...
    5cb4:	02080000 08208000 20800002 800f02f8     ...... .... ....
	...
    5cd8:	003e0000 02082080 08208000 20800002     ..>.. .... .... 
    5ce8:	80000208 00020820 03082080 000000f0     .... .... ......
	...
    5d00:	00020800 02082080 08208000 0000f03f     ..... .... .?...
	...
    5d24:	80f03f00 00020820 02082080 08208000     .?.. .... .... .
    5d34:	20800002 80000208 f0030820 02082080     ... .... .... ..
    5d44:	08208000 20800002 00000000 00000000     .. .... ........
    5d54:	3f000000 000000f0 00000000 00000000     ...?............
    5d64:	00020800 02082080 08208000 2080f03f     ..... .... .?.. 
    5d74:	80000208 00020820 02082080 08208000     .... .... .... .
    5d84:	20800002 fc00c20f 00020820 02082080     ... .... .... ..
    5d94:	14208000 50400105 40010514 f1051450     .. ...@P...@P...
    5da4:	05145040 14504001 50400105 40010514     @P...@P...@P...@
    5db4:	01051450 c4175040 0000fc01 00000000     P...@P..........
	...
    5dd0:	1f000000 507c01c4 40010514 01051450     ......|P...@P...
    5de0:	05145040 14504001 50400105 fc0fc0f7     @P...@P...@P....
	...
    5e04:	0fc0ff00 0514507c 14504001 50400105     ....|P...@P...@P
    5e14:	40010514 01051450 c4175040 14507c01     ...@P...@P...|P.
    5e24:	50400105 40010514 00000050 00000000     ..@P...@P.......
    5e34:	ff000000 00fc0fc0 00000000 00000000     ................
    5e44:	05140000 14504001 50400105 7c0fc0f7     .....@P...@P...|
    5e54:	01051450 05145040 08504001 20800002     P...@P...@P.... 
    5e64:	80000208 0fc0ff20 000000fc 00000000     .... ...........
    5e74:	00000000 40010514 01051450 3f145040     .......@P...@P.?
    5e84:	000000f0 00000000 00000000 00000000     ................
    5e94:	00000000 ff000000 20fc0fc0 80000208     ........... ....
    5ea4:	00020820 00002080 00000000 00000000      .... ..........
    5eb4:	40f13f00 01051450 05145040 14504001     .?.@P...@P...@P.
    5ec4:	50400105 40010514 f0071450 00000000     ..@P...@P.......
	...
    5edc:	80000208 00020820 c20f2080 0000fc00     .... .... ......
	...
    5efc:	0f000000 20fc00c2 80000208 00020820     ....... .... ...
    5f0c:	00002080 00000000 00000000 40f10700     . .............@
    5f1c:	01051450 05145040 14504001 50400105     P...@P...@P...@P
    5f2c:	40010514 f13f1450 05145040 14504001     ...@P.?.@P...@P.
    5f3c:	50400105 80000208 00020820 c2ff2080     ..@P.... .... ..
    5f4c:	0820fc0f 20800002 80000208 00020820     .. .... .... ...
    5f5c:	02082080 08208000 0000003e 00000000     . .... .>.......
	...
    5f7c:	80f00300 00020820 02082080 ff208000     .... .... .... .
    5f8c:	ffffffff ffffffff ffffffff ffffffff     ................
    5f9c:	ffffffff ffffffff 00000000 00000000     ................
    5fac:	3f000000 ffffffff ffffffff ffffffff     ...?............
    5fbc:	0f3ef8ff 3ef8e083 f8e0830f e0830f3e     ..>....>....>...
    5fcc:	830f3ef8 0f3ef8e0 c30fe083 0f3ffcf0     .>....>.......?.
    5fdc:	3ffcf0c3 fcf0c30f f0c30f3f c30f3ffc     ...?....?....?..
    5fec:	ff3ffcf0 ffffffff ffffffff f0ffffff     ..?.............
	...
    6010:	8f380000 c208234c e2d08330 00000000     ..8.L#..0.......
    6020:	00000000 193c0000 7c982186 8c61061f     ......<..!.|..a.
    6030:	63c61861 000000f8 00000000 ff000000     a..c............
    6040:	8c31c61f 01061863 06186080 0000c003     ..1.c....`......
	...
    605c:	c69fff00 18638c31 008e33c6 00000000     ....1.c..3......
    606c:	fb0f0000 06b080fe 0618c000 c0800103     ................
    607c:	fefb2f20 00000000 00000000 00000000      /..............
    608c:	c3fef907 0c33cc30 e1c730c3 000000f8     ....0.3..0......
	...
    60a4:	0c330c00 33cc30c3 cf30c30c 30c0f6db     ..3..0.3..0....0
    60b4:	0000000c 00000000 e30c0000 618e7bbc     .............{.a
    60c4:	06186080 00608001 00000000 00000000     .`....`.........
    60d4:	c33f0000 30c3f8c1 c30c33cc f0e0c730     ..?....0.3..0...
    60e4:	000000ff 03000000 1863f8e0 ff061bcc     ..........c.....
    60f4:	061becbf e0c31863 000000f8 00000000     ....c...........
    6104:	e3fce103 061b6cb0 1b6cb0c1 c698e38e     .....l....l.....
    6114:	00008e33 00000000 fef80300 e1070318     3...............
    6124:	cc30c3f8 30c30c33 00f8e1c7 00000000     ..0.3..0........
    6134:	00000000 02000000 a2885421 88228a28     ........!T..(.".
    6144:	00204295 00000000 00000000 07000000     .B .............
    6154:	860e7367 628a28a3 7367b8b0 00000070     gs...(.b..gsp...
    6164:	00000000 60f8e003 00030c18 030c3ffc     .......`.....?..
    6174:	03186000 0000f8e0 00000000 00000000     .`..............
    6184:	1b8c0f3e 6cb0c106 b0c1061b c1061b6c     >......l....l...
    6194:	000060b0 00000000 0f000000 0000fefb     .`..............
    61a4:	00fefb0f fefb0f00 00000000 00000000     ................
    61b4:	02080000 ff208000 2080e0bf 03000208     ...... .... ....
    61c4:	000000fe 00000000 3000030c 30c0000c     ...........0...0
    61d4:	c0c00003 0c0c3030 3f000003 0000f0cf     ....00.....?....
    61e4:	0c300000 0003030c 0330c0c0 030cc000     ..0.......0.....
    61f4:	000c3000 00f0cf3f 88600307 00020820     .0..?.....`. ...
    6204:	02082080 08208000 20800002 80000208     . .... .... ....
    6214:	00020820 02082080 08208000 20800002      .... .... .... 
    6224:	80000208 09240820 00008001 18000000     .... .$.........
    6234:	00000006 00e0bfff 00061800 00000000     ................
	...
    624c:	8a0f1c00 0f1c073e 00073e8a 00000000     ....>....>......
	...
    6264:	01092460 00000080 00000000 00000000     `$..............
	...
    6288:	80030e38 00000000 00000000 00000000     8...............
	...
    62a0:	01000000 00006080 00000000 0f000000     .....`..........
    62b0:	40000104 0d020820 0c504001 00800002     ...@ ....@P.....
    62c0:	00000000 f0c30b00 638c31c6 00000018     .........1.c....
	...
    62dc:	83070000 03070cf0 3fe0c081 00000000     ...........?....
	...
    6300:	c30f3ffc 0f3ffcf0 0000f0c3 00000000     .?....?.........
	...
    6328:	ffffffff 677537ff 71312c6a 38ffffff     .....7ugj,1q...8
    6338:	ff6b6869 7aff7732 6f3039ff 65332e6c     ihk.2w.z.90ol.3e
    6348:	ffff7861 2f3b702d 63737234 5b3dff20     ax..-p;/4rsc .=[
    6358:	7435ff27 ff6e7664 5cff5d27 62667936     '.5tdvn.'].\6yfb
    6368:	ffffff6d 0000ffff ffffffff 475526ff     m............&UG
    6378:	51213c4a 2affffff ff4b4849 5aff5740     J<!Q...*IHK.@W.Z
    6388:	4f2928ff 45233e4c ffff5841 3f3a505f     .()OL>#EAX.._P:?
    6398:	43535224 7b2bff20 5425ff22 ff4e5644     $RSC .+{".%TDVN.
    63a8:	7cff7d7e 4246595e ffffff4d 0000ffff     ~}.|^YFBM.......

000063b8 <kb_col>:
    63b8:	00010000 00020000 00040000 00080000     ................
    63c8:	00100000 00200000 08000000              ...... .....

000063d4 <kb_col_index>:
    63d4:	00000010 00000011 00000012 00000013     ................
    63e4:	00000014 00000015 0000001b              ............

000063f0 <kb_row>:
    63f0:	00000004 00000008 00000010 00000020     ............ ...
    6400:	00000040 00000080 00000400 00000800     @...............
    6410:	00001000 00002000                       ..... ..

00006418 <kb_row_index>:
    6418:	00000002 00000003 00000004 00000005     ................
    6428:	00000006 00000007 0000000a 0000000b     ................
    6438:	0000000c 0000000d                       ........

00006440 <beelzebub.12955>:
    6440:	2e002d00 44003200 88005300 f300b600     .-...2.D.S......
    6450:	64012201 d4019201 08020702 5f023402     .".d.........4._
    6460:	94027802 bb02a602 db02ca02 f902e802     .x..............
    6470:	7f031f03                                ....

00006474 <belial.12952>:
    6474:	f0f0f0f0 b0b0b0f0 b1b6b6b6 b7b7b1b1     ................
    6484:	b2b2b2b7 bfb8b8b8 b9b3b3b3 b5b5b9b9     ................
    6494:	babac2b5 bcbcbcba bebdbdbd f0f0f0be     ................
    64a4:	b1b1f0f0 b8b7b7b6 bcb8b8b8 c9c9bcbc     ................
    64b4:	35c9c9c9 0000363a                       ...5:6..

000064bc <lucifer.12954>:
    64bc:	0852aa55 0d0d0d01 0d343434 34340d0d     U.R.....444...44
    64cc:	00000034 01242424 340f0f0f 08083434     4...$$$....444..
    64dc:	24240308 00780024 00007800 52aa5589     ..$$$.x..x...U.R
    64ec:	00cc0008 01707005 02030303 02d00000     .....pp.........
    64fc:	00505050 00000055                       PPP.U...

00006504 <mulciber.12953>:
    6504:	03020100 02010004 00020100 01000201     ................
    6514:	02010002 00020100 01000201 01000002     ................
    6524:	02010000 00020100 01000201 03020100     ................
    6534:	00000004 01000100 01000302 02010002     ................
    6544:	00000403 00000000 69726553 4f206c61     ........Serial O
    6554:	3639204b 38203030 0d0a314e 00000000     K 9600 8N1......

00006564 <_global_impure_ptr>:
    6564:	2000015c                                \.. 

00006568 <__sf_fake_stderr>:
	...

00006588 <__sf_fake_stdin>:
	...

000065a8 <__sf_fake_stdout>:
	...
    65c8:	2b302d23 6c680020 6665004c 47464567     #-0+ .hlL.efgEFG
    65d8:	32313000 36353433 41393837 45444342     .0123456789ABCDE
    65e8:	31300046 35343332 39383736 64636261     F.0123456789abcd
    65f8:	00006665                                ef..

000065fc <_init>:
    65fc:	b5f8      	push	{r3, r4, r5, r6, r7, lr}
    65fe:	46c0      	nop			; (mov r8, r8)
    6600:	bcf8      	pop	{r3, r4, r5, r6, r7}
    6602:	bc08      	pop	{r3}
    6604:	469e      	mov	lr, r3
    6606:	4770      	bx	lr

00006608 <__init_array_start>:
    6608:	000000dd 	.word	0x000000dd

0000660c <_fini>:
    660c:	b5f8      	push	{r3, r4, r5, r6, r7, lr}
    660e:	46c0      	nop			; (mov r8, r8)
    6610:	bcf8      	pop	{r3, r4, r5, r6, r7}
    6612:	bc08      	pop	{r3}
    6614:	469e      	mov	lr, r3
    6616:	4770      	bx	lr

00006618 <__fini_array_start>:
    6618:	000000b5 	.word	0x000000b5
